
test.x:     file format elf64-x86-64
architecture: i386:x86-64, flags 0x00000112:
EXEC_P, HAS_SYMS, D_PAGED
start address 0x00000000004008c3

Contents of section .interp:
 400238 2f6c6962 36342f6c 642d6c69 6e75782d  /lib64/ld-linux-
 400248 7838362d 36342e73 6f2e3200           x86-64.so.2.    
Contents of section .note.ABI-tag:
 400254 04000000 10000000 01000000 474e5500  ............GNU.
 400264 00000000 02000000 06000000 20000000  ............ ...
Contents of section .note.gnu.build-id:
 400274 04000000 14000000 03000000 474e5500  ............GNU.
 400284 f1eb0d07 f6c0b1ab 5be93ee5 c11c521e  ........[.>...R.
 400294 fe7d3db0                             .}=.            
Contents of section .gnu.hash:
 400298 01000000 01000000 01000000 00000000  ................
 4002a8 00000000 00000000 00000000           ............    
Contents of section .dynsym:
 4002b8 00000000 00000000 00000000 00000000  ................
 4002c8 00000000 00000000 55000000 12000000  ........U.......
 4002d8 00000000 00000000 00000000 00000000  ................
 4002e8 50000000 12000000 00000000 00000000  P...............
 4002f8 00000000 00000000 5d000000 12000000  ........].......
 400308 00000000 00000000 00000000 00000000  ................
 400318 64000000 12000000 00000000 00000000  d...............
 400328 00000000 00000000 0b000000 20000000  ............ ...
 400338 00000000 00000000 00000000 00000000  ................
 400348 41000000 12000000 00000000 00000000  A...............
 400358 00000000 00000000                    ........        
Contents of section .dynstr:
 400360 006c6962 6d2e736f 2e36005f 5f676d6f  .libm.so.6.__gmo
 400370 6e5f7374 6172745f 5f006c69 62676f6d  n_start__.libgom
 400380 702e736f 2e31006c 69627074 68726561  p.so.1.libpthrea
 400390 642e736f 2e30006c 6962632e 736f2e36  d.so.0.libc.so.6
 4003a0 00706f73 69785f6d 656d616c 69676e00  .posix_memalign.
 4003b0 70757473 00707574 63686172 00707269  puts.putchar.pri
 4003c0 6e746600 5f5f6c69 62635f73 74617274  ntf.__libc_start
 4003d0 5f6d6169 6e00474c 4942435f 322e322e  _main.GLIBC_2.2.
 4003e0 3500                                 5.              
Contents of section .gnu.version:
 4003e2 00000200 02000200 02000000 0200      ..............  
Contents of section .gnu.version_r:
 4003f0 01000100 37000000 10000000 00000000  ....7...........
 400400 751a6909 00000200 76000000 00000000  u.i.....v.......
Contents of section .rela.dyn:
 400410 f82f6000 00000000 06000000 05000000  ./`.............
 400420 00000000 00000000                    ........        
Contents of section .rela.plt:
 400428 18306000 00000000 07000000 01000000  .0`.............
 400438 00000000 00000000 20306000 00000000  ........ 0`.....
 400448 07000000 02000000 00000000 00000000  ................
 400458 28306000 00000000 07000000 03000000  (0`.............
 400468 00000000 00000000 30306000 00000000  ........00`.....
 400478 07000000 04000000 00000000 00000000  ................
 400488 38306000 00000000 07000000 05000000  80`.............
 400498 00000000 00000000 40306000 00000000  ........@0`.....
 4004a8 07000000 06000000 00000000 00000000  ................
Contents of section .init:
 4004b8 4883ec08 488b0535 2b200048 85c07405  H...H..5+ .H..t.
 4004c8 e8630000 004883c4 08c3               .c...H....      
Contents of section .plt:
 4004e0 ff35222b 2000ff25 242b2000 0f1f4000  .5"+ ..%$+ ...@.
 4004f0 ff25222b 20006800 000000e9 e0ffffff  .%"+ .h.........
 400500 ff251a2b 20006801 000000e9 d0ffffff  .%.+ .h.........
 400510 ff25122b 20006802 000000e9 c0ffffff  .%.+ .h.........
 400520 ff250a2b 20006803 000000e9 b0ffffff  .%.+ .h.........
 400530 ff25022b 20006804 000000e9 a0ffffff  .%.+ .h.........
 400540 ff25fa2a 20006805 000000e9 90ffffff  .%.* .h.........
Contents of section .text:
 400550 53be0014 0000bfb4 1f400031 c04883ec  S........@.1.H..
 400560 20e8aaff ffff488d 7c2408ba 00140000   .....H.|$......
 400570 be400000 00e8c6ff ffff488d 7c2410ba  .@........H.|$..
 400580 00140000 be400000 00e8b2ff ffff488d  .....@........H.
 400590 7c2418ba 00140000 be400000 00e89eff  |$.......@......
 4005a0 ffff31c9 bf676666 660f1f80 00000000  ..1..gfff.......
 4005b0 89c889cb f7ef89c8 c1f81f89 d6c1fa06  ................
 4005c0 29c2c1fe 0829c68d 0492488b 542408c1  )....)....H.T$..
 4005d0 e00529c3 89d8c1f8 0231f083 e00183f0  ..)......1......
 4005e0 01f7d888 040a488b 442410c6 04080048  ......H.D$.....H
 4005f0 8b442418 c6040800 4883c101 4881f900  .D$.....H...H...
 400600 14000075 abbfca1f 4000e8f1 feffff48  ...u....@......H
 400610 8b542408 be200000 00bfa000 0000e88d  .T$.. ..........
 400620 030000bf 18204000 e8d3feff ff0f3148  ..... @.......1H
 400630 89d3488b 4c241048 8b542408 89c048c1  ..H.L$.H.T$...H.
 400640 e320be20 000000bf a0000000 4809c3e8  . . ........H...
 400650 ac060000 0f3148c1 e22089c0 4809c248  .....1H.. ..H..H
 400660 29da0f88 f3010000 c4e1fb2a c2c5fb59  )..........*...Y
 400670 050b1a00 00bfda1f 4000b801 000000c5  ........@.......
 400680 fb100d01 1a0000c5 f35ec0e8 80feffff  .........^......
 400690 bff51f40 00e866fe ffff488b 542410be  ...@..f...H.T$..
 4006a0 20000000 bfa00000 00e80203 0000bf18   ...............
 4006b0 204000e8 48feffff 0f314889 d3488b4c   @..H....1H..H.L
 4006c0 2418488b 54241089 c048c1e3 20be2000  $.H.T$...H.. . .
 4006d0 0000bfa0 00000048 09c3e8c1 0700000f  .......H........
 4006e0 3148c1e2 2089c048 09c24829 da0f88b6  1H.. ..H..H)....
 4006f0 010000c4 e1fb2ac2 c5fb5905 80190000  ......*...Y.....
 400700 bf022040 00b80100 0000c5fb 10157e19  .. @..........~.
 400710 0000c5eb 5ec0e8f5 fdffffbf 1a204000  ....^........ @.
 400720 e8dbfdff ff488b54 2418be05 000000bf  .....H.T$.......
 400730 00040000 e8770200 00bf1820 4000e8bd  .....w..... @...
 400740 fdffff0f 314889d3 488b5424 1889c048  ....1H..H.T$...H
 400750 c1e320be 20000000 bfa00000 004809c3  .. . ........H..
 400760 4889d1e8 38040000 0f3148c1 e22089c0  H...8....1H.. ..
 400770 4809c248 29da0f88 13010000 c4e1fb2a  H..H)..........*
 400780 c2c5fb59 05f71800 00bf2820 4000b801  ...Y......( @...
 400790 000000c5 fb101df5 180000c5 e35ec0e8  .............^..
 4007a0 6cfdffff bf412040 00e852fd ffff488b  l....A @..R...H.
 4007b0 542418be 05000000 bf000400 00e8ee01  T$..............
 4007c0 0000bf18 204000e8 34fdffff 0f314889  .... @..4....1H.
 4007d0 d3488b4c 2410488b 54241889 c048c1e3  .H.L$.H.T$...H..
 4007e0 20be2000 0000bfa0 00000048 09c3e86d   . ........H...m
 4007f0 0a00000f 3148c1e2 2089c048 09c24829  ....1H.. ..H..H)
 400800 da7872c4 e1fb2ac2 c5fb5905 70180000  .xr...*...Y.p...
 400810 bf502040 00b80100 0000c5fb 10256e18  .P @.........%n.
 400820 0000c5db 5ec0e8e5 fcffffbf 6a204000  ....^.......j @.
 400830 e8cbfcff ff488b54 2410be20 000000bf  .....H.T$.. ....
 400840 a0000000 e8670100 00bf1820 4000e8ad  .....g..... @...
 400850 fcffff48 83c42031 c05bc348 89d083e2  ...H.. 1.[.H....
 400860 0148d1e8 4809d0c4 e1fb2ac0 c5fb58c0  .H..H.....*...X.
 400870 e9f8fdff ff4889d0 83e20148 d1e84809  .....H.....H..H.
 400880 d0c4e1fb 2ac0c5fb 58c0e979 ffffff48  ....*...X..y...H
 400890 89d083e2 0148d1e8 4809d0c4 e1fb2ac0  .....H..H.....*.
 4008a0 c5fb58c0 e9d8feff ff4889d0 83e20148  ..X......H.....H
 4008b0 d1e84809 d0c4e1fb 2ac0c5fb 58c0e935  ..H.....*...X..5
 4008c0 feffff31 ed4989d1 5e4889e2 4883e4f0  ...1.I..^H..H...
 4008d0 505449c7 c0901f40 0048c7c1 201f4000  PTI....@.H.. .@.
 4008e0 48c7c750 054000e8 34fcffff f40f1f00  H..P.@..4.......
 4008f0 b8573060 0055482d 50306000 4883f80e  .W0`.UH-P0`.H...
 400900 4889e577 025dc3b8 00000000 4885c074  H..w.]......H..t
 400910 f45dbf50 306000ff e00f1f80 00000000  .].P0`..........
 400920 b8503060 0055482d 50306000 48c1f803  .P0`.UH-P0`.H...
 400930 4889e548 89c248c1 ea3f4801 d048d1f8  H..H..H..?H..H..
 400940 75025dc3 ba000000 004885d2 74f45d48  u.]......H..t.]H
 400950 89c6bf50 306000ff e20f1f80 00000000  ...P0`..........
 400960 803de526 20000075 11554889 e5e87eff  .=.& ..u.UH...~.
 400970 ffff5dc6 05d22620 0001f3c3 0f1f4000  ..]...& ......@.
 400980 48833d68 24200000 741eb800 00000048  H.=h$ ..t......H
 400990 85c07414 55bff02d 60004889 e5ffd05d  ..t.U..-`.H....]
 4009a0 e97bffff ff0f1f00 e973ffff ff0f1f00  .{.......s......
 4009b0 41574156 41554154 55534883 ec1885f6  AWAVAUATUSH.....
 4009c0 8974240c 7e62448d 7fff4863 c74189fd  .t$.~bD...Hc.A..
 4009d0 48890424 4889d545 31e44983 c7016690  H..$H..E1.I...f.
 4009e0 4585ed7e 2a498d1c 2f4989ee 0f1f4000  E..~*I../I....@.
 4009f0 31f64180 3effbfb0 1f400040 0f94c631  1.A.>....@.@...1
 400a00 c04983c6 01e806fb ffff4939 de75e1bf  .I........I9.u..
 400a10 0a000000 4183c401 e8d3faff ff48032c  ....A........H.,
 400a20 24443b64 240c75b8 4883c418 5b5d415c  $D;d$.u.H...[]A\
 400a30 415d415e 415fc366 0f1f8400 00000000  A]A^A_.f........
 400a40 448d5f1f 85ff440f 49df41c1 fb054585  D._...D.I.A...E.
 400a50 db0f8e44 01000055 448d5603 4889e553  ...D...UD.V.H..S
 400a60 4883e4e0 4883c408 85f6440f 49d6c1e6  H...H.....D.I...
 400a70 054531c0 41c1fa02 4c63ce41 8d5afed1  .E1.A...Lc.A.Z..
 400a80 eb48c1e3 084881c3 80010000 0f1f4000  .H...H........@.
 400a90 c5fd2842 204183fa 01c5fd28 4a40c5fd  ..(B A.....(J@..
 400aa0 285260c5 fddb1ac5 f5dbf8c5 6ddbc10f  (R`.........m...
 400ab0 8ecb0000 00c44131 57c9488d 3c1a488d  ......A1W.H.<.H.
 400ac0 82800000 004889ce 0f1f8400 00000000  .....H..........
 400ad0 c56ddbd7 c5fd6f38 48050001 0000c4c1  .m....o8H.......
 400ae0 7d54c1c5 fd28b020 ffffffc5 f554cbc5  }T...(. .....T..
 400af0 fd28a840 ffffffc4 4145dbc0 c5fd28a0  .(.@....AE....(.
 400b00 60ffffff c5c5dbda c5fd2906 c5fd294e  `.........)...)N
 400b10 20c5c5db fec57d29 4660c555 dbcec57d   .....})F`.U...}
 400b20 295640c5 5ddbc5c5 e5dbf648 81c60001  )V@.]......H....
 400b30 0000c5fd 6f5880c5 c5dbedc5 35dbccc5  ....oX......5...
 400b40 fd2840a0 c44165db c0c5fd28 48c0c5fd  .(@..Ae....(H...
 400b50 2850e0c5 7d294ec0 c5f5dbf8 c57d2946  (P..})N......})F
 400b60 e0c565db ccc5fd29 7680c5e5 dbd8c5fd  ..e....)v.......
 400b70 296ea048 39f8c56d dbc10f85 50ffffff  )n.H9..m....P...
 400b80 4183c001 4c01ca4c 01c94539 d80f85fd  A...L..L..E9....
 400b90 feffffc5 f877488b 5df8c9f3 c30f1f00  .....wH.].......
 400ba0 448d5f1f 85ff440f 49df41c1 fb054585  D._...D.I.A...E.
 400bb0 db0f8e44 01000055 448d5603 4889e553  ...D...UD.V.H..S
 400bc0 4883e4e0 4883c408 85f6440f 49d6c1e6  H...H.....D.I...
 400bd0 054531c0 41c1fa02 4c63ce41 8d5afed1  .E1.A...Lc.A.Z..
 400be0 eb48c1e3 084881c3 80010000 0f1f4000  .H...H........@.
 400bf0 c5fd2842 204183fa 01c5fd28 4a40c5fd  ..(B A.....(J@..
 400c00 285260c5 fddb1ac5 f5dbf8c5 6ddbc10f  (R`.........m...
 400c10 8ecb0000 00c44131 57c9488d 3c1a488d  ......A1W.H.<.H.
 400c20 82800000 004889ce 0f1f8400 00000000  .....H..........
 400c30 c56ddbd7 c5fd6f38 48050001 0000c4c1  .m....o8H.......
 400c40 7d54c1c5 fd28b020 ffffffc5 f554cbc5  }T...(. .....T..
 400c50 fd28a840 ffffffc4 4145dbc0 c5fd28a0  .(.@....AE....(.
 400c60 60ffffff c5c5dbda c5fd2906 c5fd294e  `.........)...)N
 400c70 20c5c5db fec57d29 4660c555 dbcec57d   .....})F`.U...}
 400c80 295640c5 5ddbc5c5 e5dbf648 81c60001  )V@.]......H....
 400c90 0000c5fd 6f5880c5 c5dbedc5 35dbccc5  ....oX......5...
 400ca0 fd2840a0 c44165db c0c5fd28 48c0c5fd  .(@..Ae....(H...
 400cb0 2850e0c5 7d294ec0 c5f5dbf8 c57d2946  (P..})N......})F
 400cc0 e0c565db ccc5fd29 7680c5e5 dbd8c5fd  ..e....)v.......
 400cd0 296ea048 39f8c56d dbc10f85 50ffffff  )n.H9..m....P...
 400ce0 4183c001 4c01ca4c 01c94539 d80f85fd  A...L..L..E9....
 400cf0 feffffc5 f877488b 5df8c9f3 c30f1f00  .....wH.].......
 400d00 554889e5 41574156 41554154 534883e4  UH..AWAVAUATSH..
 400d10 e04883c4 0885f689 7424e40f 8e620100  .H......t$...b..
 400d20 008d471f 85ff4c8d 7120c744 24f40000  ..G...L.q .D$...
 400d30 00000f49 c7894424 f04863c7 c17c24f0  ...I..D$.Hc..|$.
 400d40 05488944 24e84c8d 7c10df8b 4424f083  .H.D$.L.|...D$..
 400d50 e803c1e8 024c8d68 0149c1e5 070f1f00  .....L.h.I......
 400d60 c5fd280a 837c24f0 02c5fd10 5a01c5fd  ..(..|$.....Z...
 400d70 6fc1c4e3 7546d108 c5f5dbcb c4e37d0f  o...uF........}.
 400d80 c20fc5fd dbc1c4c1 7d2946e0 0f8ea300  ........})F.....
 400d90 0000488d 4a1f4c8d 6221488d 5a3f4c8d  ..H.J.L.b!H.Z?L.
 400da0 5a414c8d 525f4c8d 4a614c8d 427f488d  ZAL.R_L.JaL.B.H.
 400db0 ba810000 004c89f6 31c0660f 1f440000  .....L..1.f..D..
 400dc0 c5fd1001 4883ee80 4883e980 c4c17d10  ....H...H.....}.
 400dd0 0c04c5fd 544181c5 f5dbc0c5 fd294680  ....TA.......)F.
 400de0 c5fd1004 03c4c17d 100c03c5 fd5441a1  .......}.....TA.
 400df0 c5f5dbc0 c5fd2946 a0c4c17d 100402c4  ......)F...}....
 400e00 c17d100c 01c5fd54 41c1c5f5 dbc0c5fd  .}.....TA.......
 400e10 2946c0c4 c17d1004 00c5fd10 0c074883  )F...}........H.
 400e20 e880c5fd 5441e1c5 f5dbc0c5 fd2946e0  ....TA.......)F.
 400e30 4c39e875 8b834424 f401c4c1 7d284f01  L9.u..D$....}(O.
 400e40 488b4424 e8c5fd6f c1c4e375 46d181c4  H.D$...o...uF...
 400e50 c17d101f 4801c249 01c7c4e3 6d0fc001  .}..H..I....m...
 400e60 c5f5dbcb c5fddbc1 c4c17d29 4406c049  ..........})D..I
 400e70 01c68b44 24e43944 24f40f85 e0feffff  ...D$.9D$.......
 400e80 c5f87748 8d65d85b 415c415d 415e415f  ..wH.e.[A\A]A^A_
 400e90 5dc30f1f 4000662e 0f1f8400 00000000  ]...@.f.........
 400ea0 4189f255 4531c044 0fafd7c5 f957c048  A..UE1.D.....W.H
 400eb0 89e54883 e4e04989 d14881ec 88010000  ..H...I..H......
 400ec0 4585d2c5 fd294424 88c5fd29 4424a8c5  E....)D$...)D$..
 400ed0 fd294424 c8c5fd29 4424e8c5 fd294424  .)D$...)D$...)D$
 400ee0 08c5fd29 442428c5 fd294424 48c5fd29  ...)D$(..)D$H..)
 400ef0 442468c5 fd298424 88000000 c5fd2984  D$h..).$......).
 400f00 24a80000 00c5fd29 8424c800 0000c5fd  $......).$......
 400f10 298424e8 000000c5 fd298424 08010000  ).$......).$....
 400f20 c5fd2984 24280100 00c5fd29 84244801  ..).$(.....).$H.
 400f30 0000c5fd 29842468 0100000f 8e140300  ....).$h........
 400f40 000f1f80 00000000 c4c17d28 014489c0  ..........}(.D..
 400f50 99c5fd29 442488c4 c17d2841 20f7ffc5  ...)D$...}(A ...
 400f60 fd294424 a8c4c17d 284140c5 fd294424  .)D$...}(A@..)D$
 400f70 c8c4c17d 2841600f afd6c1e0 05c5fd29  ...}(A`........)
 400f80 4424e8c4 c17d2881 80000000 01d0c5fd  D$...}(.........
 400f90 29442408 4898c4c1 7d2881a0 000000c5  )D$.H...}(......
 400fa0 fd294424 28c4c17d 2881c000 0000c5fd  .)D$(..}(.......
 400fb0 29442448 c4c17d28 81e00000 00c5fd29  )D$H..}(.......)
 400fc0 442468c4 c17d2881 00010000 c5fd2984  D$h..}(.......).
 400fd0 24880000 00c4c17d 28812001 0000c5fd  $......}(. .....
 400fe0 298424a8 000000c4 c17d2881 40010000  ).$......}(.@...
 400ff0 c5fd2984 24c80000 00c4c17d 28816001  ..).$......}(.`.
 401000 0000c5fd 298424e8 000000c4 c17d2881  ....).$......}(.
 401010 80010000 c5fd2984 24080100 00c4c17d  ......).$......}
 401020 2881a001 0000c5fd 29842428 010000c4  (.......).$(....
 401030 c17d2881 c0010000 c5fd2984 24480100  .}(.......).$H..
 401040 00c4c17d 2881e001 0000c5fd 29842468  ...}(.......).$h
 401050 010000c5 fd284424 88c5fd29 0401418d  .....(D$...)..A.
 401060 4020c5fd 284424a8 99f7ff0f afd6c1e0  @ ..(D$.........
 401070 0501d048 98c5fd29 0401418d 4040c5fd  ...H...)..A.@@..
 401080 284424c8 99f7ff0f afd6c1e0 0501d048  (D$............H
 401090 98c5fd29 0401418d 4060c5fd 284424e8  ...)..A.@`..(D$.
 4010a0 99f7ff0f afd6c1e0 0501d048 98c5fd29  ...........H...)
 4010b0 0401418d 80800000 00c5fd28 44240899  ..A........(D$..
 4010c0 f7ff0faf d6c1e005 01d04898 c5fd2904  ..........H...).
 4010d0 01418d80 a0000000 c5fd2844 242899f7  .A........(D$(..
 4010e0 ff0fafd6 c1e00501 d04898c5 fd290401  .........H...)..
 4010f0 418d80c0 000000c5 fd284424 4899f7ff  A........(D$H...
 401100 c1e0050f afd601d0 4898c5fd 29040141  ........H...)..A
 401110 8d80e000 0000c5fd 28442468 99f7ff0f  ........(D$h....
 401120 afd6c1e0 0501d048 98c5fd29 0401418d  .......H...)..A.
 401130 80000100 00c5fd28 84248800 000099f7  .......(.$......
 401140 ff0fafd6 c1e00501 d04898c5 fd290401  .........H...)..
 401150 418d8020 010000c5 fd288424 a8000000  A.. .....(.$....
 401160 99f7ff0f afd6c1e0 0501d048 98c5fd29  ...........H...)
 401170 0401418d 80400100 00c5fd28 8424c800  ..A..@.....(.$..
 401180 000099f7 ff0fafd6 c1e00501 d04898c5  .............H..
 401190 fd290401 418d8060 010000c5 fd288424  .)..A..`.....(.$
 4011a0 e8000000 99f7ff0f afd6c1e0 0501d048  ...............H
 4011b0 98c5fd29 0401418d 80800100 00c5fd28  ...)..A........(
 4011c0 84240801 000099f7 ff0fafd6 c1e00501  .$..............
 4011d0 d04898c5 fd290401 418d80a0 010000c5  .H...)..A.......
 4011e0 fd288424 28010000 99f7ff49 81c10002  .(.$(......I....
 4011f0 00000faf d6c1e005 01d04898 c5fd2904  ..........H...).
 401200 01418d80 c0010000 c5fd2884 24480100  .A........(.$H..
 401210 0099f7ff 0fafd6c1 e00501d0 4898c5fd  ............H...
 401220 29040141 8d80e001 00004181 c0000200  )..A......A.....
 401230 00c5fd28 84246801 000099f7 ff0fafd6  ...(.$h.........
 401240 c1e00501 d04539d0 4898c5fd 2904010f  .....E9.H...)...
 401250 8cf3fcff ffc5f877 c9c3660f 1f440000  .......w..f..D..
 401260 55c5f957 c04189f0 4531c949 89d24889  U..W.A..E1.I..H.
 401270 e5415441 89f4440f afe741c1 e0055348  .ATA..D...A...SH
 401280 83e4e048 81ec8801 00004585 e4c5fd29  ...H......E....)
 401290 442488c5 fd294424 a8c5fd29 4424c8c5  D$...)D$...)D$..
 4012a0 fd294424 e8c5fd29 442408c5 fd294424  .)D$...)D$...)D$
 4012b0 28c5fd29 442448c5 fd294424 68c5fd29  (..)D$H..)D$h..)
 4012c0 84248800 0000c5fd 298424a8 000000c5  .$......).$.....
 4012d0 fd298424 c8000000 c5fd2984 24e80000  .).$......).$...
 4012e0 00c5fd29 84240801 0000c5fd 29842428  ...).$......).$(
 4012f0 010000c5 fd298424 48010000 c5fd2984  .....).$H.....).
 401300 24680100 000f8e31 0400000f 1f440000  $h.....1.....D..
 401310 c4c17d28 024489c8 418d5920 99c5fd29  ..}(.D..A.Y ...)
 401320 442488c4 c17d2842 2041f7f8 c5fd2944  D$...}(B A....)D
 401330 24a8c4c1 7d284240 c5fd2944 24c8c4c1  $...}(B@..)D$...
 401340 7d284260 4189c344 89c8c5fd 294424e8  }(B`A..D....)D$.
 401350 c1f80541 c1e305c4 c17d2882 80000000  ...A.....}(.....
 401360 99f7fec5 fd294424 0889d8c4 c17d2882  .....)D$.....}(.
 401370 a0000000 c5fd2944 2428c4c1 7d2882c0  ......)D$(..}(..
 401380 0000000f afd7c5fd 29442448 c4c17d28  ........)D$H..}(
 401390 82e00000 004101d3 99c5fd29 4424684d  .....A.....)D$hM
 4013a0 63dbc4c1 7d288200 01000041 f7f8c5fd  c...}(.....A....
 4013b0 29842488 000000c4 c17d2882 20010000  ).$......}(. ...
 4013c0 c5fd2984 24a80000 00c4c17d 28824001  ..).$......}(.@.
 4013d0 0000c5fd 298424c8 000000c4 c17d2882  ....).$......}(.
 4013e0 60010000 c5fd2984 24e80000 00c4c17d  `.....).$......}
 4013f0 28828001 0000c5fd 29842408 010000c4  (.......).$.....
 401400 c17d2882 a0010000 c5fd2984 24280100  .}(.......).$(..
 401410 00c4c17d 2882c001 0000c5fd 29842448  ...}(.......).$H
 401420 010000c4 c17d2882 e0010000 c5fd2984  .....}(.......).
 401430 24680100 00c5fd28 442488c4 a17d2904  $h.....(D$...}).
 401440 194189c3 89d8c1f8 05418d59 4041c1e3  .A.......A.Y@A..
 401450 0599c5fd 284424a8 f7fe89d8 0fafd741  ....(D$........A
 401460 01d39941 f7f84d63 dbc4a17d 290419c5  ...A..Mc...})...
 401470 fd284424 c84189c3 89d8418d 5960c1f8  .(D$.A....A.Y`..
 401480 0541c1e3 0599f7fe 89d80faf d74101d3  .A...........A..
 401490 9941f7f8 4d63dbc4 a17d2904 19c5fd28  .A..Mc...})....(
 4014a0 4424e841 89c389d8 418d9980 000000c1  D$.A....A.......
 4014b0 f80541c1 e30599f7 fe89d80f afd74101  ..A...........A.
 4014c0 d39941f7 f84d63db c4a17d29 0419c5fd  ..A..Mc...})....
 4014d0 28442408 4189c389 d8418d99 a0000000  (D$.A....A......
 4014e0 c1f80541 c1e30599 f7fe89d8 0fafd741  ...A...........A
 4014f0 01d39941 f7f84d63 dbc4a17d 290419c5  ...A..Mc...})...
 401500 fd284424 284189c3 89d8418d 99c00000  .(D$(A....A.....
 401510 00c1f805 41c1e305 99f7fe89 d80fafd7  ....A...........
 401520 4101d399 41f7f84d 63dbc4a1 7d290419  A...A..Mc...})..
 401530 c5fd2844 24484189 c389d841 8d99e000  ..(D$HA....A....
 401540 0000c1f8 0541c1e3 0599f7fe 89d80faf  .....A..........
 401550 d74101d3 9941f7f8 4d63dbc4 a17d2904  .A...A..Mc...}).
 401560 19c5fd28 44246841 89c389d8 418d9900  ...(D$hA....A...
 401570 010000c1 f80541c1 e30599f7 fe89d80f  ......A.........
 401580 afd74101 d39941f7 f84d63db c4a17d29  ..A...A..Mc...})
 401590 0419c5fd 28842488 00000041 89c389d8  ....(.$....A....
 4015a0 418d9920 01000041 c1e305c1 f80599f7  A.. ...A........
 4015b0 fe89d80f afd74101 d39941f7 f84d63db  ......A...A..Mc.
 4015c0 c4a17d29 0419c5fd 288424a8 00000041  ..})....(.$....A
 4015d0 89c389d8 418d9940 010000c1 f80541c1  ....A..@......A.
 4015e0 e30599f7 fe89d80f afd74101 d39941f7  ..........A...A.
 4015f0 f84d63db c4a17d29 0419c5fd 288424c8  .Mc...})....(.$.
 401600 00000041 89c389d8 418d9960 010000c1  ...A....A..`....
 401610 f80541c1 e30599f7 fe89d80f afd74101  ..A...........A.
 401620 d39941f7 f84d63db c4a17d29 0419c5fd  ..A..Mc...})....
 401630 288424e8 00000041 89c389d8 418d9980  (.$....A....A...
 401640 010000c1 f80541c1 e30599f7 fe89d80f  ......A.........
 401650 afd74101 d39941f7 f84d63db c4a17d29  ..A...A..Mc...})
 401660 0419c5fd 28842408 01000041 89c389d8  ....(.$....A....
 401670 418d99a0 01000041 c1e305c1 f8054981  A......A......I.
 401680 c2000200 0099f7fe 89d80faf d74101d3  .............A..
 401690 9941f7f8 4d63dbc4 a17d2904 19c5fd28  .A..Mc...})....(
 4016a0 84242801 00004189 c389d841 8d99c001  .$(...A....A....
 4016b0 0000c1f8 0541c1e3 0599f7fe 89d80faf  .....A..........
 4016c0 d74101d3 9941f7f8 4d63dbc4 a17d2904  .A...A..Mc...}).
 4016d0 19c5fd28 84244801 00004189 c389d841  ...(.$H...A....A
 4016e0 8d99e001 0000c1f8 0541c1e3 054181c1  .........A...A..
 4016f0 00020000 99f7fe89 d80fafd7 4101d399  ............A...
 401700 41f7f84d 63dbc4a1 7d290419 c5fd2884  A..Mc...})....(.
 401710 24680100 004189c3 89d8c1f8 0541c1e3  $h...A.......A..
 401720 0599f7fe 0fafd741 01d34539 e14d63db  .......A..E9.Mc.
 401730 c4a17d29 04190f8c d4fbffff c5f87748  ..})..........wH
 401740 8d65f05b 415c5dc3 0f1f8400 00000000  .e.[A\].........
 401750 85f60f8e 1b030000 554c63d7 4c8d4a01  ........ULc.L.J.
 401760 4e8d5c12 df4c8d41 204889e5 4154448d  N.\..L.A H..ATD.
 401770 671f5348 83e4e048 81ec0801 000085ff  g.SH...H........
 401780 440f49e7 31db41c1 fc05418d 4424fdc1  D.I.1.A...A.D$..
 401790 e802488d 780148c1 e707660f 1f440000  ..H.x.H...f..D..
 4017a0 c4c17d28 41ff31c9 4183fc02 4c89c249  ..}(A.1.A...L..I
 4017b0 8d411ec5 fd298424 88000000 c4c17d10  .A...).$......}.
 4017c0 01c5fd29 8424a800 0000c5fd 6f8c2488  ...).$......o.$.
 4017d0 000000c5 fd6f8424 88000000 c4e37d46  .....o.$......}F
 4017e0 c108c5fd 298424c8 000000c5 fd6f8424  ....).$......o.$
 4017f0 a8000000 c5fd6f8c 24880000 00c5f5db  ......o.$.......
 401800 c0c5fd29 8424e800 0000c5fd 6f8c24c8  ...).$......o.$.
 401810 000000c5 fd6f8424 88000000 c4e37d0f  .....o.$......}.
 401820 c10fc5fd 298424c8 000000c5 fd6f8424  ....).$......o.$
 401830 e8000000 c5fd6f8c 24c80000 00c5f5db  ......o.$.......
 401840 c0c5fd29 8424c800 0000c5fd 288424c8  ...).$......(.$.
 401850 000000c4 c17d2940 e00f8e75 01000090  .....})@...u....
 401860 c5fd1000 4883e980 4883e880 4883ea80  ....H...H...H...
 401870 c5fd2944 2488c5fd 284081c5 fd294424  ..)D$...(@...)D$
 401880 a8c5fd6f 4424a8c5 fd6f4c24 88c5f5db  ...oD$...oL$....
 401890 c0c5fd29 442488c5 fd104082 c5fd2944  ...)D$....@...)D
 4018a0 24a8c5fd 6f4424a8 c5fd6f4c 2488c5f5  $...oD$...oL$...
 4018b0 dbc0c5fd 29442488 c5fd2844 2488c5fd  ....)D$...(D$...
 4018c0 294280c5 fd1040a0 c5fd2944 24c8c5fd  )B....@...)D$...
 4018d0 2840a1c5 fd294424 e8c5fd6f 4424e8c5  (@...)D$...oD$..
 4018e0 fd6f4c24 c8c5f5db c0c5fd29 4424c8c5  .oL$.......)D$..
 4018f0 fd1040a2 c5fd2944 24e8c5fd 6f4424e8  ..@...)D$...oD$.
 401900 c5fd6f4c 24c8c5f5 dbc0c5fd 294424c8  ..oL$.......)D$.
 401910 c5fd2844 24c8c5fd 2942a0c5 fd1040c0  ..(D$...)B....@.
 401920 c5fd2944 2408c5fd 2840c1c5 fd294424  ..)D$...(@...)D$
 401930 28c5fd6f 442428c5 fd6f4c24 08c5f5db  (..oD$(..oL$....
 401940 c0c5fd29 442408c5 fd1040c2 c5fd2944  ...)D$....@...)D
 401950 2428c5fd 6f442428 c5fd6f4c 2408c5f5  $(..oD$(..oL$...
 401960 dbc0c5fd 29442408 c5fd2844 2408c5fd  ....)D$...(D$...
 401970 2942c0c5 fd1040e0 c5fd2944 2448c5fd  )B....@...)D$H..
 401980 2840e1c5 fd294424 68c5fd6f 442468c5  (@...)D$h..oD$h.
 401990 fd6f4c24 48c5f5db c0c5fd29 442448c5  .oL$H......)D$H.
 4019a0 fd1040e2 c5fd2944 2468c5fd 6f442468  ..@...)D$h..oD$h
 4019b0 c5fd6f4c 2448c5f5 dbc0c5fd 29442448  ..oL$H......)D$H
 4019c0 c5fd2844 2448c5fd 2942e048 39f90f85  ..(D$H..)B.H9...
 4019d0 8cfeffff c4c17d28 430183c3 014d01d1  ......}(C....M..
 4019e0 c5fd2944 2488c4c1 7d10034d 01d3c5fd  ..)D$...}..M....
 4019f0 294424a8 c5fd6f4c 2488c5fd 6f442488  )D$...oL$...oD$.
 401a00 c4e37d46 c181c5fd 294424c8 c5fd6f44  ..}F....)D$...oD
 401a10 24a8c5fd 6f4c2488 c5f5dbc0 c5fd2944  $...oL$.......)D
 401a20 24e8c5fd 6f4c2488 c5fd6f44 24c8c4e3  $...oL$...oD$...
 401a30 7d0fc101 c5fd2944 24c8c5fd 6f4424e8  }.....)D$...oD$.
 401a40 c5fd6f4c 24c8c5f5 dbc0c5fd 294424c8  ..oL$.......)D$.
 401a50 c5fd2844 24c8c481 7d294410 c04d01d0  ..(D$...})D..M..
 401a60 39f30f85 38fdffff c5f87748 8d65f05b  9...8.....wH.e.[
 401a70 415c5df3 c390662e 0f1f8400 00000000  A\]...f.........
 401a80 554889e5 41574156 41554154 534883e4  UH..AWAVAUATSH..
 401a90 e04883c4 0885f689 7424f00f 8e080100  .H......t$......
 401aa0 008d471f 85ff4c8d 79204989 d50f49c7  ..G...L.y I...I.
 401ab0 4531f689 4424f448 63c7c17c 24f40548  E1..D$.Hc..|$..H
 401ac0 894424e8 8b4424f4 83e803c1 e8024c8d  .D$..D$.......L.
 401ad0 600149c1 e407662e 0f1f8400 00000000  `.I...f.........
 401ae0 837c24f4 020f8ea1 00000049 8d551f49  .|$........I.U.I
 401af0 8d5d214d 8d5d3f4d 8d55414d 8d4d5f4d  .]!M.]?M.UAM.M_M
 401b00 8d456149 8d7d7f49 8db58100 00004c89  .EaI.}.I......L.
 401b10 f931c00f 1f440000 c5fd1002 4883e980  .1...D......H...
 401b20 4883ea80 c5fd100c 03c5fd54 4281c5f5  H..........TB...
 401b30 dbc0c5fd 294180c4 c17d1004 03c4c17d  ....)A...}.....}
 401b40 100c02c5 fd5442a1 c5f5dbc0 c5fd2941  .....TB.......)A
 401b50 a0c4c17d 100401c4 c17d100c 00c5fd54  ...}.....}.....T
 401b60 42c1c5f5 dbc0c5fd 2941c0c5 fd100407  B.......)A......
 401b70 c5fd100c 064883e8 80c5fd54 42e1c5f5  .....H.....TB...
 401b80 dbc0c5fd 2941e04c 39e0758c 488b4424  ....)A.L9.u.H.D$
 401b90 e84183c6 014901c5 4901c744 3b7424f0  .A...I..I..D;t$.
 401ba0 0f853aff ffffc5f8 77488d65 d85b415c  ..:.....wH.e.[A\
 401bb0 415d415e 415f5dc3 0f1f8400 00000000  A]A^A_].........
 401bc0 554889e5 41574156 41554154 534883e4  UH..AWAVAUATSH..
 401bd0 e04883c4 0885f689 7424e40f 8e620100  .H......t$...b..
 401be0 008d471f 85ff4c8d 7120c744 24f40000  ..G...L.q .D$...
 401bf0 00000f49 c7894424 f04863c7 c17c24f0  ...I..D$.Hc..|$.
 401c00 05488944 24e84c8d 7c10df8b 4424f083  .H.D$.L.|...D$..
 401c10 e803c1e8 024c8d68 0149c1e5 070f1f00  .....L.h.I......
 401c20 c5fd280a 837c24f0 02c5fd10 5a01c5fd  ..(..|$.....Z...
 401c30 6fc1c4e3 7546d108 c5f5dbcb c4e37d0f  o...uF........}.
 401c40 c20fc5fd dbc1c4c1 7d2946e0 0f8ea300  ........})F.....
 401c50 0000488d 4a1f4c8d 6221488d 5a3f4c8d  ..H.J.L.b!H.Z?L.
 401c60 5a414c8d 525f4c8d 4a614c8d 427f488d  ZAL.R_L.JaL.B.H.
 401c70 ba810000 004c89f6 31c0660f 1f440000  .....L..1.f..D..
 401c80 c5fd1001 4883ee80 4883e980 c4c17d10  ....H...H.....}.
 401c90 0c04c5fd db4181c5 fddbc1c5 fd294680  .....A.......)F.
 401ca0 c5fd1004 03c4c17d 100c03c5 fddb41a1  .......}......A.
 401cb0 c5fddbc1 c5fd2946 a0c4c17d 100402c4  ......)F...}....
 401cc0 c17d100c 01c5fddb 41c1c5fd dbc1c5fd  .}......A.......
 401cd0 2946c0c4 c17d1004 00c5fd10 0c074883  )F...}........H.
 401ce0 e880c5fd db41e1c5 fddbc1c5 fd2946e0  .....A.......)F.
 401cf0 4c39e875 8b834424 f401c4c1 7d284f01  L9.u..D$....}(O.
 401d00 488b4424 e8c5fd6f c1c4e375 46d181c4  H.D$...o...uF...
 401d10 c17d101f 4801c249 01c7c4e3 6d0fc001  .}..H..I....m...
 401d20 c5f5dbcb c5fddbc1 c4c17d29 4406c049  ..........})D..I
 401d30 01c68b44 24e43944 24f40f85 e0feffff  ...D$.9D$.......
 401d40 c5f87748 8d65d85b 415c415d 415e415f  ..wH.e.[A\A]A^A_
 401d50 5dc30f1f 4000662e 0f1f8400 00000000  ]...@.f.........
 401d60 554889e5 41574156 41554154 534883e4  UH..AWAVAUATSH..
 401d70 e04883c4 0885f689 7424e40f 8e510100  .H......t$...Q..
 401d80 008d471f 85ff4c8d 7120c744 24f40000  ..G...L.q .D$...
 401d90 00000f49 c7894424 f04863c7 c17c24f0  ...I..D$.Hc..|$.
 401da0 05488944 24e84c8d 7c10df8b 4424f083  .H.D$.L.|...D$..
 401db0 e803c1e8 024c8d68 0149c1e5 070f1f00  .....L.h.I......
 401dc0 c5fd280a 837c24f0 02c5fd10 5a01c5fd  ..(..|$.....Z...
 401dd0 6fc1c4e3 7546d108 c5f5dbcb c4e37d0f  o...uF........}.
 401de0 c20fc5fd dbc1c4c1 7d2946e0 0f8ea300  ........})F.....
 401df0 0000488d 4a1f4c8d 6221488d 5a3f4c8d  ..H.J.L.b!H.Z?L.
 401e00 5a414c8d 525f4c8d 4a614c8d 427f488d  ZAL.R_L.JaL.B.H.
 401e10 ba810000 004c89f6 31c0660f 1f440000  .....L..1.f..D..
 401e20 c5fd1001 4883ee80 4883e980 c4c17d10  ....H...H.....}.
 401e30 0c04c5fd db4181c5 fddbc1c5 fd294680  .....A.......)F.
 401e40 c5fd1004 03c4c17d 100c03c5 fddb41a1  .......}......A.
 401e50 c5fddbc1 c5fd2946 a0c4c17d 100402c4  ......)F...}....
 401e60 c17d100c 01c5fddb 41c1c5fd dbc1c5fd  .}......A.......
 401e70 2946c0c4 c17d1004 00c5fd10 0c074883  )F...}........H.
 401e80 e880c5fd db41e1c5 fddbc1c5 fd2946e0  .....A.......)F.
 401e90 4c39e875 8bc4c17d 6f470148 8b4424e8  L9.u...}oG.H.D$.
 401ea0 834424f4 01c4e37d 46c88148 01c24901  .D$....}F..H..I.
 401eb0 c7c4e375 0fc009c4 c17d2944 06c04901  ...u.....})D..I.
 401ec0 c68b4424 e4394424 f40f85f1 feffffc5  ..D$.9D$........
 401ed0 f877488d 65d85b41 5c415d41 5e415f5d  .wH.e.[A\A]A^A_]
 401ee0 c30f1f44 0000662e 0f1f8400 00000000  ...D..f.........
 401ef0 31d2b801 00000066 0f1f8400 00000000  1......f........
 401f00 0fb60c16 380c170f 94c14883 c20121c8  ....8.....H...!.
 401f10 4881fa00 14000075 e7f3c30f 1f440000  H......u.....D..
 401f20 41574189 ff415649 89f64155 4989d541  AWA..AVI..AUI..A
 401f30 544c8d25 a80e2000 55488d2d a80e2000  TL.%.. .UH.-.. .
 401f40 534c29e5 31db48c1 fd034883 ec08e865  SL).1.H...H....e
 401f50 e5ffff48 85ed741e 0f1f8400 00000000  ...H..t.........
 401f60 4c89ea4c 89f64489 ff41ff14 dc4883c3  L..L..D..A...H..
 401f70 014839eb 75ea4883 c4085b5d 415c415d  .H9.u.H...[]A\A]
 401f80 415e415f c390662e 0f1f8400 00000000  A^A_..f.........
 401f90 f3c3                                 ..              
Contents of section .fini:
 401f94 4883ec08 4883c408 c3                 H...H....       
Contents of section .rodata:
 401fa0 01000200 00000000 00000000 00000000  ................
 401fb0 25316400 496d6167 65207369 7a653a20  %1d.Image size: 
 401fc0 25642042 79746573 0a00556e 7061636b  %d Bytes..Unpack
 401fd0 65642049 6e707574 3a00486f 72697a6f  ed Input:.Horizo
 401fe0 6e74616c 20456666 69636965 6e63793a  ntal Efficiency:
 401ff0 2025660a 00486f72 2e204f75 74707574   %f..Hor. Output
 402000 3a005061 636b696e 67204566 66696369  :.Packing Effici
 402010 656e6379 3a202566 0a005061 636b6564  ency: %f..Packed
 402020 20496e70 75743a00 56657274 6963616c   Input:.Vertical
 402030 20456666 69636965 6e63793a 2025660a   Efficiency: %f.
 402040 00506163 6b656420 4f757470 75743a00  .Packed Output:.
 402050 556e7061 636b696e 67204566 66696369  Unpacking Effici
 402060 656e6379 3a202566 0a00556e 7061636b  ency: %f..Unpack
 402070 6564204f 75747075 743a0000 00000000  ed Output:......
 402080 33333333 33330b40 00000000 00008240  333333.@.......@
 402090 00000000 00007840                    ......x@        
Contents of section .eh_frame_hdr:
 402098 011b033b 8c000000 10000000 48e4ffff  ...;........H...
 4020a8 d8000000 b8e4ffff e8020000 2be8ffff  ............+...
 4020b8 a8000000 18e9ffff 00010000 a8e9ffff  ................
 4020c8 48010000 08ebffff 70010000 68ecffff  H.......p...h...
 4020d8 98010000 08eeffff c8010000 c8f1ffff  ................
 4020e8 e8010000 b8f6ffff 10020000 e8f9ffff  ................
 4020f8 40020000 28fbffff 70020000 c8fcffff  @...(...p.......
 402108 a0020000 58feffff d0020000 88feffff  ....X...........
 402118 10030000 f8feffff 58030000           ........X...    
Contents of section .eh_frame:
 402128 14000000 00000000 017a5200 01781001  .........zR..x..
 402138 1b0c0708 90010710 14000000 1c000000  ................
 402148 7be7ffff 2a000000 00000000 00000000  {...*...........
 402158 14000000 00000000 017a5200 01781001  .........zR..x..
 402168 1b0c0708 90010000 24000000 1c000000  ........$.......
 402178 68e3ffff 70000000 000e1046 0e184a0f  h...p......F..J.
 402188 0b770880 003f1a3b 2a332422 00000000  .w...?.;*3$"....
 402198 44000000 44000000 10e8ffff 87000000  D...D...........
 4021a8 00420e10 8f02420e 188e0342 0e208d04  .B....B....B. ..
 4021b8 420e288c 05410e30 8606410e 38830744  B.(..A.0..A.8..D
 4021c8 0e50026e 0e38410e 30410e28 420e2042  .P.n.8A.0A.(B. B
 4021d8 0e18420e 10420e08 24000000 8c000000  ..B..B..$.......
 4021e8 58e8ffff 5d010000 00580e10 8602470d  X...]....X....G.
 4021f8 065c8303 032001c6 c30c0708 00000000  .\... ..........
 402208 24000000 b4000000 90e9ffff 5d010000  $...........]...
 402218 00580e10 8602470d 065c8303 032001c6  .X....G..\... ..
 402228 c30c0708 00000000 2c000000 dc000000  ........,.......
 402238 c8eaffff 92010000 00410e10 8602430d  .........A....C.
 402248 06538f03 8e048d05 8c068307 037a010c  .S...........z..
 402258 07080000 00000000 1c000000 0c010000  ................
 402268 38ecffff ba030000 00440e10 86024e0d  8........D....N.
 402278 0603a703 0c070800 24000000 2c010000  ........$...,...
 402288 d8efffff e8040000 00410e10 8602500d  .........A....P.
 402298 06428c03 5a830403 ba040c07 08000000  .B..Z...........
 4022a8 2c000000 54010000 a0f4ffff 25030000  ,...T.......%...
 4022b8 00490e10 8602530d 06428c03 56830403  .I....S..B..V...
 4022c8 ec02c342 cc41c60c 07080000 00000000  ...B.A..........
 4022d8 2c000000 84010000 a0f7ffff 38010000  ,...........8...
 4022e8 00410e10 8602430d 06538f03 8e048d05  .A....C..S......
 4022f8 8c068307 0320010c 07080000 00000000  ..... ..........
 402308 2c000000 b4010000 b0f8ffff 92010000  ,...............
 402318 00410e10 8602430d 06538f03 8e048d05  .A....C..S......
 402328 8c068307 037a010c 07080000 00000000  .....z..........
 402338 2c000000 e4010000 20faffff 81010000  ,....... .......
 402348 00410e10 8602430d 06538f03 8e048d05  .A....C..S......
 402358 8c068307 0369010c 07080000 00000000  .....i..........
 402368 14000000 14020000 80fbffff 2b000000  ............+...
 402378 00000000 00000000 24000000 2c020000  ........$...,...
 402388 c8e1ffff 73030000 00410e10 8302500e  ....s....A....P.
 402398 3003f602 0a0e1043 0e08410b 00000000  0......C..A.....
 4023a8 44000000 54020000 70fbffff 65000000  D...T...p...e...
 4023b8 00420e10 8f02450e 188e0345 0e208d04  .B....E....E. ..
 4023c8 450e288c 05480e30 8606480e 3883074d  E.(..H.0..H.8..M
 4023d8 0e406c0e 38410e30 410e2842 0e20420e  .@l.8A.0A.(B. B.
 4023e8 18420e10 420e0800 14000000 9c020000  .B..B...........
 4023f8 98fbffff 02000000 00000000 00000000  ................
 402408 00000000                             ....            
Contents of section .init_array:
 602de0 80094000 00000000                    ..@.....        
Contents of section .fini_array:
 602de8 60094000 00000000                    `.@.....        
Contents of section .jcr:
 602df0 00000000 00000000                    ........        
Contents of section .dynamic:
 602df8 01000000 00000000 01000000 00000000  ................
 602e08 01000000 00000000 1a000000 00000000  ................
 602e18 01000000 00000000 27000000 00000000  ........'.......
 602e28 01000000 00000000 37000000 00000000  ........7.......
 602e38 0c000000 00000000 b8044000 00000000  ..........@.....
 602e48 0d000000 00000000 941f4000 00000000  ..........@.....
 602e58 19000000 00000000 e02d6000 00000000  .........-`.....
 602e68 1b000000 00000000 08000000 00000000  ................
 602e78 1a000000 00000000 e82d6000 00000000  .........-`.....
 602e88 1c000000 00000000 08000000 00000000  ................
 602e98 f5feff6f 00000000 98024000 00000000  ...o......@.....
 602ea8 05000000 00000000 60034000 00000000  ........`.@.....
 602eb8 06000000 00000000 b8024000 00000000  ..........@.....
 602ec8 0a000000 00000000 82000000 00000000  ................
 602ed8 0b000000 00000000 18000000 00000000  ................
 602ee8 15000000 00000000 00000000 00000000  ................
 602ef8 03000000 00000000 00306000 00000000  .........0`.....
 602f08 02000000 00000000 90000000 00000000  ................
 602f18 14000000 00000000 07000000 00000000  ................
 602f28 17000000 00000000 28044000 00000000  ........(.@.....
 602f38 07000000 00000000 10044000 00000000  ..........@.....
 602f48 08000000 00000000 18000000 00000000  ................
 602f58 09000000 00000000 18000000 00000000  ................
 602f68 feffff6f 00000000 f0034000 00000000  ...o......@.....
 602f78 ffffff6f 00000000 01000000 00000000  ...o............
 602f88 f0ffff6f 00000000 e2034000 00000000  ...o......@.....
 602f98 00000000 00000000 00000000 00000000  ................
 602fa8 00000000 00000000 00000000 00000000  ................
 602fb8 00000000 00000000 00000000 00000000  ................
 602fc8 00000000 00000000 00000000 00000000  ................
 602fd8 00000000 00000000 00000000 00000000  ................
 602fe8 00000000 00000000 00000000 00000000  ................
Contents of section .got:
 602ff8 00000000 00000000                    ........        
Contents of section .got.plt:
 603000 f82d6000 00000000 00000000 00000000  .-`.............
 603010 00000000 00000000 f6044000 00000000  ..........@.....
 603020 06054000 00000000 16054000 00000000  ..@.......@.....
 603030 26054000 00000000 36054000 00000000  &.@.....6.@.....
 603040 46054000 00000000                    F.@.....        
Contents of section .data:
 603048 00000000                             ....            
Contents of section .comment:
 0000 4743433a 2028474e 55292034 2e382e35  GCC: (GNU) 4.8.5
 0010 20323031 35303632 33202852 65642048   20150623 (Red H
 0020 61742034 2e382e35 2d343429 00        at 4.8.5-44).   

Disassembly of section .init:

00000000004004b8 <_init>:
  4004b8:	48 83 ec 08          	sub    $0x8,%rsp
  4004bc:	48 8b 05 35 2b 20 00 	mov    0x202b35(%rip),%rax        # 602ff8 <__gmon_start__>
  4004c3:	48 85 c0             	test   %rax,%rax
  4004c6:	74 05                	je     4004cd <_init+0x15>
  4004c8:	e8 63 00 00 00       	callq  400530 <__gmon_start__@plt>
  4004cd:	48 83 c4 08          	add    $0x8,%rsp
  4004d1:	c3                   	retq   

Disassembly of section .plt:

00000000004004e0 <.plt>:
  4004e0:	ff 35 22 2b 20 00    	pushq  0x202b22(%rip)        # 603008 <_GLOBAL_OFFSET_TABLE_+0x8>
  4004e6:	ff 25 24 2b 20 00    	jmpq   *0x202b24(%rip)        # 603010 <_GLOBAL_OFFSET_TABLE_+0x10>
  4004ec:	0f 1f 40 00          	nopl   0x0(%rax)

00000000004004f0 <putchar@plt>:
  4004f0:	ff 25 22 2b 20 00    	jmpq   *0x202b22(%rip)        # 603018 <putchar@GLIBC_2.2.5>
  4004f6:	68 00 00 00 00       	pushq  $0x0
  4004fb:	e9 e0 ff ff ff       	jmpq   4004e0 <.plt>

0000000000400500 <puts@plt>:
  400500:	ff 25 1a 2b 20 00    	jmpq   *0x202b1a(%rip)        # 603020 <puts@GLIBC_2.2.5>
  400506:	68 01 00 00 00       	pushq  $0x1
  40050b:	e9 d0 ff ff ff       	jmpq   4004e0 <.plt>

0000000000400510 <printf@plt>:
  400510:	ff 25 12 2b 20 00    	jmpq   *0x202b12(%rip)        # 603028 <printf@GLIBC_2.2.5>
  400516:	68 02 00 00 00       	pushq  $0x2
  40051b:	e9 c0 ff ff ff       	jmpq   4004e0 <.plt>

0000000000400520 <__libc_start_main@plt>:
  400520:	ff 25 0a 2b 20 00    	jmpq   *0x202b0a(%rip)        # 603030 <__libc_start_main@GLIBC_2.2.5>
  400526:	68 03 00 00 00       	pushq  $0x3
  40052b:	e9 b0 ff ff ff       	jmpq   4004e0 <.plt>

0000000000400530 <__gmon_start__@plt>:
  400530:	ff 25 02 2b 20 00    	jmpq   *0x202b02(%rip)        # 603038 <__gmon_start__>
  400536:	68 04 00 00 00       	pushq  $0x4
  40053b:	e9 a0 ff ff ff       	jmpq   4004e0 <.plt>

0000000000400540 <posix_memalign@plt>:
  400540:	ff 25 fa 2a 20 00    	jmpq   *0x202afa(%rip)        # 603040 <posix_memalign@GLIBC_2.2.5>
  400546:	68 05 00 00 00       	pushq  $0x5
  40054b:	e9 90 ff ff ff       	jmpq   4004e0 <.plt>

Disassembly of section .text:

0000000000400550 <main>:
  400550:	53                   	push   %rbx
  400551:	be 00 14 00 00       	mov    $0x1400,%esi
  400556:	bf b4 1f 40 00       	mov    $0x401fb4,%edi
  40055b:	31 c0                	xor    %eax,%eax
  40055d:	48 83 ec 20          	sub    $0x20,%rsp
  400561:	e8 aa ff ff ff       	callq  400510 <printf@plt>
  400566:	48 8d 7c 24 08       	lea    0x8(%rsp),%rdi
  40056b:	ba 00 14 00 00       	mov    $0x1400,%edx
  400570:	be 40 00 00 00       	mov    $0x40,%esi
  400575:	e8 c6 ff ff ff       	callq  400540 <posix_memalign@plt>
  40057a:	48 8d 7c 24 10       	lea    0x10(%rsp),%rdi
  40057f:	ba 00 14 00 00       	mov    $0x1400,%edx
  400584:	be 40 00 00 00       	mov    $0x40,%esi
  400589:	e8 b2 ff ff ff       	callq  400540 <posix_memalign@plt>
  40058e:	48 8d 7c 24 18       	lea    0x18(%rsp),%rdi
  400593:	ba 00 14 00 00       	mov    $0x1400,%edx
  400598:	be 40 00 00 00       	mov    $0x40,%esi
  40059d:	e8 9e ff ff ff       	callq  400540 <posix_memalign@plt>
  4005a2:	31 c9                	xor    %ecx,%ecx
  4005a4:	bf 67 66 66 66       	mov    $0x66666667,%edi
  4005a9:	0f 1f 80 00 00 00 00 	nopl   0x0(%rax)
  4005b0:	89 c8                	mov    %ecx,%eax
  4005b2:	89 cb                	mov    %ecx,%ebx
  4005b4:	f7 ef                	imul   %edi
  4005b6:	89 c8                	mov    %ecx,%eax
  4005b8:	c1 f8 1f             	sar    $0x1f,%eax
  4005bb:	89 d6                	mov    %edx,%esi
  4005bd:	c1 fa 06             	sar    $0x6,%edx
  4005c0:	29 c2                	sub    %eax,%edx
  4005c2:	c1 fe 08             	sar    $0x8,%esi
  4005c5:	29 c6                	sub    %eax,%esi
  4005c7:	8d 04 92             	lea    (%rdx,%rdx,4),%eax
  4005ca:	48 8b 54 24 08       	mov    0x8(%rsp),%rdx
  4005cf:	c1 e0 05             	shl    $0x5,%eax
  4005d2:	29 c3                	sub    %eax,%ebx
  4005d4:	89 d8                	mov    %ebx,%eax
  4005d6:	c1 f8 02             	sar    $0x2,%eax
  4005d9:	31 f0                	xor    %esi,%eax
  4005db:	83 e0 01             	and    $0x1,%eax
  4005de:	83 f0 01             	xor    $0x1,%eax
  4005e1:	f7 d8                	neg    %eax
  4005e3:	88 04 0a             	mov    %al,(%rdx,%rcx,1)
  4005e6:	48 8b 44 24 10       	mov    0x10(%rsp),%rax
  4005eb:	c6 04 08 00          	movb   $0x0,(%rax,%rcx,1)
  4005ef:	48 8b 44 24 18       	mov    0x18(%rsp),%rax
  4005f4:	c6 04 08 00          	movb   $0x0,(%rax,%rcx,1)
  4005f8:	48 83 c1 01          	add    $0x1,%rcx
  4005fc:	48 81 f9 00 14 00 00 	cmp    $0x1400,%rcx
  400603:	75 ab                	jne    4005b0 <main+0x60>
  400605:	bf ca 1f 40 00       	mov    $0x401fca,%edi
  40060a:	e8 f1 fe ff ff       	callq  400500 <puts@plt>
  40060f:	48 8b 54 24 08       	mov    0x8(%rsp),%rdx
  400614:	be 20 00 00 00       	mov    $0x20,%esi
  400619:	bf a0 00 00 00       	mov    $0xa0,%edi
  40061e:	e8 8d 03 00 00       	callq  4009b0 <mat_print>
  400623:	bf 18 20 40 00       	mov    $0x402018,%edi
  400628:	e8 d3 fe ff ff       	callq  400500 <puts@plt>
  40062d:	0f 31                	rdtsc  
  40062f:	48 89 d3             	mov    %rdx,%rbx
  400632:	48 8b 4c 24 10       	mov    0x10(%rsp),%rcx
  400637:	48 8b 54 24 08       	mov    0x8(%rsp),%rdx
  40063c:	89 c0                	mov    %eax,%eax
  40063e:	48 c1 e3 20          	shl    $0x20,%rbx
  400642:	be 20 00 00 00       	mov    $0x20,%esi
  400647:	bf a0 00 00 00       	mov    $0xa0,%edi
  40064c:	48 09 c3             	or     %rax,%rbx
  40064f:	e8 ac 06 00 00       	callq  400d00 <rows_kernel>
  400654:	0f 31                	rdtsc  
  400656:	48 c1 e2 20          	shl    $0x20,%rdx
  40065a:	89 c0                	mov    %eax,%eax
  40065c:	48 09 c2             	or     %rax,%rdx
  40065f:	48 29 da             	sub    %rbx,%rdx
  400662:	0f 88 f3 01 00 00    	js     40085b <main+0x30b>
  400668:	c4 e1 fb 2a c2       	vcvtsi2sd %rdx,%xmm0,%xmm0
  40066d:	c5 fb 59 05 0b 1a 00 	vmulsd 0x1a0b(%rip),%xmm0,%xmm0        # 402080 <__dso_handle+0xd8>
  400674:	00 
  400675:	bf da 1f 40 00       	mov    $0x401fda,%edi
  40067a:	b8 01 00 00 00       	mov    $0x1,%eax
  40067f:	c5 fb 10 0d 01 1a 00 	vmovsd 0x1a01(%rip),%xmm1        # 402088 <__dso_handle+0xe0>
  400686:	00 
  400687:	c5 f3 5e c0          	vdivsd %xmm0,%xmm1,%xmm0
  40068b:	e8 80 fe ff ff       	callq  400510 <printf@plt>
  400690:	bf f5 1f 40 00       	mov    $0x401ff5,%edi
  400695:	e8 66 fe ff ff       	callq  400500 <puts@plt>
  40069a:	48 8b 54 24 10       	mov    0x10(%rsp),%rdx
  40069f:	be 20 00 00 00       	mov    $0x20,%esi
  4006a4:	bf a0 00 00 00       	mov    $0xa0,%edi
  4006a9:	e8 02 03 00 00       	callq  4009b0 <mat_print>
  4006ae:	bf 18 20 40 00       	mov    $0x402018,%edi
  4006b3:	e8 48 fe ff ff       	callq  400500 <puts@plt>
  4006b8:	0f 31                	rdtsc  
  4006ba:	48 89 d3             	mov    %rdx,%rbx
  4006bd:	48 8b 4c 24 18       	mov    0x18(%rsp),%rcx
  4006c2:	48 8b 54 24 10       	mov    0x10(%rsp),%rdx
  4006c7:	89 c0                	mov    %eax,%eax
  4006c9:	48 c1 e3 20          	shl    $0x20,%rbx
  4006cd:	be 20 00 00 00       	mov    $0x20,%esi
  4006d2:	bf a0 00 00 00       	mov    $0xa0,%edi
  4006d7:	48 09 c3             	or     %rax,%rbx
  4006da:	e8 c1 07 00 00       	callq  400ea0 <pack>
  4006df:	0f 31                	rdtsc  
  4006e1:	48 c1 e2 20          	shl    $0x20,%rdx
  4006e5:	89 c0                	mov    %eax,%eax
  4006e7:	48 09 c2             	or     %rax,%rdx
  4006ea:	48 29 da             	sub    %rbx,%rdx
  4006ed:	0f 88 b6 01 00 00    	js     4008a9 <main+0x359>
  4006f3:	c4 e1 fb 2a c2       	vcvtsi2sd %rdx,%xmm0,%xmm0
  4006f8:	c5 fb 59 05 80 19 00 	vmulsd 0x1980(%rip),%xmm0,%xmm0        # 402080 <__dso_handle+0xd8>
  4006ff:	00 
  400700:	bf 02 20 40 00       	mov    $0x402002,%edi
  400705:	b8 01 00 00 00       	mov    $0x1,%eax
  40070a:	c5 fb 10 15 7e 19 00 	vmovsd 0x197e(%rip),%xmm2        # 402090 <__dso_handle+0xe8>
  400711:	00 
  400712:	c5 eb 5e c0          	vdivsd %xmm0,%xmm2,%xmm0
  400716:	e8 f5 fd ff ff       	callq  400510 <printf@plt>
  40071b:	bf 1a 20 40 00       	mov    $0x40201a,%edi
  400720:	e8 db fd ff ff       	callq  400500 <puts@plt>
  400725:	48 8b 54 24 18       	mov    0x18(%rsp),%rdx
  40072a:	be 05 00 00 00       	mov    $0x5,%esi
  40072f:	bf 00 04 00 00       	mov    $0x400,%edi
  400734:	e8 77 02 00 00       	callq  4009b0 <mat_print>
  400739:	bf 18 20 40 00       	mov    $0x402018,%edi
  40073e:	e8 bd fd ff ff       	callq  400500 <puts@plt>
  400743:	0f 31                	rdtsc  
  400745:	48 89 d3             	mov    %rdx,%rbx
  400748:	48 8b 54 24 18       	mov    0x18(%rsp),%rdx
  40074d:	89 c0                	mov    %eax,%eax
  40074f:	48 c1 e3 20          	shl    $0x20,%rbx
  400753:	be 20 00 00 00       	mov    $0x20,%esi
  400758:	bf a0 00 00 00       	mov    $0xa0,%edi
  40075d:	48 09 c3             	or     %rax,%rbx
  400760:	48 89 d1             	mov    %rdx,%rcx
  400763:	e8 38 04 00 00       	callq  400ba0 <cols_kernel>
  400768:	0f 31                	rdtsc  
  40076a:	48 c1 e2 20          	shl    $0x20,%rdx
  40076e:	89 c0                	mov    %eax,%eax
  400770:	48 09 c2             	or     %rax,%rdx
  400773:	48 29 da             	sub    %rbx,%rdx
  400776:	0f 88 13 01 00 00    	js     40088f <main+0x33f>
  40077c:	c4 e1 fb 2a c2       	vcvtsi2sd %rdx,%xmm0,%xmm0
  400781:	c5 fb 59 05 f7 18 00 	vmulsd 0x18f7(%rip),%xmm0,%xmm0        # 402080 <__dso_handle+0xd8>
  400788:	00 
  400789:	bf 28 20 40 00       	mov    $0x402028,%edi
  40078e:	b8 01 00 00 00       	mov    $0x1,%eax
  400793:	c5 fb 10 1d f5 18 00 	vmovsd 0x18f5(%rip),%xmm3        # 402090 <__dso_handle+0xe8>
  40079a:	00 
  40079b:	c5 e3 5e c0          	vdivsd %xmm0,%xmm3,%xmm0
  40079f:	e8 6c fd ff ff       	callq  400510 <printf@plt>
  4007a4:	bf 41 20 40 00       	mov    $0x402041,%edi
  4007a9:	e8 52 fd ff ff       	callq  400500 <puts@plt>
  4007ae:	48 8b 54 24 18       	mov    0x18(%rsp),%rdx
  4007b3:	be 05 00 00 00       	mov    $0x5,%esi
  4007b8:	bf 00 04 00 00       	mov    $0x400,%edi
  4007bd:	e8 ee 01 00 00       	callq  4009b0 <mat_print>
  4007c2:	bf 18 20 40 00       	mov    $0x402018,%edi
  4007c7:	e8 34 fd ff ff       	callq  400500 <puts@plt>
  4007cc:	0f 31                	rdtsc  
  4007ce:	48 89 d3             	mov    %rdx,%rbx
  4007d1:	48 8b 4c 24 10       	mov    0x10(%rsp),%rcx
  4007d6:	48 8b 54 24 18       	mov    0x18(%rsp),%rdx
  4007db:	89 c0                	mov    %eax,%eax
  4007dd:	48 c1 e3 20          	shl    $0x20,%rbx
  4007e1:	be 20 00 00 00       	mov    $0x20,%esi
  4007e6:	bf a0 00 00 00       	mov    $0xa0,%edi
  4007eb:	48 09 c3             	or     %rax,%rbx
  4007ee:	e8 6d 0a 00 00       	callq  401260 <unpack>
  4007f3:	0f 31                	rdtsc  
  4007f5:	48 c1 e2 20          	shl    $0x20,%rdx
  4007f9:	89 c0                	mov    %eax,%eax
  4007fb:	48 09 c2             	or     %rax,%rdx
  4007fe:	48 29 da             	sub    %rbx,%rdx
  400801:	78 72                	js     400875 <main+0x325>
  400803:	c4 e1 fb 2a c2       	vcvtsi2sd %rdx,%xmm0,%xmm0
  400808:	c5 fb 59 05 70 18 00 	vmulsd 0x1870(%rip),%xmm0,%xmm0        # 402080 <__dso_handle+0xd8>
  40080f:	00 
  400810:	bf 50 20 40 00       	mov    $0x402050,%edi
  400815:	b8 01 00 00 00       	mov    $0x1,%eax
  40081a:	c5 fb 10 25 6e 18 00 	vmovsd 0x186e(%rip),%xmm4        # 402090 <__dso_handle+0xe8>
  400821:	00 
  400822:	c5 db 5e c0          	vdivsd %xmm0,%xmm4,%xmm0
  400826:	e8 e5 fc ff ff       	callq  400510 <printf@plt>
  40082b:	bf 6a 20 40 00       	mov    $0x40206a,%edi
  400830:	e8 cb fc ff ff       	callq  400500 <puts@plt>
  400835:	48 8b 54 24 10       	mov    0x10(%rsp),%rdx
  40083a:	be 20 00 00 00       	mov    $0x20,%esi
  40083f:	bf a0 00 00 00       	mov    $0xa0,%edi
  400844:	e8 67 01 00 00       	callq  4009b0 <mat_print>
  400849:	bf 18 20 40 00       	mov    $0x402018,%edi
  40084e:	e8 ad fc ff ff       	callq  400500 <puts@plt>
  400853:	48 83 c4 20          	add    $0x20,%rsp
  400857:	31 c0                	xor    %eax,%eax
  400859:	5b                   	pop    %rbx
  40085a:	c3                   	retq   
  40085b:	48 89 d0             	mov    %rdx,%rax
  40085e:	83 e2 01             	and    $0x1,%edx
  400861:	48 d1 e8             	shr    %rax
  400864:	48 09 d0             	or     %rdx,%rax
  400867:	c4 e1 fb 2a c0       	vcvtsi2sd %rax,%xmm0,%xmm0
  40086c:	c5 fb 58 c0          	vaddsd %xmm0,%xmm0,%xmm0
  400870:	e9 f8 fd ff ff       	jmpq   40066d <main+0x11d>
  400875:	48 89 d0             	mov    %rdx,%rax
  400878:	83 e2 01             	and    $0x1,%edx
  40087b:	48 d1 e8             	shr    %rax
  40087e:	48 09 d0             	or     %rdx,%rax
  400881:	c4 e1 fb 2a c0       	vcvtsi2sd %rax,%xmm0,%xmm0
  400886:	c5 fb 58 c0          	vaddsd %xmm0,%xmm0,%xmm0
  40088a:	e9 79 ff ff ff       	jmpq   400808 <main+0x2b8>
  40088f:	48 89 d0             	mov    %rdx,%rax
  400892:	83 e2 01             	and    $0x1,%edx
  400895:	48 d1 e8             	shr    %rax
  400898:	48 09 d0             	or     %rdx,%rax
  40089b:	c4 e1 fb 2a c0       	vcvtsi2sd %rax,%xmm0,%xmm0
  4008a0:	c5 fb 58 c0          	vaddsd %xmm0,%xmm0,%xmm0
  4008a4:	e9 d8 fe ff ff       	jmpq   400781 <main+0x231>
  4008a9:	48 89 d0             	mov    %rdx,%rax
  4008ac:	83 e2 01             	and    $0x1,%edx
  4008af:	48 d1 e8             	shr    %rax
  4008b2:	48 09 d0             	or     %rdx,%rax
  4008b5:	c4 e1 fb 2a c0       	vcvtsi2sd %rax,%xmm0,%xmm0
  4008ba:	c5 fb 58 c0          	vaddsd %xmm0,%xmm0,%xmm0
  4008be:	e9 35 fe ff ff       	jmpq   4006f8 <main+0x1a8>

00000000004008c3 <_start>:
  4008c3:	31 ed                	xor    %ebp,%ebp
  4008c5:	49 89 d1             	mov    %rdx,%r9
  4008c8:	5e                   	pop    %rsi
  4008c9:	48 89 e2             	mov    %rsp,%rdx
  4008cc:	48 83 e4 f0          	and    $0xfffffffffffffff0,%rsp
  4008d0:	50                   	push   %rax
  4008d1:	54                   	push   %rsp
  4008d2:	49 c7 c0 90 1f 40 00 	mov    $0x401f90,%r8
  4008d9:	48 c7 c1 20 1f 40 00 	mov    $0x401f20,%rcx
  4008e0:	48 c7 c7 50 05 40 00 	mov    $0x400550,%rdi
  4008e7:	e8 34 fc ff ff       	callq  400520 <__libc_start_main@plt>
  4008ec:	f4                   	hlt    
  4008ed:	0f 1f 00             	nopl   (%rax)

00000000004008f0 <deregister_tm_clones>:
  4008f0:	b8 57 30 60 00       	mov    $0x603057,%eax
  4008f5:	55                   	push   %rbp
  4008f6:	48 2d 50 30 60 00    	sub    $0x603050,%rax
  4008fc:	48 83 f8 0e          	cmp    $0xe,%rax
  400900:	48 89 e5             	mov    %rsp,%rbp
  400903:	77 02                	ja     400907 <deregister_tm_clones+0x17>
  400905:	5d                   	pop    %rbp
  400906:	c3                   	retq   
  400907:	b8 00 00 00 00       	mov    $0x0,%eax
  40090c:	48 85 c0             	test   %rax,%rax
  40090f:	74 f4                	je     400905 <deregister_tm_clones+0x15>
  400911:	5d                   	pop    %rbp
  400912:	bf 50 30 60 00       	mov    $0x603050,%edi
  400917:	ff e0                	jmpq   *%rax
  400919:	0f 1f 80 00 00 00 00 	nopl   0x0(%rax)

0000000000400920 <register_tm_clones>:
  400920:	b8 50 30 60 00       	mov    $0x603050,%eax
  400925:	55                   	push   %rbp
  400926:	48 2d 50 30 60 00    	sub    $0x603050,%rax
  40092c:	48 c1 f8 03          	sar    $0x3,%rax
  400930:	48 89 e5             	mov    %rsp,%rbp
  400933:	48 89 c2             	mov    %rax,%rdx
  400936:	48 c1 ea 3f          	shr    $0x3f,%rdx
  40093a:	48 01 d0             	add    %rdx,%rax
  40093d:	48 d1 f8             	sar    %rax
  400940:	75 02                	jne    400944 <register_tm_clones+0x24>
  400942:	5d                   	pop    %rbp
  400943:	c3                   	retq   
  400944:	ba 00 00 00 00       	mov    $0x0,%edx
  400949:	48 85 d2             	test   %rdx,%rdx
  40094c:	74 f4                	je     400942 <register_tm_clones+0x22>
  40094e:	5d                   	pop    %rbp
  40094f:	48 89 c6             	mov    %rax,%rsi
  400952:	bf 50 30 60 00       	mov    $0x603050,%edi
  400957:	ff e2                	jmpq   *%rdx
  400959:	0f 1f 80 00 00 00 00 	nopl   0x0(%rax)

0000000000400960 <__do_global_dtors_aux>:
  400960:	80 3d e5 26 20 00 00 	cmpb   $0x0,0x2026e5(%rip)        # 60304c <_edata>
  400967:	75 11                	jne    40097a <__do_global_dtors_aux+0x1a>
  400969:	55                   	push   %rbp
  40096a:	48 89 e5             	mov    %rsp,%rbp
  40096d:	e8 7e ff ff ff       	callq  4008f0 <deregister_tm_clones>
  400972:	5d                   	pop    %rbp
  400973:	c6 05 d2 26 20 00 01 	movb   $0x1,0x2026d2(%rip)        # 60304c <_edata>
  40097a:	f3 c3                	repz retq 
  40097c:	0f 1f 40 00          	nopl   0x0(%rax)

0000000000400980 <frame_dummy>:
  400980:	48 83 3d 68 24 20 00 	cmpq   $0x0,0x202468(%rip)        # 602df0 <__JCR_END__>
  400987:	00 
  400988:	74 1e                	je     4009a8 <frame_dummy+0x28>
  40098a:	b8 00 00 00 00       	mov    $0x0,%eax
  40098f:	48 85 c0             	test   %rax,%rax
  400992:	74 14                	je     4009a8 <frame_dummy+0x28>
  400994:	55                   	push   %rbp
  400995:	bf f0 2d 60 00       	mov    $0x602df0,%edi
  40099a:	48 89 e5             	mov    %rsp,%rbp
  40099d:	ff d0                	callq  *%rax
  40099f:	5d                   	pop    %rbp
  4009a0:	e9 7b ff ff ff       	jmpq   400920 <register_tm_clones>
  4009a5:	0f 1f 00             	nopl   (%rax)
  4009a8:	e9 73 ff ff ff       	jmpq   400920 <register_tm_clones>
  4009ad:	0f 1f 00             	nopl   (%rax)

00000000004009b0 <mat_print>:
  4009b0:	41 57                	push   %r15
  4009b2:	41 56                	push   %r14
  4009b4:	41 55                	push   %r13
  4009b6:	41 54                	push   %r12
  4009b8:	55                   	push   %rbp
  4009b9:	53                   	push   %rbx
  4009ba:	48 83 ec 18          	sub    $0x18,%rsp
  4009be:	85 f6                	test   %esi,%esi
  4009c0:	89 74 24 0c          	mov    %esi,0xc(%rsp)
  4009c4:	7e 62                	jle    400a28 <mat_print+0x78>
  4009c6:	44 8d 7f ff          	lea    -0x1(%rdi),%r15d
  4009ca:	48 63 c7             	movslq %edi,%rax
  4009cd:	41 89 fd             	mov    %edi,%r13d
  4009d0:	48 89 04 24          	mov    %rax,(%rsp)
  4009d4:	48 89 d5             	mov    %rdx,%rbp
  4009d7:	45 31 e4             	xor    %r12d,%r12d
  4009da:	49 83 c7 01          	add    $0x1,%r15
  4009de:	66 90                	xchg   %ax,%ax
  4009e0:	45 85 ed             	test   %r13d,%r13d
  4009e3:	7e 2a                	jle    400a0f <mat_print+0x5f>
  4009e5:	49 8d 1c 2f          	lea    (%r15,%rbp,1),%rbx
  4009e9:	49 89 ee             	mov    %rbp,%r14
  4009ec:	0f 1f 40 00          	nopl   0x0(%rax)
  4009f0:	31 f6                	xor    %esi,%esi
  4009f2:	41 80 3e ff          	cmpb   $0xff,(%r14)
  4009f6:	bf b0 1f 40 00       	mov    $0x401fb0,%edi
  4009fb:	40 0f 94 c6          	sete   %sil
  4009ff:	31 c0                	xor    %eax,%eax
  400a01:	49 83 c6 01          	add    $0x1,%r14
  400a05:	e8 06 fb ff ff       	callq  400510 <printf@plt>
  400a0a:	49 39 de             	cmp    %rbx,%r14
  400a0d:	75 e1                	jne    4009f0 <mat_print+0x40>
  400a0f:	bf 0a 00 00 00       	mov    $0xa,%edi
  400a14:	41 83 c4 01          	add    $0x1,%r12d
  400a18:	e8 d3 fa ff ff       	callq  4004f0 <putchar@plt>
  400a1d:	48 03 2c 24          	add    (%rsp),%rbp
  400a21:	44 3b 64 24 0c       	cmp    0xc(%rsp),%r12d
  400a26:	75 b8                	jne    4009e0 <mat_print+0x30>
  400a28:	48 83 c4 18          	add    $0x18,%rsp
  400a2c:	5b                   	pop    %rbx
  400a2d:	5d                   	pop    %rbp
  400a2e:	41 5c                	pop    %r12
  400a30:	41 5d                	pop    %r13
  400a32:	41 5e                	pop    %r14
  400a34:	41 5f                	pop    %r15
  400a36:	c3                   	retq   
  400a37:	66 0f 1f 84 00 00 00 	nopw   0x0(%rax,%rax,1)
  400a3e:	00 00 

0000000000400a40 <cols_kernel_old>:
  400a40:	44 8d 5f 1f          	lea    0x1f(%rdi),%r11d
  400a44:	85 ff                	test   %edi,%edi
  400a46:	44 0f 49 df          	cmovns %edi,%r11d
  400a4a:	41 c1 fb 05          	sar    $0x5,%r11d
  400a4e:	45 85 db             	test   %r11d,%r11d
  400a51:	0f 8e 44 01 00 00    	jle    400b9b <cols_kernel_old+0x15b>
  400a57:	55                   	push   %rbp
  400a58:	44 8d 56 03          	lea    0x3(%rsi),%r10d
  400a5c:	48 89 e5             	mov    %rsp,%rbp
  400a5f:	53                   	push   %rbx
  400a60:	48 83 e4 e0          	and    $0xffffffffffffffe0,%rsp
  400a64:	48 83 c4 08          	add    $0x8,%rsp
  400a68:	85 f6                	test   %esi,%esi
  400a6a:	44 0f 49 d6          	cmovns %esi,%r10d
  400a6e:	c1 e6 05             	shl    $0x5,%esi
  400a71:	45 31 c0             	xor    %r8d,%r8d
  400a74:	41 c1 fa 02          	sar    $0x2,%r10d
  400a78:	4c 63 ce             	movslq %esi,%r9
  400a7b:	41 8d 5a fe          	lea    -0x2(%r10),%ebx
  400a7f:	d1 eb                	shr    %ebx
  400a81:	48 c1 e3 08          	shl    $0x8,%rbx
  400a85:	48 81 c3 80 01 00 00 	add    $0x180,%rbx
  400a8c:	0f 1f 40 00          	nopl   0x0(%rax)
  400a90:	c5 fd 28 42 20       	vmovapd 0x20(%rdx),%ymm0
  400a95:	41 83 fa 01          	cmp    $0x1,%r10d
  400a99:	c5 fd 28 4a 40       	vmovapd 0x40(%rdx),%ymm1
  400a9e:	c5 fd 28 52 60       	vmovapd 0x60(%rdx),%ymm2
  400aa3:	c5 fd db 1a          	vpand  (%rdx),%ymm0,%ymm3
  400aa7:	c5 f5 db f8          	vpand  %ymm0,%ymm1,%ymm7
  400aab:	c5 6d db c1          	vpand  %ymm1,%ymm2,%ymm8
  400aaf:	0f 8e cb 00 00 00    	jle    400b80 <cols_kernel_old+0x140>
  400ab5:	c4 41 31 57 c9       	vxorpd %xmm9,%xmm9,%xmm9
  400aba:	48 8d 3c 1a          	lea    (%rdx,%rbx,1),%rdi
  400abe:	48 8d 82 80 00 00 00 	lea    0x80(%rdx),%rax
  400ac5:	48 89 ce             	mov    %rcx,%rsi
  400ac8:	0f 1f 84 00 00 00 00 	nopl   0x0(%rax,%rax,1)
  400acf:	00 
  400ad0:	c5 6d db d7          	vpand  %ymm7,%ymm2,%ymm10
  400ad4:	c5 fd 6f 38          	vmovdqa (%rax),%ymm7
  400ad8:	48 05 00 01 00 00    	add    $0x100,%rax
  400ade:	c4 c1 7d 54 c1       	vandpd %ymm9,%ymm0,%ymm0
  400ae3:	c5 fd 28 b0 20 ff ff 	vmovapd -0xe0(%rax),%ymm6
  400aea:	ff 
  400aeb:	c5 f5 54 cb          	vandpd %ymm3,%ymm1,%ymm1
  400aef:	c5 fd 28 a8 40 ff ff 	vmovapd -0xc0(%rax),%ymm5
  400af6:	ff 
  400af7:	c4 41 45 db c0       	vpand  %ymm8,%ymm7,%ymm8
  400afc:	c5 fd 28 a0 60 ff ff 	vmovapd -0xa0(%rax),%ymm4
  400b03:	ff 
  400b04:	c5 c5 db da          	vpand  %ymm2,%ymm7,%ymm3
  400b08:	c5 fd 29 06          	vmovapd %ymm0,(%rsi)
  400b0c:	c5 fd 29 4e 20       	vmovapd %ymm1,0x20(%rsi)
  400b11:	c5 c5 db fe          	vpand  %ymm6,%ymm7,%ymm7
  400b15:	c5 7d 29 46 60       	vmovapd %ymm8,0x60(%rsi)
  400b1a:	c5 55 db ce          	vpand  %ymm6,%ymm5,%ymm9
  400b1e:	c5 7d 29 56 40       	vmovapd %ymm10,0x40(%rsi)
  400b23:	c5 5d db c5          	vpand  %ymm5,%ymm4,%ymm8
  400b27:	c5 e5 db f6          	vpand  %ymm6,%ymm3,%ymm6
  400b2b:	48 81 c6 00 01 00 00 	add    $0x100,%rsi
  400b32:	c5 fd 6f 58 80       	vmovdqa -0x80(%rax),%ymm3
  400b37:	c5 c5 db ed          	vpand  %ymm5,%ymm7,%ymm5
  400b3b:	c5 35 db cc          	vpand  %ymm4,%ymm9,%ymm9
  400b3f:	c5 fd 28 40 a0       	vmovapd -0x60(%rax),%ymm0
  400b44:	c4 41 65 db c0       	vpand  %ymm8,%ymm3,%ymm8
  400b49:	c5 fd 28 48 c0       	vmovapd -0x40(%rax),%ymm1
  400b4e:	c5 fd 28 50 e0       	vmovapd -0x20(%rax),%ymm2
  400b53:	c5 7d 29 4e c0       	vmovapd %ymm9,-0x40(%rsi)
  400b58:	c5 f5 db f8          	vpand  %ymm0,%ymm1,%ymm7
  400b5c:	c5 7d 29 46 e0       	vmovapd %ymm8,-0x20(%rsi)
  400b61:	c5 65 db cc          	vpand  %ymm4,%ymm3,%ymm9
  400b65:	c5 fd 29 76 80       	vmovapd %ymm6,-0x80(%rsi)
  400b6a:	c5 e5 db d8          	vpand  %ymm0,%ymm3,%ymm3
  400b6e:	c5 fd 29 6e a0       	vmovapd %ymm5,-0x60(%rsi)
  400b73:	48 39 f8             	cmp    %rdi,%rax
  400b76:	c5 6d db c1          	vpand  %ymm1,%ymm2,%ymm8
  400b7a:	0f 85 50 ff ff ff    	jne    400ad0 <cols_kernel_old+0x90>
  400b80:	41 83 c0 01          	add    $0x1,%r8d
  400b84:	4c 01 ca             	add    %r9,%rdx
  400b87:	4c 01 c9             	add    %r9,%rcx
  400b8a:	45 39 d8             	cmp    %r11d,%r8d
  400b8d:	0f 85 fd fe ff ff    	jne    400a90 <cols_kernel_old+0x50>
  400b93:	c5 f8 77             	vzeroupper 
  400b96:	48 8b 5d f8          	mov    -0x8(%rbp),%rbx
  400b9a:	c9                   	leaveq 
  400b9b:	f3 c3                	repz retq 
  400b9d:	0f 1f 00             	nopl   (%rax)

0000000000400ba0 <cols_kernel>:
  400ba0:	44 8d 5f 1f          	lea    0x1f(%rdi),%r11d
  400ba4:	85 ff                	test   %edi,%edi
  400ba6:	44 0f 49 df          	cmovns %edi,%r11d
  400baa:	41 c1 fb 05          	sar    $0x5,%r11d
  400bae:	45 85 db             	test   %r11d,%r11d
  400bb1:	0f 8e 44 01 00 00    	jle    400cfb <cols_kernel+0x15b>
  400bb7:	55                   	push   %rbp
  400bb8:	44 8d 56 03          	lea    0x3(%rsi),%r10d
  400bbc:	48 89 e5             	mov    %rsp,%rbp
  400bbf:	53                   	push   %rbx
  400bc0:	48 83 e4 e0          	and    $0xffffffffffffffe0,%rsp
  400bc4:	48 83 c4 08          	add    $0x8,%rsp
  400bc8:	85 f6                	test   %esi,%esi
  400bca:	44 0f 49 d6          	cmovns %esi,%r10d
  400bce:	c1 e6 05             	shl    $0x5,%esi
  400bd1:	45 31 c0             	xor    %r8d,%r8d
  400bd4:	41 c1 fa 02          	sar    $0x2,%r10d
  400bd8:	4c 63 ce             	movslq %esi,%r9
  400bdb:	41 8d 5a fe          	lea    -0x2(%r10),%ebx
  400bdf:	d1 eb                	shr    %ebx
  400be1:	48 c1 e3 08          	shl    $0x8,%rbx
  400be5:	48 81 c3 80 01 00 00 	add    $0x180,%rbx
  400bec:	0f 1f 40 00          	nopl   0x0(%rax)
  400bf0:	c5 fd 28 42 20       	vmovapd 0x20(%rdx),%ymm0
  400bf5:	41 83 fa 01          	cmp    $0x1,%r10d
  400bf9:	c5 fd 28 4a 40       	vmovapd 0x40(%rdx),%ymm1
  400bfe:	c5 fd 28 52 60       	vmovapd 0x60(%rdx),%ymm2
  400c03:	c5 fd db 1a          	vpand  (%rdx),%ymm0,%ymm3
  400c07:	c5 f5 db f8          	vpand  %ymm0,%ymm1,%ymm7
  400c0b:	c5 6d db c1          	vpand  %ymm1,%ymm2,%ymm8
  400c0f:	0f 8e cb 00 00 00    	jle    400ce0 <cols_kernel+0x140>
  400c15:	c4 41 31 57 c9       	vxorpd %xmm9,%xmm9,%xmm9
  400c1a:	48 8d 3c 1a          	lea    (%rdx,%rbx,1),%rdi
  400c1e:	48 8d 82 80 00 00 00 	lea    0x80(%rdx),%rax
  400c25:	48 89 ce             	mov    %rcx,%rsi
  400c28:	0f 1f 84 00 00 00 00 	nopl   0x0(%rax,%rax,1)
  400c2f:	00 
  400c30:	c5 6d db d7          	vpand  %ymm7,%ymm2,%ymm10
  400c34:	c5 fd 6f 38          	vmovdqa (%rax),%ymm7
  400c38:	48 05 00 01 00 00    	add    $0x100,%rax
  400c3e:	c4 c1 7d 54 c1       	vandpd %ymm9,%ymm0,%ymm0
  400c43:	c5 fd 28 b0 20 ff ff 	vmovapd -0xe0(%rax),%ymm6
  400c4a:	ff 
  400c4b:	c5 f5 54 cb          	vandpd %ymm3,%ymm1,%ymm1
  400c4f:	c5 fd 28 a8 40 ff ff 	vmovapd -0xc0(%rax),%ymm5
  400c56:	ff 
  400c57:	c4 41 45 db c0       	vpand  %ymm8,%ymm7,%ymm8
  400c5c:	c5 fd 28 a0 60 ff ff 	vmovapd -0xa0(%rax),%ymm4
  400c63:	ff 
  400c64:	c5 c5 db da          	vpand  %ymm2,%ymm7,%ymm3
  400c68:	c5 fd 29 06          	vmovapd %ymm0,(%rsi)
  400c6c:	c5 fd 29 4e 20       	vmovapd %ymm1,0x20(%rsi)
  400c71:	c5 c5 db fe          	vpand  %ymm6,%ymm7,%ymm7
  400c75:	c5 7d 29 46 60       	vmovapd %ymm8,0x60(%rsi)
  400c7a:	c5 55 db ce          	vpand  %ymm6,%ymm5,%ymm9
  400c7e:	c5 7d 29 56 40       	vmovapd %ymm10,0x40(%rsi)
  400c83:	c5 5d db c5          	vpand  %ymm5,%ymm4,%ymm8
  400c87:	c5 e5 db f6          	vpand  %ymm6,%ymm3,%ymm6
  400c8b:	48 81 c6 00 01 00 00 	add    $0x100,%rsi
  400c92:	c5 fd 6f 58 80       	vmovdqa -0x80(%rax),%ymm3
  400c97:	c5 c5 db ed          	vpand  %ymm5,%ymm7,%ymm5
  400c9b:	c5 35 db cc          	vpand  %ymm4,%ymm9,%ymm9
  400c9f:	c5 fd 28 40 a0       	vmovapd -0x60(%rax),%ymm0
  400ca4:	c4 41 65 db c0       	vpand  %ymm8,%ymm3,%ymm8
  400ca9:	c5 fd 28 48 c0       	vmovapd -0x40(%rax),%ymm1
  400cae:	c5 fd 28 50 e0       	vmovapd -0x20(%rax),%ymm2
  400cb3:	c5 7d 29 4e c0       	vmovapd %ymm9,-0x40(%rsi)
  400cb8:	c5 f5 db f8          	vpand  %ymm0,%ymm1,%ymm7
  400cbc:	c5 7d 29 46 e0       	vmovapd %ymm8,-0x20(%rsi)
  400cc1:	c5 65 db cc          	vpand  %ymm4,%ymm3,%ymm9
  400cc5:	c5 fd 29 76 80       	vmovapd %ymm6,-0x80(%rsi)
  400cca:	c5 e5 db d8          	vpand  %ymm0,%ymm3,%ymm3
  400cce:	c5 fd 29 6e a0       	vmovapd %ymm5,-0x60(%rsi)
  400cd3:	48 39 f8             	cmp    %rdi,%rax
  400cd6:	c5 6d db c1          	vpand  %ymm1,%ymm2,%ymm8
  400cda:	0f 85 50 ff ff ff    	jne    400c30 <cols_kernel+0x90>
  400ce0:	41 83 c0 01          	add    $0x1,%r8d
  400ce4:	4c 01 ca             	add    %r9,%rdx
  400ce7:	4c 01 c9             	add    %r9,%rcx
  400cea:	45 39 d8             	cmp    %r11d,%r8d
  400ced:	0f 85 fd fe ff ff    	jne    400bf0 <cols_kernel+0x50>
  400cf3:	c5 f8 77             	vzeroupper 
  400cf6:	48 8b 5d f8          	mov    -0x8(%rbp),%rbx
  400cfa:	c9                   	leaveq 
  400cfb:	f3 c3                	repz retq 
  400cfd:	0f 1f 00             	nopl   (%rax)

0000000000400d00 <rows_kernel>:
  400d00:	55                   	push   %rbp
  400d01:	48 89 e5             	mov    %rsp,%rbp
  400d04:	41 57                	push   %r15
  400d06:	41 56                	push   %r14
  400d08:	41 55                	push   %r13
  400d0a:	41 54                	push   %r12
  400d0c:	53                   	push   %rbx
  400d0d:	48 83 e4 e0          	and    $0xffffffffffffffe0,%rsp
  400d11:	48 83 c4 08          	add    $0x8,%rsp
  400d15:	85 f6                	test   %esi,%esi
  400d17:	89 74 24 e4          	mov    %esi,-0x1c(%rsp)
  400d1b:	0f 8e 62 01 00 00    	jle    400e83 <rows_kernel+0x183>
  400d21:	8d 47 1f             	lea    0x1f(%rdi),%eax
  400d24:	85 ff                	test   %edi,%edi
  400d26:	4c 8d 71 20          	lea    0x20(%rcx),%r14
  400d2a:	c7 44 24 f4 00 00 00 	movl   $0x0,-0xc(%rsp)
  400d31:	00 
  400d32:	0f 49 c7             	cmovns %edi,%eax
  400d35:	89 44 24 f0          	mov    %eax,-0x10(%rsp)
  400d39:	48 63 c7             	movslq %edi,%rax
  400d3c:	c1 7c 24 f0 05       	sarl   $0x5,-0x10(%rsp)
  400d41:	48 89 44 24 e8       	mov    %rax,-0x18(%rsp)
  400d46:	4c 8d 7c 10 df       	lea    -0x21(%rax,%rdx,1),%r15
  400d4b:	8b 44 24 f0          	mov    -0x10(%rsp),%eax
  400d4f:	83 e8 03             	sub    $0x3,%eax
  400d52:	c1 e8 02             	shr    $0x2,%eax
  400d55:	4c 8d 68 01          	lea    0x1(%rax),%r13
  400d59:	49 c1 e5 07          	shl    $0x7,%r13
  400d5d:	0f 1f 00             	nopl   (%rax)
  400d60:	c5 fd 28 0a          	vmovapd (%rdx),%ymm1
  400d64:	83 7c 24 f0 02       	cmpl   $0x2,-0x10(%rsp)
  400d69:	c5 fd 10 5a 01       	vmovupd 0x1(%rdx),%ymm3
  400d6e:	c5 fd 6f c1          	vmovdqa %ymm1,%ymm0
  400d72:	c4 e3 75 46 d1 08    	vperm2i128 $0x8,%ymm1,%ymm1,%ymm2
  400d78:	c5 f5 db cb          	vpand  %ymm3,%ymm1,%ymm1
  400d7c:	c4 e3 7d 0f c2 0f    	vpalignr $0xf,%ymm2,%ymm0,%ymm0
  400d82:	c5 fd db c1          	vpand  %ymm1,%ymm0,%ymm0
  400d86:	c4 c1 7d 29 46 e0    	vmovapd %ymm0,-0x20(%r14)
  400d8c:	0f 8e a3 00 00 00    	jle    400e35 <rows_kernel+0x135>
  400d92:	48 8d 4a 1f          	lea    0x1f(%rdx),%rcx
  400d96:	4c 8d 62 21          	lea    0x21(%rdx),%r12
  400d9a:	48 8d 5a 3f          	lea    0x3f(%rdx),%rbx
  400d9e:	4c 8d 5a 41          	lea    0x41(%rdx),%r11
  400da2:	4c 8d 52 5f          	lea    0x5f(%rdx),%r10
  400da6:	4c 8d 4a 61          	lea    0x61(%rdx),%r9
  400daa:	4c 8d 42 7f          	lea    0x7f(%rdx),%r8
  400dae:	48 8d ba 81 00 00 00 	lea    0x81(%rdx),%rdi
  400db5:	4c 89 f6             	mov    %r14,%rsi
  400db8:	31 c0                	xor    %eax,%eax
  400dba:	66 0f 1f 44 00 00    	nopw   0x0(%rax,%rax,1)
  400dc0:	c5 fd 10 01          	vmovupd (%rcx),%ymm0
  400dc4:	48 83 ee 80          	sub    $0xffffffffffffff80,%rsi
  400dc8:	48 83 e9 80          	sub    $0xffffffffffffff80,%rcx
  400dcc:	c4 c1 7d 10 0c 04    	vmovupd (%r12,%rax,1),%ymm1
  400dd2:	c5 fd 54 41 81       	vandpd -0x7f(%rcx),%ymm0,%ymm0
  400dd7:	c5 f5 db c0          	vpand  %ymm0,%ymm1,%ymm0
  400ddb:	c5 fd 29 46 80       	vmovapd %ymm0,-0x80(%rsi)
  400de0:	c5 fd 10 04 03       	vmovupd (%rbx,%rax,1),%ymm0
  400de5:	c4 c1 7d 10 0c 03    	vmovupd (%r11,%rax,1),%ymm1
  400deb:	c5 fd 54 41 a1       	vandpd -0x5f(%rcx),%ymm0,%ymm0
  400df0:	c5 f5 db c0          	vpand  %ymm0,%ymm1,%ymm0
  400df4:	c5 fd 29 46 a0       	vmovapd %ymm0,-0x60(%rsi)
  400df9:	c4 c1 7d 10 04 02    	vmovupd (%r10,%rax,1),%ymm0
  400dff:	c4 c1 7d 10 0c 01    	vmovupd (%r9,%rax,1),%ymm1
  400e05:	c5 fd 54 41 c1       	vandpd -0x3f(%rcx),%ymm0,%ymm0
  400e0a:	c5 f5 db c0          	vpand  %ymm0,%ymm1,%ymm0
  400e0e:	c5 fd 29 46 c0       	vmovapd %ymm0,-0x40(%rsi)
  400e13:	c4 c1 7d 10 04 00    	vmovupd (%r8,%rax,1),%ymm0
  400e19:	c5 fd 10 0c 07       	vmovupd (%rdi,%rax,1),%ymm1
  400e1e:	48 83 e8 80          	sub    $0xffffffffffffff80,%rax
  400e22:	c5 fd 54 41 e1       	vandpd -0x1f(%rcx),%ymm0,%ymm0
  400e27:	c5 f5 db c0          	vpand  %ymm0,%ymm1,%ymm0
  400e2b:	c5 fd 29 46 e0       	vmovapd %ymm0,-0x20(%rsi)
  400e30:	4c 39 e8             	cmp    %r13,%rax
  400e33:	75 8b                	jne    400dc0 <rows_kernel+0xc0>
  400e35:	83 44 24 f4 01       	addl   $0x1,-0xc(%rsp)
  400e3a:	c4 c1 7d 28 4f 01    	vmovapd 0x1(%r15),%ymm1
  400e40:	48 8b 44 24 e8       	mov    -0x18(%rsp),%rax
  400e45:	c5 fd 6f c1          	vmovdqa %ymm1,%ymm0
  400e49:	c4 e3 75 46 d1 81    	vperm2i128 $0x81,%ymm1,%ymm1,%ymm2
  400e4f:	c4 c1 7d 10 1f       	vmovupd (%r15),%ymm3
  400e54:	48 01 c2             	add    %rax,%rdx
  400e57:	49 01 c7             	add    %rax,%r15
  400e5a:	c4 e3 6d 0f c0 01    	vpalignr $0x1,%ymm0,%ymm2,%ymm0
  400e60:	c5 f5 db cb          	vpand  %ymm3,%ymm1,%ymm1
  400e64:	c5 fd db c1          	vpand  %ymm1,%ymm0,%ymm0
  400e68:	c4 c1 7d 29 44 06 c0 	vmovapd %ymm0,-0x40(%r14,%rax,1)
  400e6f:	49 01 c6             	add    %rax,%r14
  400e72:	8b 44 24 e4          	mov    -0x1c(%rsp),%eax
  400e76:	39 44 24 f4          	cmp    %eax,-0xc(%rsp)
  400e7a:	0f 85 e0 fe ff ff    	jne    400d60 <rows_kernel+0x60>
  400e80:	c5 f8 77             	vzeroupper 
  400e83:	48 8d 65 d8          	lea    -0x28(%rbp),%rsp
  400e87:	5b                   	pop    %rbx
  400e88:	41 5c                	pop    %r12
  400e8a:	41 5d                	pop    %r13
  400e8c:	41 5e                	pop    %r14
  400e8e:	41 5f                	pop    %r15
  400e90:	5d                   	pop    %rbp
  400e91:	c3                   	retq   
  400e92:	0f 1f 40 00          	nopl   0x0(%rax)
  400e96:	66 2e 0f 1f 84 00 00 	nopw   %cs:0x0(%rax,%rax,1)
  400e9d:	00 00 00 

0000000000400ea0 <pack>:
  400ea0:	41 89 f2             	mov    %esi,%r10d
  400ea3:	55                   	push   %rbp
  400ea4:	45 31 c0             	xor    %r8d,%r8d
  400ea7:	44 0f af d7          	imul   %edi,%r10d
  400eab:	c5 f9 57 c0          	vxorpd %xmm0,%xmm0,%xmm0
  400eaf:	48 89 e5             	mov    %rsp,%rbp
  400eb2:	48 83 e4 e0          	and    $0xffffffffffffffe0,%rsp
  400eb6:	49 89 d1             	mov    %rdx,%r9
  400eb9:	48 81 ec 88 01 00 00 	sub    $0x188,%rsp
  400ec0:	45 85 d2             	test   %r10d,%r10d
  400ec3:	c5 fd 29 44 24 88    	vmovapd %ymm0,-0x78(%rsp)
  400ec9:	c5 fd 29 44 24 a8    	vmovapd %ymm0,-0x58(%rsp)
  400ecf:	c5 fd 29 44 24 c8    	vmovapd %ymm0,-0x38(%rsp)
  400ed5:	c5 fd 29 44 24 e8    	vmovapd %ymm0,-0x18(%rsp)
  400edb:	c5 fd 29 44 24 08    	vmovapd %ymm0,0x8(%rsp)
  400ee1:	c5 fd 29 44 24 28    	vmovapd %ymm0,0x28(%rsp)
  400ee7:	c5 fd 29 44 24 48    	vmovapd %ymm0,0x48(%rsp)
  400eed:	c5 fd 29 44 24 68    	vmovapd %ymm0,0x68(%rsp)
  400ef3:	c5 fd 29 84 24 88 00 	vmovapd %ymm0,0x88(%rsp)
  400efa:	00 00 
  400efc:	c5 fd 29 84 24 a8 00 	vmovapd %ymm0,0xa8(%rsp)
  400f03:	00 00 
  400f05:	c5 fd 29 84 24 c8 00 	vmovapd %ymm0,0xc8(%rsp)
  400f0c:	00 00 
  400f0e:	c5 fd 29 84 24 e8 00 	vmovapd %ymm0,0xe8(%rsp)
  400f15:	00 00 
  400f17:	c5 fd 29 84 24 08 01 	vmovapd %ymm0,0x108(%rsp)
  400f1e:	00 00 
  400f20:	c5 fd 29 84 24 28 01 	vmovapd %ymm0,0x128(%rsp)
  400f27:	00 00 
  400f29:	c5 fd 29 84 24 48 01 	vmovapd %ymm0,0x148(%rsp)
  400f30:	00 00 
  400f32:	c5 fd 29 84 24 68 01 	vmovapd %ymm0,0x168(%rsp)
  400f39:	00 00 
  400f3b:	0f 8e 14 03 00 00    	jle    401255 <pack+0x3b5>
  400f41:	0f 1f 80 00 00 00 00 	nopl   0x0(%rax)
  400f48:	c4 c1 7d 28 01       	vmovapd (%r9),%ymm0
  400f4d:	44 89 c0             	mov    %r8d,%eax
  400f50:	99                   	cltd   
  400f51:	c5 fd 29 44 24 88    	vmovapd %ymm0,-0x78(%rsp)
  400f57:	c4 c1 7d 28 41 20    	vmovapd 0x20(%r9),%ymm0
  400f5d:	f7 ff                	idiv   %edi
  400f5f:	c5 fd 29 44 24 a8    	vmovapd %ymm0,-0x58(%rsp)
  400f65:	c4 c1 7d 28 41 40    	vmovapd 0x40(%r9),%ymm0
  400f6b:	c5 fd 29 44 24 c8    	vmovapd %ymm0,-0x38(%rsp)
  400f71:	c4 c1 7d 28 41 60    	vmovapd 0x60(%r9),%ymm0
  400f77:	0f af d6             	imul   %esi,%edx
  400f7a:	c1 e0 05             	shl    $0x5,%eax
  400f7d:	c5 fd 29 44 24 e8    	vmovapd %ymm0,-0x18(%rsp)
  400f83:	c4 c1 7d 28 81 80 00 	vmovapd 0x80(%r9),%ymm0
  400f8a:	00 00 
  400f8c:	01 d0                	add    %edx,%eax
  400f8e:	c5 fd 29 44 24 08    	vmovapd %ymm0,0x8(%rsp)
  400f94:	48 98                	cltq   
  400f96:	c4 c1 7d 28 81 a0 00 	vmovapd 0xa0(%r9),%ymm0
  400f9d:	00 00 
  400f9f:	c5 fd 29 44 24 28    	vmovapd %ymm0,0x28(%rsp)
  400fa5:	c4 c1 7d 28 81 c0 00 	vmovapd 0xc0(%r9),%ymm0
  400fac:	00 00 
  400fae:	c5 fd 29 44 24 48    	vmovapd %ymm0,0x48(%rsp)
  400fb4:	c4 c1 7d 28 81 e0 00 	vmovapd 0xe0(%r9),%ymm0
  400fbb:	00 00 
  400fbd:	c5 fd 29 44 24 68    	vmovapd %ymm0,0x68(%rsp)
  400fc3:	c4 c1 7d 28 81 00 01 	vmovapd 0x100(%r9),%ymm0
  400fca:	00 00 
  400fcc:	c5 fd 29 84 24 88 00 	vmovapd %ymm0,0x88(%rsp)
  400fd3:	00 00 
  400fd5:	c4 c1 7d 28 81 20 01 	vmovapd 0x120(%r9),%ymm0
  400fdc:	00 00 
  400fde:	c5 fd 29 84 24 a8 00 	vmovapd %ymm0,0xa8(%rsp)
  400fe5:	00 00 
  400fe7:	c4 c1 7d 28 81 40 01 	vmovapd 0x140(%r9),%ymm0
  400fee:	00 00 
  400ff0:	c5 fd 29 84 24 c8 00 	vmovapd %ymm0,0xc8(%rsp)
  400ff7:	00 00 
  400ff9:	c4 c1 7d 28 81 60 01 	vmovapd 0x160(%r9),%ymm0
  401000:	00 00 
  401002:	c5 fd 29 84 24 e8 00 	vmovapd %ymm0,0xe8(%rsp)
  401009:	00 00 
  40100b:	c4 c1 7d 28 81 80 01 	vmovapd 0x180(%r9),%ymm0
  401012:	00 00 
  401014:	c5 fd 29 84 24 08 01 	vmovapd %ymm0,0x108(%rsp)
  40101b:	00 00 
  40101d:	c4 c1 7d 28 81 a0 01 	vmovapd 0x1a0(%r9),%ymm0
  401024:	00 00 
  401026:	c5 fd 29 84 24 28 01 	vmovapd %ymm0,0x128(%rsp)
  40102d:	00 00 
  40102f:	c4 c1 7d 28 81 c0 01 	vmovapd 0x1c0(%r9),%ymm0
  401036:	00 00 
  401038:	c5 fd 29 84 24 48 01 	vmovapd %ymm0,0x148(%rsp)
  40103f:	00 00 
  401041:	c4 c1 7d 28 81 e0 01 	vmovapd 0x1e0(%r9),%ymm0
  401048:	00 00 
  40104a:	c5 fd 29 84 24 68 01 	vmovapd %ymm0,0x168(%rsp)
  401051:	00 00 
  401053:	c5 fd 28 44 24 88    	vmovapd -0x78(%rsp),%ymm0
  401059:	c5 fd 29 04 01       	vmovapd %ymm0,(%rcx,%rax,1)
  40105e:	41 8d 40 20          	lea    0x20(%r8),%eax
  401062:	c5 fd 28 44 24 a8    	vmovapd -0x58(%rsp),%ymm0
  401068:	99                   	cltd   
  401069:	f7 ff                	idiv   %edi
  40106b:	0f af d6             	imul   %esi,%edx
  40106e:	c1 e0 05             	shl    $0x5,%eax
  401071:	01 d0                	add    %edx,%eax
  401073:	48 98                	cltq   
  401075:	c5 fd 29 04 01       	vmovapd %ymm0,(%rcx,%rax,1)
  40107a:	41 8d 40 40          	lea    0x40(%r8),%eax
  40107e:	c5 fd 28 44 24 c8    	vmovapd -0x38(%rsp),%ymm0
  401084:	99                   	cltd   
  401085:	f7 ff                	idiv   %edi
  401087:	0f af d6             	imul   %esi,%edx
  40108a:	c1 e0 05             	shl    $0x5,%eax
  40108d:	01 d0                	add    %edx,%eax
  40108f:	48 98                	cltq   
  401091:	c5 fd 29 04 01       	vmovapd %ymm0,(%rcx,%rax,1)
  401096:	41 8d 40 60          	lea    0x60(%r8),%eax
  40109a:	c5 fd 28 44 24 e8    	vmovapd -0x18(%rsp),%ymm0
  4010a0:	99                   	cltd   
  4010a1:	f7 ff                	idiv   %edi
  4010a3:	0f af d6             	imul   %esi,%edx
  4010a6:	c1 e0 05             	shl    $0x5,%eax
  4010a9:	01 d0                	add    %edx,%eax
  4010ab:	48 98                	cltq   
  4010ad:	c5 fd 29 04 01       	vmovapd %ymm0,(%rcx,%rax,1)
  4010b2:	41 8d 80 80 00 00 00 	lea    0x80(%r8),%eax
  4010b9:	c5 fd 28 44 24 08    	vmovapd 0x8(%rsp),%ymm0
  4010bf:	99                   	cltd   
  4010c0:	f7 ff                	idiv   %edi
  4010c2:	0f af d6             	imul   %esi,%edx
  4010c5:	c1 e0 05             	shl    $0x5,%eax
  4010c8:	01 d0                	add    %edx,%eax
  4010ca:	48 98                	cltq   
  4010cc:	c5 fd 29 04 01       	vmovapd %ymm0,(%rcx,%rax,1)
  4010d1:	41 8d 80 a0 00 00 00 	lea    0xa0(%r8),%eax
  4010d8:	c5 fd 28 44 24 28    	vmovapd 0x28(%rsp),%ymm0
  4010de:	99                   	cltd   
  4010df:	f7 ff                	idiv   %edi
  4010e1:	0f af d6             	imul   %esi,%edx
  4010e4:	c1 e0 05             	shl    $0x5,%eax
  4010e7:	01 d0                	add    %edx,%eax
  4010e9:	48 98                	cltq   
  4010eb:	c5 fd 29 04 01       	vmovapd %ymm0,(%rcx,%rax,1)
  4010f0:	41 8d 80 c0 00 00 00 	lea    0xc0(%r8),%eax
  4010f7:	c5 fd 28 44 24 48    	vmovapd 0x48(%rsp),%ymm0
  4010fd:	99                   	cltd   
  4010fe:	f7 ff                	idiv   %edi
  401100:	c1 e0 05             	shl    $0x5,%eax
  401103:	0f af d6             	imul   %esi,%edx
  401106:	01 d0                	add    %edx,%eax
  401108:	48 98                	cltq   
  40110a:	c5 fd 29 04 01       	vmovapd %ymm0,(%rcx,%rax,1)
  40110f:	41 8d 80 e0 00 00 00 	lea    0xe0(%r8),%eax
  401116:	c5 fd 28 44 24 68    	vmovapd 0x68(%rsp),%ymm0
  40111c:	99                   	cltd   
  40111d:	f7 ff                	idiv   %edi
  40111f:	0f af d6             	imul   %esi,%edx
  401122:	c1 e0 05             	shl    $0x5,%eax
  401125:	01 d0                	add    %edx,%eax
  401127:	48 98                	cltq   
  401129:	c5 fd 29 04 01       	vmovapd %ymm0,(%rcx,%rax,1)
  40112e:	41 8d 80 00 01 00 00 	lea    0x100(%r8),%eax
  401135:	c5 fd 28 84 24 88 00 	vmovapd 0x88(%rsp),%ymm0
  40113c:	00 00 
  40113e:	99                   	cltd   
  40113f:	f7 ff                	idiv   %edi
  401141:	0f af d6             	imul   %esi,%edx
  401144:	c1 e0 05             	shl    $0x5,%eax
  401147:	01 d0                	add    %edx,%eax
  401149:	48 98                	cltq   
  40114b:	c5 fd 29 04 01       	vmovapd %ymm0,(%rcx,%rax,1)
  401150:	41 8d 80 20 01 00 00 	lea    0x120(%r8),%eax
  401157:	c5 fd 28 84 24 a8 00 	vmovapd 0xa8(%rsp),%ymm0
  40115e:	00 00 
  401160:	99                   	cltd   
  401161:	f7 ff                	idiv   %edi
  401163:	0f af d6             	imul   %esi,%edx
  401166:	c1 e0 05             	shl    $0x5,%eax
  401169:	01 d0                	add    %edx,%eax
  40116b:	48 98                	cltq   
  40116d:	c5 fd 29 04 01       	vmovapd %ymm0,(%rcx,%rax,1)
  401172:	41 8d 80 40 01 00 00 	lea    0x140(%r8),%eax
  401179:	c5 fd 28 84 24 c8 00 	vmovapd 0xc8(%rsp),%ymm0
  401180:	00 00 
  401182:	99                   	cltd   
  401183:	f7 ff                	idiv   %edi
  401185:	0f af d6             	imul   %esi,%edx
  401188:	c1 e0 05             	shl    $0x5,%eax
  40118b:	01 d0                	add    %edx,%eax
  40118d:	48 98                	cltq   
  40118f:	c5 fd 29 04 01       	vmovapd %ymm0,(%rcx,%rax,1)
  401194:	41 8d 80 60 01 00 00 	lea    0x160(%r8),%eax
  40119b:	c5 fd 28 84 24 e8 00 	vmovapd 0xe8(%rsp),%ymm0
  4011a2:	00 00 
  4011a4:	99                   	cltd   
  4011a5:	f7 ff                	idiv   %edi
  4011a7:	0f af d6             	imul   %esi,%edx
  4011aa:	c1 e0 05             	shl    $0x5,%eax
  4011ad:	01 d0                	add    %edx,%eax
  4011af:	48 98                	cltq   
  4011b1:	c5 fd 29 04 01       	vmovapd %ymm0,(%rcx,%rax,1)
  4011b6:	41 8d 80 80 01 00 00 	lea    0x180(%r8),%eax
  4011bd:	c5 fd 28 84 24 08 01 	vmovapd 0x108(%rsp),%ymm0
  4011c4:	00 00 
  4011c6:	99                   	cltd   
  4011c7:	f7 ff                	idiv   %edi
  4011c9:	0f af d6             	imul   %esi,%edx
  4011cc:	c1 e0 05             	shl    $0x5,%eax
  4011cf:	01 d0                	add    %edx,%eax
  4011d1:	48 98                	cltq   
  4011d3:	c5 fd 29 04 01       	vmovapd %ymm0,(%rcx,%rax,1)
  4011d8:	41 8d 80 a0 01 00 00 	lea    0x1a0(%r8),%eax
  4011df:	c5 fd 28 84 24 28 01 	vmovapd 0x128(%rsp),%ymm0
  4011e6:	00 00 
  4011e8:	99                   	cltd   
  4011e9:	f7 ff                	idiv   %edi
  4011eb:	49 81 c1 00 02 00 00 	add    $0x200,%r9
  4011f2:	0f af d6             	imul   %esi,%edx
  4011f5:	c1 e0 05             	shl    $0x5,%eax
  4011f8:	01 d0                	add    %edx,%eax
  4011fa:	48 98                	cltq   
  4011fc:	c5 fd 29 04 01       	vmovapd %ymm0,(%rcx,%rax,1)
  401201:	41 8d 80 c0 01 00 00 	lea    0x1c0(%r8),%eax
  401208:	c5 fd 28 84 24 48 01 	vmovapd 0x148(%rsp),%ymm0
  40120f:	00 00 
  401211:	99                   	cltd   
  401212:	f7 ff                	idiv   %edi
  401214:	0f af d6             	imul   %esi,%edx
  401217:	c1 e0 05             	shl    $0x5,%eax
  40121a:	01 d0                	add    %edx,%eax
  40121c:	48 98                	cltq   
  40121e:	c5 fd 29 04 01       	vmovapd %ymm0,(%rcx,%rax,1)
  401223:	41 8d 80 e0 01 00 00 	lea    0x1e0(%r8),%eax
  40122a:	41 81 c0 00 02 00 00 	add    $0x200,%r8d
  401231:	c5 fd 28 84 24 68 01 	vmovapd 0x168(%rsp),%ymm0
  401238:	00 00 
  40123a:	99                   	cltd   
  40123b:	f7 ff                	idiv   %edi
  40123d:	0f af d6             	imul   %esi,%edx
  401240:	c1 e0 05             	shl    $0x5,%eax
  401243:	01 d0                	add    %edx,%eax
  401245:	45 39 d0             	cmp    %r10d,%r8d
  401248:	48 98                	cltq   
  40124a:	c5 fd 29 04 01       	vmovapd %ymm0,(%rcx,%rax,1)
  40124f:	0f 8c f3 fc ff ff    	jl     400f48 <pack+0xa8>
  401255:	c5 f8 77             	vzeroupper 
  401258:	c9                   	leaveq 
  401259:	c3                   	retq   
  40125a:	66 0f 1f 44 00 00    	nopw   0x0(%rax,%rax,1)

0000000000401260 <unpack>:
  401260:	55                   	push   %rbp
  401261:	c5 f9 57 c0          	vxorpd %xmm0,%xmm0,%xmm0
  401265:	41 89 f0             	mov    %esi,%r8d
  401268:	45 31 c9             	xor    %r9d,%r9d
  40126b:	49 89 d2             	mov    %rdx,%r10
  40126e:	48 89 e5             	mov    %rsp,%rbp
  401271:	41 54                	push   %r12
  401273:	41 89 f4             	mov    %esi,%r12d
  401276:	44 0f af e7          	imul   %edi,%r12d
  40127a:	41 c1 e0 05          	shl    $0x5,%r8d
  40127e:	53                   	push   %rbx
  40127f:	48 83 e4 e0          	and    $0xffffffffffffffe0,%rsp
  401283:	48 81 ec 88 01 00 00 	sub    $0x188,%rsp
  40128a:	45 85 e4             	test   %r12d,%r12d
  40128d:	c5 fd 29 44 24 88    	vmovapd %ymm0,-0x78(%rsp)
  401293:	c5 fd 29 44 24 a8    	vmovapd %ymm0,-0x58(%rsp)
  401299:	c5 fd 29 44 24 c8    	vmovapd %ymm0,-0x38(%rsp)
  40129f:	c5 fd 29 44 24 e8    	vmovapd %ymm0,-0x18(%rsp)
  4012a5:	c5 fd 29 44 24 08    	vmovapd %ymm0,0x8(%rsp)
  4012ab:	c5 fd 29 44 24 28    	vmovapd %ymm0,0x28(%rsp)
  4012b1:	c5 fd 29 44 24 48    	vmovapd %ymm0,0x48(%rsp)
  4012b7:	c5 fd 29 44 24 68    	vmovapd %ymm0,0x68(%rsp)
  4012bd:	c5 fd 29 84 24 88 00 	vmovapd %ymm0,0x88(%rsp)
  4012c4:	00 00 
  4012c6:	c5 fd 29 84 24 a8 00 	vmovapd %ymm0,0xa8(%rsp)
  4012cd:	00 00 
  4012cf:	c5 fd 29 84 24 c8 00 	vmovapd %ymm0,0xc8(%rsp)
  4012d6:	00 00 
  4012d8:	c5 fd 29 84 24 e8 00 	vmovapd %ymm0,0xe8(%rsp)
  4012df:	00 00 
  4012e1:	c5 fd 29 84 24 08 01 	vmovapd %ymm0,0x108(%rsp)
  4012e8:	00 00 
  4012ea:	c5 fd 29 84 24 28 01 	vmovapd %ymm0,0x128(%rsp)
  4012f1:	00 00 
  4012f3:	c5 fd 29 84 24 48 01 	vmovapd %ymm0,0x148(%rsp)
  4012fa:	00 00 
  4012fc:	c5 fd 29 84 24 68 01 	vmovapd %ymm0,0x168(%rsp)
  401303:	00 00 
  401305:	0f 8e 31 04 00 00    	jle    40173c <unpack+0x4dc>
  40130b:	0f 1f 44 00 00       	nopl   0x0(%rax,%rax,1)
  401310:	c4 c1 7d 28 02       	vmovapd (%r10),%ymm0
  401315:	44 89 c8             	mov    %r9d,%eax
  401318:	41 8d 59 20          	lea    0x20(%r9),%ebx
  40131c:	99                   	cltd   
  40131d:	c5 fd 29 44 24 88    	vmovapd %ymm0,-0x78(%rsp)
  401323:	c4 c1 7d 28 42 20    	vmovapd 0x20(%r10),%ymm0
  401329:	41 f7 f8             	idiv   %r8d
  40132c:	c5 fd 29 44 24 a8    	vmovapd %ymm0,-0x58(%rsp)
  401332:	c4 c1 7d 28 42 40    	vmovapd 0x40(%r10),%ymm0
  401338:	c5 fd 29 44 24 c8    	vmovapd %ymm0,-0x38(%rsp)
  40133e:	c4 c1 7d 28 42 60    	vmovapd 0x60(%r10),%ymm0
  401344:	41 89 c3             	mov    %eax,%r11d
  401347:	44 89 c8             	mov    %r9d,%eax
  40134a:	c5 fd 29 44 24 e8    	vmovapd %ymm0,-0x18(%rsp)
  401350:	c1 f8 05             	sar    $0x5,%eax
  401353:	41 c1 e3 05          	shl    $0x5,%r11d
  401357:	c4 c1 7d 28 82 80 00 	vmovapd 0x80(%r10),%ymm0
  40135e:	00 00 
  401360:	99                   	cltd   
  401361:	f7 fe                	idiv   %esi
  401363:	c5 fd 29 44 24 08    	vmovapd %ymm0,0x8(%rsp)
  401369:	89 d8                	mov    %ebx,%eax
  40136b:	c4 c1 7d 28 82 a0 00 	vmovapd 0xa0(%r10),%ymm0
  401372:	00 00 
  401374:	c5 fd 29 44 24 28    	vmovapd %ymm0,0x28(%rsp)
  40137a:	c4 c1 7d 28 82 c0 00 	vmovapd 0xc0(%r10),%ymm0
  401381:	00 00 
  401383:	0f af d7             	imul   %edi,%edx
  401386:	c5 fd 29 44 24 48    	vmovapd %ymm0,0x48(%rsp)
  40138c:	c4 c1 7d 28 82 e0 00 	vmovapd 0xe0(%r10),%ymm0
  401393:	00 00 
  401395:	41 01 d3             	add    %edx,%r11d
  401398:	99                   	cltd   
  401399:	c5 fd 29 44 24 68    	vmovapd %ymm0,0x68(%rsp)
  40139f:	4d 63 db             	movslq %r11d,%r11
  4013a2:	c4 c1 7d 28 82 00 01 	vmovapd 0x100(%r10),%ymm0
  4013a9:	00 00 
  4013ab:	41 f7 f8             	idiv   %r8d
  4013ae:	c5 fd 29 84 24 88 00 	vmovapd %ymm0,0x88(%rsp)
  4013b5:	00 00 
  4013b7:	c4 c1 7d 28 82 20 01 	vmovapd 0x120(%r10),%ymm0
  4013be:	00 00 
  4013c0:	c5 fd 29 84 24 a8 00 	vmovapd %ymm0,0xa8(%rsp)
  4013c7:	00 00 
  4013c9:	c4 c1 7d 28 82 40 01 	vmovapd 0x140(%r10),%ymm0
  4013d0:	00 00 
  4013d2:	c5 fd 29 84 24 c8 00 	vmovapd %ymm0,0xc8(%rsp)
  4013d9:	00 00 
  4013db:	c4 c1 7d 28 82 60 01 	vmovapd 0x160(%r10),%ymm0
  4013e2:	00 00 
  4013e4:	c5 fd 29 84 24 e8 00 	vmovapd %ymm0,0xe8(%rsp)
  4013eb:	00 00 
  4013ed:	c4 c1 7d 28 82 80 01 	vmovapd 0x180(%r10),%ymm0
  4013f4:	00 00 
  4013f6:	c5 fd 29 84 24 08 01 	vmovapd %ymm0,0x108(%rsp)
  4013fd:	00 00 
  4013ff:	c4 c1 7d 28 82 a0 01 	vmovapd 0x1a0(%r10),%ymm0
  401406:	00 00 
  401408:	c5 fd 29 84 24 28 01 	vmovapd %ymm0,0x128(%rsp)
  40140f:	00 00 
  401411:	c4 c1 7d 28 82 c0 01 	vmovapd 0x1c0(%r10),%ymm0
  401418:	00 00 
  40141a:	c5 fd 29 84 24 48 01 	vmovapd %ymm0,0x148(%rsp)
  401421:	00 00 
  401423:	c4 c1 7d 28 82 e0 01 	vmovapd 0x1e0(%r10),%ymm0
  40142a:	00 00 
  40142c:	c5 fd 29 84 24 68 01 	vmovapd %ymm0,0x168(%rsp)
  401433:	00 00 
  401435:	c5 fd 28 44 24 88    	vmovapd -0x78(%rsp),%ymm0
  40143b:	c4 a1 7d 29 04 19    	vmovapd %ymm0,(%rcx,%r11,1)
  401441:	41 89 c3             	mov    %eax,%r11d
  401444:	89 d8                	mov    %ebx,%eax
  401446:	c1 f8 05             	sar    $0x5,%eax
  401449:	41 8d 59 40          	lea    0x40(%r9),%ebx
  40144d:	41 c1 e3 05          	shl    $0x5,%r11d
  401451:	99                   	cltd   
  401452:	c5 fd 28 44 24 a8    	vmovapd -0x58(%rsp),%ymm0
  401458:	f7 fe                	idiv   %esi
  40145a:	89 d8                	mov    %ebx,%eax
  40145c:	0f af d7             	imul   %edi,%edx
  40145f:	41 01 d3             	add    %edx,%r11d
  401462:	99                   	cltd   
  401463:	41 f7 f8             	idiv   %r8d
  401466:	4d 63 db             	movslq %r11d,%r11
  401469:	c4 a1 7d 29 04 19    	vmovapd %ymm0,(%rcx,%r11,1)
  40146f:	c5 fd 28 44 24 c8    	vmovapd -0x38(%rsp),%ymm0
  401475:	41 89 c3             	mov    %eax,%r11d
  401478:	89 d8                	mov    %ebx,%eax
  40147a:	41 8d 59 60          	lea    0x60(%r9),%ebx
  40147e:	c1 f8 05             	sar    $0x5,%eax
  401481:	41 c1 e3 05          	shl    $0x5,%r11d
  401485:	99                   	cltd   
  401486:	f7 fe                	idiv   %esi
  401488:	89 d8                	mov    %ebx,%eax
  40148a:	0f af d7             	imul   %edi,%edx
  40148d:	41 01 d3             	add    %edx,%r11d
  401490:	99                   	cltd   
  401491:	41 f7 f8             	idiv   %r8d
  401494:	4d 63 db             	movslq %r11d,%r11
  401497:	c4 a1 7d 29 04 19    	vmovapd %ymm0,(%rcx,%r11,1)
  40149d:	c5 fd 28 44 24 e8    	vmovapd -0x18(%rsp),%ymm0
  4014a3:	41 89 c3             	mov    %eax,%r11d
  4014a6:	89 d8                	mov    %ebx,%eax
  4014a8:	41 8d 99 80 00 00 00 	lea    0x80(%r9),%ebx
  4014af:	c1 f8 05             	sar    $0x5,%eax
  4014b2:	41 c1 e3 05          	shl    $0x5,%r11d
  4014b6:	99                   	cltd   
  4014b7:	f7 fe                	idiv   %esi
  4014b9:	89 d8                	mov    %ebx,%eax
  4014bb:	0f af d7             	imul   %edi,%edx
  4014be:	41 01 d3             	add    %edx,%r11d
  4014c1:	99                   	cltd   
  4014c2:	41 f7 f8             	idiv   %r8d
  4014c5:	4d 63 db             	movslq %r11d,%r11
  4014c8:	c4 a1 7d 29 04 19    	vmovapd %ymm0,(%rcx,%r11,1)
  4014ce:	c5 fd 28 44 24 08    	vmovapd 0x8(%rsp),%ymm0
  4014d4:	41 89 c3             	mov    %eax,%r11d
  4014d7:	89 d8                	mov    %ebx,%eax
  4014d9:	41 8d 99 a0 00 00 00 	lea    0xa0(%r9),%ebx
  4014e0:	c1 f8 05             	sar    $0x5,%eax
  4014e3:	41 c1 e3 05          	shl    $0x5,%r11d
  4014e7:	99                   	cltd   
  4014e8:	f7 fe                	idiv   %esi
  4014ea:	89 d8                	mov    %ebx,%eax
  4014ec:	0f af d7             	imul   %edi,%edx
  4014ef:	41 01 d3             	add    %edx,%r11d
  4014f2:	99                   	cltd   
  4014f3:	41 f7 f8             	idiv   %r8d
  4014f6:	4d 63 db             	movslq %r11d,%r11
  4014f9:	c4 a1 7d 29 04 19    	vmovapd %ymm0,(%rcx,%r11,1)
  4014ff:	c5 fd 28 44 24 28    	vmovapd 0x28(%rsp),%ymm0
  401505:	41 89 c3             	mov    %eax,%r11d
  401508:	89 d8                	mov    %ebx,%eax
  40150a:	41 8d 99 c0 00 00 00 	lea    0xc0(%r9),%ebx
  401511:	c1 f8 05             	sar    $0x5,%eax
  401514:	41 c1 e3 05          	shl    $0x5,%r11d
  401518:	99                   	cltd   
  401519:	f7 fe                	idiv   %esi
  40151b:	89 d8                	mov    %ebx,%eax
  40151d:	0f af d7             	imul   %edi,%edx
  401520:	41 01 d3             	add    %edx,%r11d
  401523:	99                   	cltd   
  401524:	41 f7 f8             	idiv   %r8d
  401527:	4d 63 db             	movslq %r11d,%r11
  40152a:	c4 a1 7d 29 04 19    	vmovapd %ymm0,(%rcx,%r11,1)
  401530:	c5 fd 28 44 24 48    	vmovapd 0x48(%rsp),%ymm0
  401536:	41 89 c3             	mov    %eax,%r11d
  401539:	89 d8                	mov    %ebx,%eax
  40153b:	41 8d 99 e0 00 00 00 	lea    0xe0(%r9),%ebx
  401542:	c1 f8 05             	sar    $0x5,%eax
  401545:	41 c1 e3 05          	shl    $0x5,%r11d
  401549:	99                   	cltd   
  40154a:	f7 fe                	idiv   %esi
  40154c:	89 d8                	mov    %ebx,%eax
  40154e:	0f af d7             	imul   %edi,%edx
  401551:	41 01 d3             	add    %edx,%r11d
  401554:	99                   	cltd   
  401555:	41 f7 f8             	idiv   %r8d
  401558:	4d 63 db             	movslq %r11d,%r11
  40155b:	c4 a1 7d 29 04 19    	vmovapd %ymm0,(%rcx,%r11,1)
  401561:	c5 fd 28 44 24 68    	vmovapd 0x68(%rsp),%ymm0
  401567:	41 89 c3             	mov    %eax,%r11d
  40156a:	89 d8                	mov    %ebx,%eax
  40156c:	41 8d 99 00 01 00 00 	lea    0x100(%r9),%ebx
  401573:	c1 f8 05             	sar    $0x5,%eax
  401576:	41 c1 e3 05          	shl    $0x5,%r11d
  40157a:	99                   	cltd   
  40157b:	f7 fe                	idiv   %esi
  40157d:	89 d8                	mov    %ebx,%eax
  40157f:	0f af d7             	imul   %edi,%edx
  401582:	41 01 d3             	add    %edx,%r11d
  401585:	99                   	cltd   
  401586:	41 f7 f8             	idiv   %r8d
  401589:	4d 63 db             	movslq %r11d,%r11
  40158c:	c4 a1 7d 29 04 19    	vmovapd %ymm0,(%rcx,%r11,1)
  401592:	c5 fd 28 84 24 88 00 	vmovapd 0x88(%rsp),%ymm0
  401599:	00 00 
  40159b:	41 89 c3             	mov    %eax,%r11d
  40159e:	89 d8                	mov    %ebx,%eax
  4015a0:	41 8d 99 20 01 00 00 	lea    0x120(%r9),%ebx
  4015a7:	41 c1 e3 05          	shl    $0x5,%r11d
  4015ab:	c1 f8 05             	sar    $0x5,%eax
  4015ae:	99                   	cltd   
  4015af:	f7 fe                	idiv   %esi
  4015b1:	89 d8                	mov    %ebx,%eax
  4015b3:	0f af d7             	imul   %edi,%edx
  4015b6:	41 01 d3             	add    %edx,%r11d
  4015b9:	99                   	cltd   
  4015ba:	41 f7 f8             	idiv   %r8d
  4015bd:	4d 63 db             	movslq %r11d,%r11
  4015c0:	c4 a1 7d 29 04 19    	vmovapd %ymm0,(%rcx,%r11,1)
  4015c6:	c5 fd 28 84 24 a8 00 	vmovapd 0xa8(%rsp),%ymm0
  4015cd:	00 00 
  4015cf:	41 89 c3             	mov    %eax,%r11d
  4015d2:	89 d8                	mov    %ebx,%eax
  4015d4:	41 8d 99 40 01 00 00 	lea    0x140(%r9),%ebx
  4015db:	c1 f8 05             	sar    $0x5,%eax
  4015de:	41 c1 e3 05          	shl    $0x5,%r11d
  4015e2:	99                   	cltd   
  4015e3:	f7 fe                	idiv   %esi
  4015e5:	89 d8                	mov    %ebx,%eax
  4015e7:	0f af d7             	imul   %edi,%edx
  4015ea:	41 01 d3             	add    %edx,%r11d
  4015ed:	99                   	cltd   
  4015ee:	41 f7 f8             	idiv   %r8d
  4015f1:	4d 63 db             	movslq %r11d,%r11
  4015f4:	c4 a1 7d 29 04 19    	vmovapd %ymm0,(%rcx,%r11,1)
  4015fa:	c5 fd 28 84 24 c8 00 	vmovapd 0xc8(%rsp),%ymm0
  401601:	00 00 
  401603:	41 89 c3             	mov    %eax,%r11d
  401606:	89 d8                	mov    %ebx,%eax
  401608:	41 8d 99 60 01 00 00 	lea    0x160(%r9),%ebx
  40160f:	c1 f8 05             	sar    $0x5,%eax
  401612:	41 c1 e3 05          	shl    $0x5,%r11d
  401616:	99                   	cltd   
  401617:	f7 fe                	idiv   %esi
  401619:	89 d8                	mov    %ebx,%eax
  40161b:	0f af d7             	imul   %edi,%edx
  40161e:	41 01 d3             	add    %edx,%r11d
  401621:	99                   	cltd   
  401622:	41 f7 f8             	idiv   %r8d
  401625:	4d 63 db             	movslq %r11d,%r11
  401628:	c4 a1 7d 29 04 19    	vmovapd %ymm0,(%rcx,%r11,1)
  40162e:	c5 fd 28 84 24 e8 00 	vmovapd 0xe8(%rsp),%ymm0
  401635:	00 00 
  401637:	41 89 c3             	mov    %eax,%r11d
  40163a:	89 d8                	mov    %ebx,%eax
  40163c:	41 8d 99 80 01 00 00 	lea    0x180(%r9),%ebx
  401643:	c1 f8 05             	sar    $0x5,%eax
  401646:	41 c1 e3 05          	shl    $0x5,%r11d
  40164a:	99                   	cltd   
  40164b:	f7 fe                	idiv   %esi
  40164d:	89 d8                	mov    %ebx,%eax
  40164f:	0f af d7             	imul   %edi,%edx
  401652:	41 01 d3             	add    %edx,%r11d
  401655:	99                   	cltd   
  401656:	41 f7 f8             	idiv   %r8d
  401659:	4d 63 db             	movslq %r11d,%r11
  40165c:	c4 a1 7d 29 04 19    	vmovapd %ymm0,(%rcx,%r11,1)
  401662:	c5 fd 28 84 24 08 01 	vmovapd 0x108(%rsp),%ymm0
  401669:	00 00 
  40166b:	41 89 c3             	mov    %eax,%r11d
  40166e:	89 d8                	mov    %ebx,%eax
  401670:	41 8d 99 a0 01 00 00 	lea    0x1a0(%r9),%ebx
  401677:	41 c1 e3 05          	shl    $0x5,%r11d
  40167b:	c1 f8 05             	sar    $0x5,%eax
  40167e:	49 81 c2 00 02 00 00 	add    $0x200,%r10
  401685:	99                   	cltd   
  401686:	f7 fe                	idiv   %esi
  401688:	89 d8                	mov    %ebx,%eax
  40168a:	0f af d7             	imul   %edi,%edx
  40168d:	41 01 d3             	add    %edx,%r11d
  401690:	99                   	cltd   
  401691:	41 f7 f8             	idiv   %r8d
  401694:	4d 63 db             	movslq %r11d,%r11
  401697:	c4 a1 7d 29 04 19    	vmovapd %ymm0,(%rcx,%r11,1)
  40169d:	c5 fd 28 84 24 28 01 	vmovapd 0x128(%rsp),%ymm0
  4016a4:	00 00 
  4016a6:	41 89 c3             	mov    %eax,%r11d
  4016a9:	89 d8                	mov    %ebx,%eax
  4016ab:	41 8d 99 c0 01 00 00 	lea    0x1c0(%r9),%ebx
  4016b2:	c1 f8 05             	sar    $0x5,%eax
  4016b5:	41 c1 e3 05          	shl    $0x5,%r11d
  4016b9:	99                   	cltd   
  4016ba:	f7 fe                	idiv   %esi
  4016bc:	89 d8                	mov    %ebx,%eax
  4016be:	0f af d7             	imul   %edi,%edx
  4016c1:	41 01 d3             	add    %edx,%r11d
  4016c4:	99                   	cltd   
  4016c5:	41 f7 f8             	idiv   %r8d
  4016c8:	4d 63 db             	movslq %r11d,%r11
  4016cb:	c4 a1 7d 29 04 19    	vmovapd %ymm0,(%rcx,%r11,1)
  4016d1:	c5 fd 28 84 24 48 01 	vmovapd 0x148(%rsp),%ymm0
  4016d8:	00 00 
  4016da:	41 89 c3             	mov    %eax,%r11d
  4016dd:	89 d8                	mov    %ebx,%eax
  4016df:	41 8d 99 e0 01 00 00 	lea    0x1e0(%r9),%ebx
  4016e6:	c1 f8 05             	sar    $0x5,%eax
  4016e9:	41 c1 e3 05          	shl    $0x5,%r11d
  4016ed:	41 81 c1 00 02 00 00 	add    $0x200,%r9d
  4016f4:	99                   	cltd   
  4016f5:	f7 fe                	idiv   %esi
  4016f7:	89 d8                	mov    %ebx,%eax
  4016f9:	0f af d7             	imul   %edi,%edx
  4016fc:	41 01 d3             	add    %edx,%r11d
  4016ff:	99                   	cltd   
  401700:	41 f7 f8             	idiv   %r8d
  401703:	4d 63 db             	movslq %r11d,%r11
  401706:	c4 a1 7d 29 04 19    	vmovapd %ymm0,(%rcx,%r11,1)
  40170c:	c5 fd 28 84 24 68 01 	vmovapd 0x168(%rsp),%ymm0
  401713:	00 00 
  401715:	41 89 c3             	mov    %eax,%r11d
  401718:	89 d8                	mov    %ebx,%eax
  40171a:	c1 f8 05             	sar    $0x5,%eax
  40171d:	41 c1 e3 05          	shl    $0x5,%r11d
  401721:	99                   	cltd   
  401722:	f7 fe                	idiv   %esi
  401724:	0f af d7             	imul   %edi,%edx
  401727:	41 01 d3             	add    %edx,%r11d
  40172a:	45 39 e1             	cmp    %r12d,%r9d
  40172d:	4d 63 db             	movslq %r11d,%r11
  401730:	c4 a1 7d 29 04 19    	vmovapd %ymm0,(%rcx,%r11,1)
  401736:	0f 8c d4 fb ff ff    	jl     401310 <unpack+0xb0>
  40173c:	c5 f8 77             	vzeroupper 
  40173f:	48 8d 65 f0          	lea    -0x10(%rbp),%rsp
  401743:	5b                   	pop    %rbx
  401744:	41 5c                	pop    %r12
  401746:	5d                   	pop    %rbp
  401747:	c3                   	retq   
  401748:	0f 1f 84 00 00 00 00 	nopl   0x0(%rax,%rax,1)
  40174f:	00 

0000000000401750 <rows_kernel_alt_0>:
  401750:	85 f6                	test   %esi,%esi
  401752:	0f 8e 1b 03 00 00    	jle    401a73 <rows_kernel_alt_0+0x323>
  401758:	55                   	push   %rbp
  401759:	4c 63 d7             	movslq %edi,%r10
  40175c:	4c 8d 4a 01          	lea    0x1(%rdx),%r9
  401760:	4e 8d 5c 12 df       	lea    -0x21(%rdx,%r10,1),%r11
  401765:	4c 8d 41 20          	lea    0x20(%rcx),%r8
  401769:	48 89 e5             	mov    %rsp,%rbp
  40176c:	41 54                	push   %r12
  40176e:	44 8d 67 1f          	lea    0x1f(%rdi),%r12d
  401772:	53                   	push   %rbx
  401773:	48 83 e4 e0          	and    $0xffffffffffffffe0,%rsp
  401777:	48 81 ec 08 01 00 00 	sub    $0x108,%rsp
  40177e:	85 ff                	test   %edi,%edi
  401780:	44 0f 49 e7          	cmovns %edi,%r12d
  401784:	31 db                	xor    %ebx,%ebx
  401786:	41 c1 fc 05          	sar    $0x5,%r12d
  40178a:	41 8d 44 24 fd       	lea    -0x3(%r12),%eax
  40178f:	c1 e8 02             	shr    $0x2,%eax
  401792:	48 8d 78 01          	lea    0x1(%rax),%rdi
  401796:	48 c1 e7 07          	shl    $0x7,%rdi
  40179a:	66 0f 1f 44 00 00    	nopw   0x0(%rax,%rax,1)
  4017a0:	c4 c1 7d 28 41 ff    	vmovapd -0x1(%r9),%ymm0
  4017a6:	31 c9                	xor    %ecx,%ecx
  4017a8:	41 83 fc 02          	cmp    $0x2,%r12d
  4017ac:	4c 89 c2             	mov    %r8,%rdx
  4017af:	49 8d 41 1e          	lea    0x1e(%r9),%rax
  4017b3:	c5 fd 29 84 24 88 00 	vmovapd %ymm0,0x88(%rsp)
  4017ba:	00 00 
  4017bc:	c4 c1 7d 10 01       	vmovupd (%r9),%ymm0
  4017c1:	c5 fd 29 84 24 a8 00 	vmovapd %ymm0,0xa8(%rsp)
  4017c8:	00 00 
  4017ca:	c5 fd 6f 8c 24 88 00 	vmovdqa 0x88(%rsp),%ymm1
  4017d1:	00 00 
  4017d3:	c5 fd 6f 84 24 88 00 	vmovdqa 0x88(%rsp),%ymm0
  4017da:	00 00 
  4017dc:	c4 e3 7d 46 c1 08    	vperm2i128 $0x8,%ymm1,%ymm0,%ymm0
  4017e2:	c5 fd 29 84 24 c8 00 	vmovapd %ymm0,0xc8(%rsp)
  4017e9:	00 00 
  4017eb:	c5 fd 6f 84 24 a8 00 	vmovdqa 0xa8(%rsp),%ymm0
  4017f2:	00 00 
  4017f4:	c5 fd 6f 8c 24 88 00 	vmovdqa 0x88(%rsp),%ymm1
  4017fb:	00 00 
  4017fd:	c5 f5 db c0          	vpand  %ymm0,%ymm1,%ymm0
  401801:	c5 fd 29 84 24 e8 00 	vmovapd %ymm0,0xe8(%rsp)
  401808:	00 00 
  40180a:	c5 fd 6f 8c 24 c8 00 	vmovdqa 0xc8(%rsp),%ymm1
  401811:	00 00 
  401813:	c5 fd 6f 84 24 88 00 	vmovdqa 0x88(%rsp),%ymm0
  40181a:	00 00 
  40181c:	c4 e3 7d 0f c1 0f    	vpalignr $0xf,%ymm1,%ymm0,%ymm0
  401822:	c5 fd 29 84 24 c8 00 	vmovapd %ymm0,0xc8(%rsp)
  401829:	00 00 
  40182b:	c5 fd 6f 84 24 e8 00 	vmovdqa 0xe8(%rsp),%ymm0
  401832:	00 00 
  401834:	c5 fd 6f 8c 24 c8 00 	vmovdqa 0xc8(%rsp),%ymm1
  40183b:	00 00 
  40183d:	c5 f5 db c0          	vpand  %ymm0,%ymm1,%ymm0
  401841:	c5 fd 29 84 24 c8 00 	vmovapd %ymm0,0xc8(%rsp)
  401848:	00 00 
  40184a:	c5 fd 28 84 24 c8 00 	vmovapd 0xc8(%rsp),%ymm0
  401851:	00 00 
  401853:	c4 c1 7d 29 40 e0    	vmovapd %ymm0,-0x20(%r8)
  401859:	0f 8e 75 01 00 00    	jle    4019d4 <rows_kernel_alt_0+0x284>
  40185f:	90                   	nop
  401860:	c5 fd 10 00          	vmovupd (%rax),%ymm0
  401864:	48 83 e9 80          	sub    $0xffffffffffffff80,%rcx
  401868:	48 83 e8 80          	sub    $0xffffffffffffff80,%rax
  40186c:	48 83 ea 80          	sub    $0xffffffffffffff80,%rdx
  401870:	c5 fd 29 44 24 88    	vmovapd %ymm0,-0x78(%rsp)
  401876:	c5 fd 28 40 81       	vmovapd -0x7f(%rax),%ymm0
  40187b:	c5 fd 29 44 24 a8    	vmovapd %ymm0,-0x58(%rsp)
  401881:	c5 fd 6f 44 24 a8    	vmovdqa -0x58(%rsp),%ymm0
  401887:	c5 fd 6f 4c 24 88    	vmovdqa -0x78(%rsp),%ymm1
  40188d:	c5 f5 db c0          	vpand  %ymm0,%ymm1,%ymm0
  401891:	c5 fd 29 44 24 88    	vmovapd %ymm0,-0x78(%rsp)
  401897:	c5 fd 10 40 82       	vmovupd -0x7e(%rax),%ymm0
  40189c:	c5 fd 29 44 24 a8    	vmovapd %ymm0,-0x58(%rsp)
  4018a2:	c5 fd 6f 44 24 a8    	vmovdqa -0x58(%rsp),%ymm0
  4018a8:	c5 fd 6f 4c 24 88    	vmovdqa -0x78(%rsp),%ymm1
  4018ae:	c5 f5 db c0          	vpand  %ymm0,%ymm1,%ymm0
  4018b2:	c5 fd 29 44 24 88    	vmovapd %ymm0,-0x78(%rsp)
  4018b8:	c5 fd 28 44 24 88    	vmovapd -0x78(%rsp),%ymm0
  4018be:	c5 fd 29 42 80       	vmovapd %ymm0,-0x80(%rdx)
  4018c3:	c5 fd 10 40 a0       	vmovupd -0x60(%rax),%ymm0
  4018c8:	c5 fd 29 44 24 c8    	vmovapd %ymm0,-0x38(%rsp)
  4018ce:	c5 fd 28 40 a1       	vmovapd -0x5f(%rax),%ymm0
  4018d3:	c5 fd 29 44 24 e8    	vmovapd %ymm0,-0x18(%rsp)
  4018d9:	c5 fd 6f 44 24 e8    	vmovdqa -0x18(%rsp),%ymm0
  4018df:	c5 fd 6f 4c 24 c8    	vmovdqa -0x38(%rsp),%ymm1
  4018e5:	c5 f5 db c0          	vpand  %ymm0,%ymm1,%ymm0
  4018e9:	c5 fd 29 44 24 c8    	vmovapd %ymm0,-0x38(%rsp)
  4018ef:	c5 fd 10 40 a2       	vmovupd -0x5e(%rax),%ymm0
  4018f4:	c5 fd 29 44 24 e8    	vmovapd %ymm0,-0x18(%rsp)
  4018fa:	c5 fd 6f 44 24 e8    	vmovdqa -0x18(%rsp),%ymm0
  401900:	c5 fd 6f 4c 24 c8    	vmovdqa -0x38(%rsp),%ymm1
  401906:	c5 f5 db c0          	vpand  %ymm0,%ymm1,%ymm0
  40190a:	c5 fd 29 44 24 c8    	vmovapd %ymm0,-0x38(%rsp)
  401910:	c5 fd 28 44 24 c8    	vmovapd -0x38(%rsp),%ymm0
  401916:	c5 fd 29 42 a0       	vmovapd %ymm0,-0x60(%rdx)
  40191b:	c5 fd 10 40 c0       	vmovupd -0x40(%rax),%ymm0
  401920:	c5 fd 29 44 24 08    	vmovapd %ymm0,0x8(%rsp)
  401926:	c5 fd 28 40 c1       	vmovapd -0x3f(%rax),%ymm0
  40192b:	c5 fd 29 44 24 28    	vmovapd %ymm0,0x28(%rsp)
  401931:	c5 fd 6f 44 24 28    	vmovdqa 0x28(%rsp),%ymm0
  401937:	c5 fd 6f 4c 24 08    	vmovdqa 0x8(%rsp),%ymm1
  40193d:	c5 f5 db c0          	vpand  %ymm0,%ymm1,%ymm0
  401941:	c5 fd 29 44 24 08    	vmovapd %ymm0,0x8(%rsp)
  401947:	c5 fd 10 40 c2       	vmovupd -0x3e(%rax),%ymm0
  40194c:	c5 fd 29 44 24 28    	vmovapd %ymm0,0x28(%rsp)
  401952:	c5 fd 6f 44 24 28    	vmovdqa 0x28(%rsp),%ymm0
  401958:	c5 fd 6f 4c 24 08    	vmovdqa 0x8(%rsp),%ymm1
  40195e:	c5 f5 db c0          	vpand  %ymm0,%ymm1,%ymm0
  401962:	c5 fd 29 44 24 08    	vmovapd %ymm0,0x8(%rsp)
  401968:	c5 fd 28 44 24 08    	vmovapd 0x8(%rsp),%ymm0
  40196e:	c5 fd 29 42 c0       	vmovapd %ymm0,-0x40(%rdx)
  401973:	c5 fd 10 40 e0       	vmovupd -0x20(%rax),%ymm0
  401978:	c5 fd 29 44 24 48    	vmovapd %ymm0,0x48(%rsp)
  40197e:	c5 fd 28 40 e1       	vmovapd -0x1f(%rax),%ymm0
  401983:	c5 fd 29 44 24 68    	vmovapd %ymm0,0x68(%rsp)
  401989:	c5 fd 6f 44 24 68    	vmovdqa 0x68(%rsp),%ymm0
  40198f:	c5 fd 6f 4c 24 48    	vmovdqa 0x48(%rsp),%ymm1
  401995:	c5 f5 db c0          	vpand  %ymm0,%ymm1,%ymm0
  401999:	c5 fd 29 44 24 48    	vmovapd %ymm0,0x48(%rsp)
  40199f:	c5 fd 10 40 e2       	vmovupd -0x1e(%rax),%ymm0
  4019a4:	c5 fd 29 44 24 68    	vmovapd %ymm0,0x68(%rsp)
  4019aa:	c5 fd 6f 44 24 68    	vmovdqa 0x68(%rsp),%ymm0
  4019b0:	c5 fd 6f 4c 24 48    	vmovdqa 0x48(%rsp),%ymm1
  4019b6:	c5 f5 db c0          	vpand  %ymm0,%ymm1,%ymm0
  4019ba:	c5 fd 29 44 24 48    	vmovapd %ymm0,0x48(%rsp)
  4019c0:	c5 fd 28 44 24 48    	vmovapd 0x48(%rsp),%ymm0
  4019c6:	c5 fd 29 42 e0       	vmovapd %ymm0,-0x20(%rdx)
  4019cb:	48 39 f9             	cmp    %rdi,%rcx
  4019ce:	0f 85 8c fe ff ff    	jne    401860 <rows_kernel_alt_0+0x110>
  4019d4:	c4 c1 7d 28 43 01    	vmovapd 0x1(%r11),%ymm0
  4019da:	83 c3 01             	add    $0x1,%ebx
  4019dd:	4d 01 d1             	add    %r10,%r9
  4019e0:	c5 fd 29 44 24 88    	vmovapd %ymm0,-0x78(%rsp)
  4019e6:	c4 c1 7d 10 03       	vmovupd (%r11),%ymm0
  4019eb:	4d 01 d3             	add    %r10,%r11
  4019ee:	c5 fd 29 44 24 a8    	vmovapd %ymm0,-0x58(%rsp)
  4019f4:	c5 fd 6f 4c 24 88    	vmovdqa -0x78(%rsp),%ymm1
  4019fa:	c5 fd 6f 44 24 88    	vmovdqa -0x78(%rsp),%ymm0
  401a00:	c4 e3 7d 46 c1 81    	vperm2i128 $0x81,%ymm1,%ymm0,%ymm0
  401a06:	c5 fd 29 44 24 c8    	vmovapd %ymm0,-0x38(%rsp)
  401a0c:	c5 fd 6f 44 24 a8    	vmovdqa -0x58(%rsp),%ymm0
  401a12:	c5 fd 6f 4c 24 88    	vmovdqa -0x78(%rsp),%ymm1
  401a18:	c5 f5 db c0          	vpand  %ymm0,%ymm1,%ymm0
  401a1c:	c5 fd 29 44 24 e8    	vmovapd %ymm0,-0x18(%rsp)
  401a22:	c5 fd 6f 4c 24 88    	vmovdqa -0x78(%rsp),%ymm1
  401a28:	c5 fd 6f 44 24 c8    	vmovdqa -0x38(%rsp),%ymm0
  401a2e:	c4 e3 7d 0f c1 01    	vpalignr $0x1,%ymm1,%ymm0,%ymm0
  401a34:	c5 fd 29 44 24 c8    	vmovapd %ymm0,-0x38(%rsp)
  401a3a:	c5 fd 6f 44 24 e8    	vmovdqa -0x18(%rsp),%ymm0
  401a40:	c5 fd 6f 4c 24 c8    	vmovdqa -0x38(%rsp),%ymm1
  401a46:	c5 f5 db c0          	vpand  %ymm0,%ymm1,%ymm0
  401a4a:	c5 fd 29 44 24 c8    	vmovapd %ymm0,-0x38(%rsp)
  401a50:	c5 fd 28 44 24 c8    	vmovapd -0x38(%rsp),%ymm0
  401a56:	c4 81 7d 29 44 10 c0 	vmovapd %ymm0,-0x40(%r8,%r10,1)
  401a5d:	4d 01 d0             	add    %r10,%r8
  401a60:	39 f3                	cmp    %esi,%ebx
  401a62:	0f 85 38 fd ff ff    	jne    4017a0 <rows_kernel_alt_0+0x50>
  401a68:	c5 f8 77             	vzeroupper 
  401a6b:	48 8d 65 f0          	lea    -0x10(%rbp),%rsp
  401a6f:	5b                   	pop    %rbx
  401a70:	41 5c                	pop    %r12
  401a72:	5d                   	pop    %rbp
  401a73:	f3 c3                	repz retq 
  401a75:	90                   	nop
  401a76:	66 2e 0f 1f 84 00 00 	nopw   %cs:0x0(%rax,%rax,1)
  401a7d:	00 00 00 

0000000000401a80 <rows_kernel_alt_1>:
  401a80:	55                   	push   %rbp
  401a81:	48 89 e5             	mov    %rsp,%rbp
  401a84:	41 57                	push   %r15
  401a86:	41 56                	push   %r14
  401a88:	41 55                	push   %r13
  401a8a:	41 54                	push   %r12
  401a8c:	53                   	push   %rbx
  401a8d:	48 83 e4 e0          	and    $0xffffffffffffffe0,%rsp
  401a91:	48 83 c4 08          	add    $0x8,%rsp
  401a95:	85 f6                	test   %esi,%esi
  401a97:	89 74 24 f0          	mov    %esi,-0x10(%rsp)
  401a9b:	0f 8e 08 01 00 00    	jle    401ba9 <rows_kernel_alt_1+0x129>
  401aa1:	8d 47 1f             	lea    0x1f(%rdi),%eax
  401aa4:	85 ff                	test   %edi,%edi
  401aa6:	4c 8d 79 20          	lea    0x20(%rcx),%r15
  401aaa:	49 89 d5             	mov    %rdx,%r13
  401aad:	0f 49 c7             	cmovns %edi,%eax
  401ab0:	45 31 f6             	xor    %r14d,%r14d
  401ab3:	89 44 24 f4          	mov    %eax,-0xc(%rsp)
  401ab7:	48 63 c7             	movslq %edi,%rax
  401aba:	c1 7c 24 f4 05       	sarl   $0x5,-0xc(%rsp)
  401abf:	48 89 44 24 e8       	mov    %rax,-0x18(%rsp)
  401ac4:	8b 44 24 f4          	mov    -0xc(%rsp),%eax
  401ac8:	83 e8 03             	sub    $0x3,%eax
  401acb:	c1 e8 02             	shr    $0x2,%eax
  401ace:	4c 8d 60 01          	lea    0x1(%rax),%r12
  401ad2:	49 c1 e4 07          	shl    $0x7,%r12
  401ad6:	66 2e 0f 1f 84 00 00 	nopw   %cs:0x0(%rax,%rax,1)
  401add:	00 00 00 
  401ae0:	83 7c 24 f4 02       	cmpl   $0x2,-0xc(%rsp)
  401ae5:	0f 8e a1 00 00 00    	jle    401b8c <rows_kernel_alt_1+0x10c>
  401aeb:	49 8d 55 1f          	lea    0x1f(%r13),%rdx
  401aef:	49 8d 5d 21          	lea    0x21(%r13),%rbx
  401af3:	4d 8d 5d 3f          	lea    0x3f(%r13),%r11
  401af7:	4d 8d 55 41          	lea    0x41(%r13),%r10
  401afb:	4d 8d 4d 5f          	lea    0x5f(%r13),%r9
  401aff:	4d 8d 45 61          	lea    0x61(%r13),%r8
  401b03:	49 8d 7d 7f          	lea    0x7f(%r13),%rdi
  401b07:	49 8d b5 81 00 00 00 	lea    0x81(%r13),%rsi
  401b0e:	4c 89 f9             	mov    %r15,%rcx
  401b11:	31 c0                	xor    %eax,%eax
  401b13:	0f 1f 44 00 00       	nopl   0x0(%rax,%rax,1)
  401b18:	c5 fd 10 02          	vmovupd (%rdx),%ymm0
  401b1c:	48 83 e9 80          	sub    $0xffffffffffffff80,%rcx
  401b20:	48 83 ea 80          	sub    $0xffffffffffffff80,%rdx
  401b24:	c5 fd 10 0c 03       	vmovupd (%rbx,%rax,1),%ymm1
  401b29:	c5 fd 54 42 81       	vandpd -0x7f(%rdx),%ymm0,%ymm0
  401b2e:	c5 f5 db c0          	vpand  %ymm0,%ymm1,%ymm0
  401b32:	c5 fd 29 41 80       	vmovapd %ymm0,-0x80(%rcx)
  401b37:	c4 c1 7d 10 04 03    	vmovupd (%r11,%rax,1),%ymm0
  401b3d:	c4 c1 7d 10 0c 02    	vmovupd (%r10,%rax,1),%ymm1
  401b43:	c5 fd 54 42 a1       	vandpd -0x5f(%rdx),%ymm0,%ymm0
  401b48:	c5 f5 db c0          	vpand  %ymm0,%ymm1,%ymm0
  401b4c:	c5 fd 29 41 a0       	vmovapd %ymm0,-0x60(%rcx)
  401b51:	c4 c1 7d 10 04 01    	vmovupd (%r9,%rax,1),%ymm0
  401b57:	c4 c1 7d 10 0c 00    	vmovupd (%r8,%rax,1),%ymm1
  401b5d:	c5 fd 54 42 c1       	vandpd -0x3f(%rdx),%ymm0,%ymm0
  401b62:	c5 f5 db c0          	vpand  %ymm0,%ymm1,%ymm0
  401b66:	c5 fd 29 41 c0       	vmovapd %ymm0,-0x40(%rcx)
  401b6b:	c5 fd 10 04 07       	vmovupd (%rdi,%rax,1),%ymm0
  401b70:	c5 fd 10 0c 06       	vmovupd (%rsi,%rax,1),%ymm1
  401b75:	48 83 e8 80          	sub    $0xffffffffffffff80,%rax
  401b79:	c5 fd 54 42 e1       	vandpd -0x1f(%rdx),%ymm0,%ymm0
  401b7e:	c5 f5 db c0          	vpand  %ymm0,%ymm1,%ymm0
  401b82:	c5 fd 29 41 e0       	vmovapd %ymm0,-0x20(%rcx)
  401b87:	4c 39 e0             	cmp    %r12,%rax
  401b8a:	75 8c                	jne    401b18 <rows_kernel_alt_1+0x98>
  401b8c:	48 8b 44 24 e8       	mov    -0x18(%rsp),%rax
  401b91:	41 83 c6 01          	add    $0x1,%r14d
  401b95:	49 01 c5             	add    %rax,%r13
  401b98:	49 01 c7             	add    %rax,%r15
  401b9b:	44 3b 74 24 f0       	cmp    -0x10(%rsp),%r14d
  401ba0:	0f 85 3a ff ff ff    	jne    401ae0 <rows_kernel_alt_1+0x60>
  401ba6:	c5 f8 77             	vzeroupper 
  401ba9:	48 8d 65 d8          	lea    -0x28(%rbp),%rsp
  401bad:	5b                   	pop    %rbx
  401bae:	41 5c                	pop    %r12
  401bb0:	41 5d                	pop    %r13
  401bb2:	41 5e                	pop    %r14
  401bb4:	41 5f                	pop    %r15
  401bb6:	5d                   	pop    %rbp
  401bb7:	c3                   	retq   
  401bb8:	0f 1f 84 00 00 00 00 	nopl   0x0(%rax,%rax,1)
  401bbf:	00 

0000000000401bc0 <rows_kernel_alt_2>:
  401bc0:	55                   	push   %rbp
  401bc1:	48 89 e5             	mov    %rsp,%rbp
  401bc4:	41 57                	push   %r15
  401bc6:	41 56                	push   %r14
  401bc8:	41 55                	push   %r13
  401bca:	41 54                	push   %r12
  401bcc:	53                   	push   %rbx
  401bcd:	48 83 e4 e0          	and    $0xffffffffffffffe0,%rsp
  401bd1:	48 83 c4 08          	add    $0x8,%rsp
  401bd5:	85 f6                	test   %esi,%esi
  401bd7:	89 74 24 e4          	mov    %esi,-0x1c(%rsp)
  401bdb:	0f 8e 62 01 00 00    	jle    401d43 <rows_kernel_alt_2+0x183>
  401be1:	8d 47 1f             	lea    0x1f(%rdi),%eax
  401be4:	85 ff                	test   %edi,%edi
  401be6:	4c 8d 71 20          	lea    0x20(%rcx),%r14
  401bea:	c7 44 24 f4 00 00 00 	movl   $0x0,-0xc(%rsp)
  401bf1:	00 
  401bf2:	0f 49 c7             	cmovns %edi,%eax
  401bf5:	89 44 24 f0          	mov    %eax,-0x10(%rsp)
  401bf9:	48 63 c7             	movslq %edi,%rax
  401bfc:	c1 7c 24 f0 05       	sarl   $0x5,-0x10(%rsp)
  401c01:	48 89 44 24 e8       	mov    %rax,-0x18(%rsp)
  401c06:	4c 8d 7c 10 df       	lea    -0x21(%rax,%rdx,1),%r15
  401c0b:	8b 44 24 f0          	mov    -0x10(%rsp),%eax
  401c0f:	83 e8 03             	sub    $0x3,%eax
  401c12:	c1 e8 02             	shr    $0x2,%eax
  401c15:	4c 8d 68 01          	lea    0x1(%rax),%r13
  401c19:	49 c1 e5 07          	shl    $0x7,%r13
  401c1d:	0f 1f 00             	nopl   (%rax)
  401c20:	c5 fd 28 0a          	vmovapd (%rdx),%ymm1
  401c24:	83 7c 24 f0 02       	cmpl   $0x2,-0x10(%rsp)
  401c29:	c5 fd 10 5a 01       	vmovupd 0x1(%rdx),%ymm3
  401c2e:	c5 fd 6f c1          	vmovdqa %ymm1,%ymm0
  401c32:	c4 e3 75 46 d1 08    	vperm2i128 $0x8,%ymm1,%ymm1,%ymm2
  401c38:	c5 f5 db cb          	vpand  %ymm3,%ymm1,%ymm1
  401c3c:	c4 e3 7d 0f c2 0f    	vpalignr $0xf,%ymm2,%ymm0,%ymm0
  401c42:	c5 fd db c1          	vpand  %ymm1,%ymm0,%ymm0
  401c46:	c4 c1 7d 29 46 e0    	vmovapd %ymm0,-0x20(%r14)
  401c4c:	0f 8e a3 00 00 00    	jle    401cf5 <rows_kernel_alt_2+0x135>
  401c52:	48 8d 4a 1f          	lea    0x1f(%rdx),%rcx
  401c56:	4c 8d 62 21          	lea    0x21(%rdx),%r12
  401c5a:	48 8d 5a 3f          	lea    0x3f(%rdx),%rbx
  401c5e:	4c 8d 5a 41          	lea    0x41(%rdx),%r11
  401c62:	4c 8d 52 5f          	lea    0x5f(%rdx),%r10
  401c66:	4c 8d 4a 61          	lea    0x61(%rdx),%r9
  401c6a:	4c 8d 42 7f          	lea    0x7f(%rdx),%r8
  401c6e:	48 8d ba 81 00 00 00 	lea    0x81(%rdx),%rdi
  401c75:	4c 89 f6             	mov    %r14,%rsi
  401c78:	31 c0                	xor    %eax,%eax
  401c7a:	66 0f 1f 44 00 00    	nopw   0x0(%rax,%rax,1)
  401c80:	c5 fd 10 01          	vmovupd (%rcx),%ymm0
  401c84:	48 83 ee 80          	sub    $0xffffffffffffff80,%rsi
  401c88:	48 83 e9 80          	sub    $0xffffffffffffff80,%rcx
  401c8c:	c4 c1 7d 10 0c 04    	vmovupd (%r12,%rax,1),%ymm1
  401c92:	c5 fd db 41 81       	vpand  -0x7f(%rcx),%ymm0,%ymm0
  401c97:	c5 fd db c1          	vpand  %ymm1,%ymm0,%ymm0
  401c9b:	c5 fd 29 46 80       	vmovapd %ymm0,-0x80(%rsi)
  401ca0:	c5 fd 10 04 03       	vmovupd (%rbx,%rax,1),%ymm0
  401ca5:	c4 c1 7d 10 0c 03    	vmovupd (%r11,%rax,1),%ymm1
  401cab:	c5 fd db 41 a1       	vpand  -0x5f(%rcx),%ymm0,%ymm0
  401cb0:	c5 fd db c1          	vpand  %ymm1,%ymm0,%ymm0
  401cb4:	c5 fd 29 46 a0       	vmovapd %ymm0,-0x60(%rsi)
  401cb9:	c4 c1 7d 10 04 02    	vmovupd (%r10,%rax,1),%ymm0
  401cbf:	c4 c1 7d 10 0c 01    	vmovupd (%r9,%rax,1),%ymm1
  401cc5:	c5 fd db 41 c1       	vpand  -0x3f(%rcx),%ymm0,%ymm0
  401cca:	c5 fd db c1          	vpand  %ymm1,%ymm0,%ymm0
  401cce:	c5 fd 29 46 c0       	vmovapd %ymm0,-0x40(%rsi)
  401cd3:	c4 c1 7d 10 04 00    	vmovupd (%r8,%rax,1),%ymm0
  401cd9:	c5 fd 10 0c 07       	vmovupd (%rdi,%rax,1),%ymm1
  401cde:	48 83 e8 80          	sub    $0xffffffffffffff80,%rax
  401ce2:	c5 fd db 41 e1       	vpand  -0x1f(%rcx),%ymm0,%ymm0
  401ce7:	c5 fd db c1          	vpand  %ymm1,%ymm0,%ymm0
  401ceb:	c5 fd 29 46 e0       	vmovapd %ymm0,-0x20(%rsi)
  401cf0:	4c 39 e8             	cmp    %r13,%rax
  401cf3:	75 8b                	jne    401c80 <rows_kernel_alt_2+0xc0>
  401cf5:	83 44 24 f4 01       	addl   $0x1,-0xc(%rsp)
  401cfa:	c4 c1 7d 28 4f 01    	vmovapd 0x1(%r15),%ymm1
  401d00:	48 8b 44 24 e8       	mov    -0x18(%rsp),%rax
  401d05:	c5 fd 6f c1          	vmovdqa %ymm1,%ymm0
  401d09:	c4 e3 75 46 d1 81    	vperm2i128 $0x81,%ymm1,%ymm1,%ymm2
  401d0f:	c4 c1 7d 10 1f       	vmovupd (%r15),%ymm3
  401d14:	48 01 c2             	add    %rax,%rdx
  401d17:	49 01 c7             	add    %rax,%r15
  401d1a:	c4 e3 6d 0f c0 01    	vpalignr $0x1,%ymm0,%ymm2,%ymm0
  401d20:	c5 f5 db cb          	vpand  %ymm3,%ymm1,%ymm1
  401d24:	c5 fd db c1          	vpand  %ymm1,%ymm0,%ymm0
  401d28:	c4 c1 7d 29 44 06 c0 	vmovapd %ymm0,-0x40(%r14,%rax,1)
  401d2f:	49 01 c6             	add    %rax,%r14
  401d32:	8b 44 24 e4          	mov    -0x1c(%rsp),%eax
  401d36:	39 44 24 f4          	cmp    %eax,-0xc(%rsp)
  401d3a:	0f 85 e0 fe ff ff    	jne    401c20 <rows_kernel_alt_2+0x60>
  401d40:	c5 f8 77             	vzeroupper 
  401d43:	48 8d 65 d8          	lea    -0x28(%rbp),%rsp
  401d47:	5b                   	pop    %rbx
  401d48:	41 5c                	pop    %r12
  401d4a:	41 5d                	pop    %r13
  401d4c:	41 5e                	pop    %r14
  401d4e:	41 5f                	pop    %r15
  401d50:	5d                   	pop    %rbp
  401d51:	c3                   	retq   
  401d52:	0f 1f 40 00          	nopl   0x0(%rax)
  401d56:	66 2e 0f 1f 84 00 00 	nopw   %cs:0x0(%rax,%rax,1)
  401d5d:	00 00 00 

0000000000401d60 <rows_kernel_alt_2_2>:
  401d60:	55                   	push   %rbp
  401d61:	48 89 e5             	mov    %rsp,%rbp
  401d64:	41 57                	push   %r15
  401d66:	41 56                	push   %r14
  401d68:	41 55                	push   %r13
  401d6a:	41 54                	push   %r12
  401d6c:	53                   	push   %rbx
  401d6d:	48 83 e4 e0          	and    $0xffffffffffffffe0,%rsp
  401d71:	48 83 c4 08          	add    $0x8,%rsp
  401d75:	85 f6                	test   %esi,%esi
  401d77:	89 74 24 e4          	mov    %esi,-0x1c(%rsp)
  401d7b:	0f 8e 51 01 00 00    	jle    401ed2 <rows_kernel_alt_2_2+0x172>
  401d81:	8d 47 1f             	lea    0x1f(%rdi),%eax
  401d84:	85 ff                	test   %edi,%edi
  401d86:	4c 8d 71 20          	lea    0x20(%rcx),%r14
  401d8a:	c7 44 24 f4 00 00 00 	movl   $0x0,-0xc(%rsp)
  401d91:	00 
  401d92:	0f 49 c7             	cmovns %edi,%eax
  401d95:	89 44 24 f0          	mov    %eax,-0x10(%rsp)
  401d99:	48 63 c7             	movslq %edi,%rax
  401d9c:	c1 7c 24 f0 05       	sarl   $0x5,-0x10(%rsp)
  401da1:	48 89 44 24 e8       	mov    %rax,-0x18(%rsp)
  401da6:	4c 8d 7c 10 df       	lea    -0x21(%rax,%rdx,1),%r15
  401dab:	8b 44 24 f0          	mov    -0x10(%rsp),%eax
  401daf:	83 e8 03             	sub    $0x3,%eax
  401db2:	c1 e8 02             	shr    $0x2,%eax
  401db5:	4c 8d 68 01          	lea    0x1(%rax),%r13
  401db9:	49 c1 e5 07          	shl    $0x7,%r13
  401dbd:	0f 1f 00             	nopl   (%rax)
  401dc0:	c5 fd 28 0a          	vmovapd (%rdx),%ymm1
  401dc4:	83 7c 24 f0 02       	cmpl   $0x2,-0x10(%rsp)
  401dc9:	c5 fd 10 5a 01       	vmovupd 0x1(%rdx),%ymm3
  401dce:	c5 fd 6f c1          	vmovdqa %ymm1,%ymm0
  401dd2:	c4 e3 75 46 d1 08    	vperm2i128 $0x8,%ymm1,%ymm1,%ymm2
  401dd8:	c5 f5 db cb          	vpand  %ymm3,%ymm1,%ymm1
  401ddc:	c4 e3 7d 0f c2 0f    	vpalignr $0xf,%ymm2,%ymm0,%ymm0
  401de2:	c5 fd db c1          	vpand  %ymm1,%ymm0,%ymm0
  401de6:	c4 c1 7d 29 46 e0    	vmovapd %ymm0,-0x20(%r14)
  401dec:	0f 8e a3 00 00 00    	jle    401e95 <rows_kernel_alt_2_2+0x135>
  401df2:	48 8d 4a 1f          	lea    0x1f(%rdx),%rcx
  401df6:	4c 8d 62 21          	lea    0x21(%rdx),%r12
  401dfa:	48 8d 5a 3f          	lea    0x3f(%rdx),%rbx
  401dfe:	4c 8d 5a 41          	lea    0x41(%rdx),%r11
  401e02:	4c 8d 52 5f          	lea    0x5f(%rdx),%r10
  401e06:	4c 8d 4a 61          	lea    0x61(%rdx),%r9
  401e0a:	4c 8d 42 7f          	lea    0x7f(%rdx),%r8
  401e0e:	48 8d ba 81 00 00 00 	lea    0x81(%rdx),%rdi
  401e15:	4c 89 f6             	mov    %r14,%rsi
  401e18:	31 c0                	xor    %eax,%eax
  401e1a:	66 0f 1f 44 00 00    	nopw   0x0(%rax,%rax,1)
  401e20:	c5 fd 10 01          	vmovupd (%rcx),%ymm0
  401e24:	48 83 ee 80          	sub    $0xffffffffffffff80,%rsi
  401e28:	48 83 e9 80          	sub    $0xffffffffffffff80,%rcx
  401e2c:	c4 c1 7d 10 0c 04    	vmovupd (%r12,%rax,1),%ymm1
  401e32:	c5 fd db 41 81       	vpand  -0x7f(%rcx),%ymm0,%ymm0
  401e37:	c5 fd db c1          	vpand  %ymm1,%ymm0,%ymm0
  401e3b:	c5 fd 29 46 80       	vmovapd %ymm0,-0x80(%rsi)
  401e40:	c5 fd 10 04 03       	vmovupd (%rbx,%rax,1),%ymm0
  401e45:	c4 c1 7d 10 0c 03    	vmovupd (%r11,%rax,1),%ymm1
  401e4b:	c5 fd db 41 a1       	vpand  -0x5f(%rcx),%ymm0,%ymm0
  401e50:	c5 fd db c1          	vpand  %ymm1,%ymm0,%ymm0
  401e54:	c5 fd 29 46 a0       	vmovapd %ymm0,-0x60(%rsi)
  401e59:	c4 c1 7d 10 04 02    	vmovupd (%r10,%rax,1),%ymm0
  401e5f:	c4 c1 7d 10 0c 01    	vmovupd (%r9,%rax,1),%ymm1
  401e65:	c5 fd db 41 c1       	vpand  -0x3f(%rcx),%ymm0,%ymm0
  401e6a:	c5 fd db c1          	vpand  %ymm1,%ymm0,%ymm0
  401e6e:	c5 fd 29 46 c0       	vmovapd %ymm0,-0x40(%rsi)
  401e73:	c4 c1 7d 10 04 00    	vmovupd (%r8,%rax,1),%ymm0
  401e79:	c5 fd 10 0c 07       	vmovupd (%rdi,%rax,1),%ymm1
  401e7e:	48 83 e8 80          	sub    $0xffffffffffffff80,%rax
  401e82:	c5 fd db 41 e1       	vpand  -0x1f(%rcx),%ymm0,%ymm0
  401e87:	c5 fd db c1          	vpand  %ymm1,%ymm0,%ymm0
  401e8b:	c5 fd 29 46 e0       	vmovapd %ymm0,-0x20(%rsi)
  401e90:	4c 39 e8             	cmp    %r13,%rax
  401e93:	75 8b                	jne    401e20 <rows_kernel_alt_2_2+0xc0>
  401e95:	c4 c1 7d 6f 47 01    	vmovdqa 0x1(%r15),%ymm0
  401e9b:	48 8b 44 24 e8       	mov    -0x18(%rsp),%rax
  401ea0:	83 44 24 f4 01       	addl   $0x1,-0xc(%rsp)
  401ea5:	c4 e3 7d 46 c8 81    	vperm2i128 $0x81,%ymm0,%ymm0,%ymm1
  401eab:	48 01 c2             	add    %rax,%rdx
  401eae:	49 01 c7             	add    %rax,%r15
  401eb1:	c4 e3 75 0f c0 09    	vpalignr $0x9,%ymm0,%ymm1,%ymm0
  401eb7:	c4 c1 7d 29 44 06 c0 	vmovapd %ymm0,-0x40(%r14,%rax,1)
  401ebe:	49 01 c6             	add    %rax,%r14
  401ec1:	8b 44 24 e4          	mov    -0x1c(%rsp),%eax
  401ec5:	39 44 24 f4          	cmp    %eax,-0xc(%rsp)
  401ec9:	0f 85 f1 fe ff ff    	jne    401dc0 <rows_kernel_alt_2_2+0x60>
  401ecf:	c5 f8 77             	vzeroupper 
  401ed2:	48 8d 65 d8          	lea    -0x28(%rbp),%rsp
  401ed6:	5b                   	pop    %rbx
  401ed7:	41 5c                	pop    %r12
  401ed9:	41 5d                	pop    %r13
  401edb:	41 5e                	pop    %r14
  401edd:	41 5f                	pop    %r15
  401edf:	5d                   	pop    %rbp
  401ee0:	c3                   	retq   
  401ee1:	0f 1f 44 00 00       	nopl   0x0(%rax,%rax,1)
  401ee6:	66 2e 0f 1f 84 00 00 	nopw   %cs:0x0(%rax,%rax,1)
  401eed:	00 00 00 

0000000000401ef0 <check>:
  401ef0:	31 d2                	xor    %edx,%edx
  401ef2:	b8 01 00 00 00       	mov    $0x1,%eax
  401ef7:	66 0f 1f 84 00 00 00 	nopw   0x0(%rax,%rax,1)
  401efe:	00 00 
  401f00:	0f b6 0c 16          	movzbl (%rsi,%rdx,1),%ecx
  401f04:	38 0c 17             	cmp    %cl,(%rdi,%rdx,1)
  401f07:	0f 94 c1             	sete   %cl
  401f0a:	48 83 c2 01          	add    $0x1,%rdx
  401f0e:	21 c8                	and    %ecx,%eax
  401f10:	48 81 fa 00 14 00 00 	cmp    $0x1400,%rdx
  401f17:	75 e7                	jne    401f00 <check+0x10>
  401f19:	f3 c3                	repz retq 
  401f1b:	0f 1f 44 00 00       	nopl   0x0(%rax,%rax,1)

0000000000401f20 <__libc_csu_init>:
  401f20:	41 57                	push   %r15
  401f22:	41 89 ff             	mov    %edi,%r15d
  401f25:	41 56                	push   %r14
  401f27:	49 89 f6             	mov    %rsi,%r14
  401f2a:	41 55                	push   %r13
  401f2c:	49 89 d5             	mov    %rdx,%r13
  401f2f:	41 54                	push   %r12
  401f31:	4c 8d 25 a8 0e 20 00 	lea    0x200ea8(%rip),%r12        # 602de0 <__frame_dummy_init_array_entry>
  401f38:	55                   	push   %rbp
  401f39:	48 8d 2d a8 0e 20 00 	lea    0x200ea8(%rip),%rbp        # 602de8 <__init_array_end>
  401f40:	53                   	push   %rbx
  401f41:	4c 29 e5             	sub    %r12,%rbp
  401f44:	31 db                	xor    %ebx,%ebx
  401f46:	48 c1 fd 03          	sar    $0x3,%rbp
  401f4a:	48 83 ec 08          	sub    $0x8,%rsp
  401f4e:	e8 65 e5 ff ff       	callq  4004b8 <_init>
  401f53:	48 85 ed             	test   %rbp,%rbp
  401f56:	74 1e                	je     401f76 <__libc_csu_init+0x56>
  401f58:	0f 1f 84 00 00 00 00 	nopl   0x0(%rax,%rax,1)
  401f5f:	00 
  401f60:	4c 89 ea             	mov    %r13,%rdx
  401f63:	4c 89 f6             	mov    %r14,%rsi
  401f66:	44 89 ff             	mov    %r15d,%edi
  401f69:	41 ff 14 dc          	callq  *(%r12,%rbx,8)
  401f6d:	48 83 c3 01          	add    $0x1,%rbx
  401f71:	48 39 eb             	cmp    %rbp,%rbx
  401f74:	75 ea                	jne    401f60 <__libc_csu_init+0x40>
  401f76:	48 83 c4 08          	add    $0x8,%rsp
  401f7a:	5b                   	pop    %rbx
  401f7b:	5d                   	pop    %rbp
  401f7c:	41 5c                	pop    %r12
  401f7e:	41 5d                	pop    %r13
  401f80:	41 5e                	pop    %r14
  401f82:	41 5f                	pop    %r15
  401f84:	c3                   	retq   
  401f85:	90                   	nop
  401f86:	66 2e 0f 1f 84 00 00 	nopw   %cs:0x0(%rax,%rax,1)
  401f8d:	00 00 00 

0000000000401f90 <__libc_csu_fini>:
  401f90:	f3 c3                	repz retq 

Disassembly of section .fini:

0000000000401f94 <_fini>:
  401f94:	48 83 ec 08          	sub    $0x8,%rsp
  401f98:	48 83 c4 08          	add    $0x8,%rsp
  401f9c:	c3                   	retq   
