
test:     file format elf64-x86-64
architecture: i386:x86-64, flags 0x00000112:
EXEC_P, HAS_SYMS, D_PAGED
start address 0x0000000000400510

Contents of section .interp:
 400238 2f6c6962 36342f6c 642d6c69 6e75782d  /lib64/ld-linux-
 400248 7838362d 36342e73 6f2e3200           x86-64.so.2.    
Contents of section .note.ABI-tag:
 400254 04000000 10000000 01000000 474e5500  ............GNU.
 400264 00000000 02000000 06000000 20000000  ............ ...
Contents of section .note.gnu.build-id:
 400274 04000000 14000000 03000000 474e5500  ............GNU.
 400284 f41734e4 3921e450 4b52569a 185dc7f0  ..4.9!.PKRV..]..
 400294 1e5b062f                             .[./            
Contents of section .gnu.hash:
 400298 01000000 01000000 01000000 00000000  ................
 4002a8 00000000 00000000 00000000           ............    
Contents of section .dynsym:
 4002b8 00000000 00000000 00000000 00000000  ................
 4002c8 00000000 00000000 50000000 12000000  ........P.......
 4002d8 00000000 00000000 00000000 00000000  ................
 4002e8 58000000 12000000 00000000 00000000  X...............
 4002f8 00000000 00000000 5f000000 12000000  ........_.......
 400308 00000000 00000000 00000000 00000000  ................
 400318 0b000000 20000000 00000000 00000000  .... ...........
 400328 00000000 00000000 41000000 12000000  ........A.......
 400338 00000000 00000000 00000000 00000000  ................
Contents of section .dynstr:
 400348 006c6962 6d2e736f 2e36005f 5f676d6f  .libm.so.6.__gmo
 400358 6e5f7374 6172745f 5f006c69 62676f6d  n_start__.libgom
 400368 702e736f 2e31006c 69627074 68726561  p.so.1.libpthrea
 400378 642e736f 2e30006c 6962632e 736f2e36  d.so.0.libc.so.6
 400388 00706f73 69785f6d 656d616c 69676e00  .posix_memalign.
 400398 70757463 68617200 7072696e 7466005f  putchar.printf._
 4003a8 5f6c6962 635f7374 6172745f 6d61696e  _libc_start_main
 4003b8 00474c49 42435f32 2e322e35 00        .GLIBC_2.2.5.   
Contents of section .gnu.version:
 4003c6 00000200 02000200 00000200           ............    
Contents of section .gnu.version_r:
 4003d8 01000100 37000000 10000000 00000000  ....7...........
 4003e8 751a6909 00000200 71000000 00000000  u.i.....q.......
Contents of section .rela.dyn:
 4003f8 f82f6000 00000000 06000000 04000000  ./`.............
 400408 00000000 00000000                    ........        
Contents of section .rela.plt:
 400410 18306000 00000000 07000000 01000000  .0`.............
 400420 00000000 00000000 20306000 00000000  ........ 0`.....
 400430 07000000 02000000 00000000 00000000  ................
 400440 28306000 00000000 07000000 03000000  (0`.............
 400450 00000000 00000000 30306000 00000000  ........00`.....
 400460 07000000 04000000 00000000 00000000  ................
 400470 38306000 00000000 07000000 05000000  80`.............
 400480 00000000 00000000                    ........        
Contents of section .init:
 400488 4883ec08 488b0565 2b200048 85c07405  H...H..e+ .H..t.
 400498 e8530000 004883c4 08c3               .S...H....      
Contents of section .plt:
 4004b0 ff35522b 2000ff25 542b2000 0f1f4000  .5R+ ..%T+ ...@.
 4004c0 ff25522b 20006800 000000e9 e0ffffff  .%R+ .h.........
 4004d0 ff254a2b 20006801 000000e9 d0ffffff  .%J+ .h.........
 4004e0 ff25422b 20006802 000000e9 c0ffffff  .%B+ .h.........
 4004f0 ff253a2b 20006803 000000e9 b0ffffff  .%:+ .h.........
 400500 ff25322b 20006804 000000e9 a0ffffff  .%2+ .h.........
Contents of section .text:
 400510 31ed4989 d15e4889 e24883e4 f0505449  1.I..^H..H...PTI
 400520 c7c0801c 400048c7 c1101c40 0048c7c7  ....@.H....@.H..
 400530 ad064000 e8a7ffff fff4660f 1f440000  ..@.......f..D..
 400540 b84f3060 0055482d 48306000 4883f80e  .O0`.UH-H0`.H...
 400550 4889e577 025dc3b8 00000000 4885c074  H..w.]......H..t
 400560 f45dbf48 306000ff e00f1f80 00000000  .].H0`..........
 400570 b8483060 0055482d 48306000 48c1f803  .H0`.UH-H0`.H...
 400580 4889e548 89c248c1 ea3f4801 d048d1f8  H..H..H..?H..H..
 400590 75025dc3 ba000000 004885d2 74f45d48  u.]......H..t.]H
 4005a0 89c6bf48 306000ff e20f1f80 00000000  ...H0`..........
 4005b0 803d8d2a 20000075 11554889 e5e87eff  .=.* ..u.UH...~.
 4005c0 ffff5dc6 057a2a20 0001f3c3 0f1f4000  ..]..z* ......@.
 4005d0 48833d18 28200000 741eb800 00000048  H.=.( ..t......H
 4005e0 85c07414 55bff02d 60004889 e5ffd05d  ..t.U..-`.H....]
 4005f0 e97bffff ff0f1f00 e973ffff ff415741  .{.......s...AWA
 400600 56415541 54555348 83ec1889 7c240889  VAUATUSH....|$..
 400610 74240c85 f67e6249 89d44189 ff41bd00  t$...~bI..A..A..
 400620 00000041 be000000 00eb3e48 63c34180  ...A......>Hc.A.
 400630 3c04ff40 0f94c640 0fb6f6bf a01c4000  <..@...@......@.
 400640 b8000000 00e886fe ffff83c3 0139eb75  .............9.u
 400650 dabf0a00 0000e865 feffff41 83c60145  .......e...A...E
 400660 01fd443b 74240c74 10837c24 08007ee1  ..D;t$.t..|$..~.
 400670 438d2c2f 4489ebeb b24883c4 185b5d41  C.,/D....H...[]A
 400680 5c415d41 5e415fc3 ba000000 00b80100  \A]A^A_.........
 400690 00000fb6 0c16380c 170f94c1 21c84883  ......8.....!.H.
 4006a0 c2014881 fa002000 0075e7f3 c3554889  ..H... ..u...UH.
 4006b0 e5415541 54534883 e4e04881 ec200600  .AUATSH...H.. ..
 4006c0 00ba0020 0000be40 00000048 8dbc2418  ... ...@...H..$.
 4006d0 060000e8 28feffff ba002000 00be4000  ....(..... ...@.
 4006e0 0000488d bc241006 0000e811 feffffba  ..H..$..........
 4006f0 00200000 be400000 00488dbc 24080600  . ...@...H..$...
 400700 00e8fafd ffffb800 00000089 c1c1f91f  ................
 400710 c1e9178d 140181e2 ff010000 29ca8d4a  ............)..J
 400720 0385d20f 48d1c1fa 028d88ff 07000085  ....H...........
 400730 c00f49c8 c1f90b31 d183e101 83f101f7  ..I....1........
 400740 d9488b94 24180600 00880c02 488b9424  .H..$.......H..$
 400750 10060000 c6040200 488b9424 08060000  ........H..$....
 400760 c6040200 4883c001 483d0020 0000759b  ....H...H=. ..u.
 400770 41bc4042 0f0048c7 c3ffffff ff0f3149  A.@B..H.......1I
 400780 89d549c1 e52089c0 4909c548 8b842418  ..I.. ..I..H..$.
 400790 06000048 8d700148 8b842410 0600004c  ...H.p.H..$....L
 4007a0 8d402041 b9000000 004989f3 c5fd2846  .@ A.....I....(F
 4007b0 ffc5fd29 84244001 0000c5ff f006c5fd  ...).$@.........
 4007c0 29842460 010000c5 fd6f8c24 40010000  ).$`.....o.$@...
 4007d0 c5fd6f84 24400100 00c4e37d 46c108c5  ..o.$@.....}F...
 4007e0 fd298424 c0010000 c5fd6f84 24600100  .).$......o.$`..
 4007f0 00c5fd6f 8c244001 0000c5f5 dbc0c5fd  ...o.$@.........
 400800 298424e0 010000c5 fd6f8c24 c0010000  ).$......o.$....
 400810 c5fd6f84 24400100 00c4e37d 0fc10fc5  ..o.$@.....}....
 400820 fd298424 c0010000 c5fd6f84 24e00100  .).$......o.$...
 400830 00c5fd6f 8c24c001 0000c5f5 dbc0c5fd  ...o.$..........
 400840 298424c0 010000c5 fd288424 c0010000  ).$......(.$....
 400850 4d89c2c4 c17d2940 e04c89c2 488d461e  M....})@.L..H.F.
 400860 bf020000 00c5fff0 00c5fd29 0424c5fd  ...........).$..
 400870 284001c5 fd294424 20c5fd6f 442420c5  (@...)D$ ..oD$ .
 400880 fd6f0c24 c5f5dbc0 c5fd2904 24c5fff0  .o.$......).$...
 400890 4002c5fd 29442420 c5fd6f44 2420c5fd  @...)D$ ..oD$ ..
 4008a0 6f0c24c5 f5dbc0c5 fd290424 c5fd2804  o.$......).$..(.
 4008b0 24c5fd29 02c5fff0 00c5fd29 442440c5  $..).......)D$@.
 4008c0 fd284001 c5fd2944 2460c5fd 6f442460  .(@...)D$`..oD$`
 4008d0 c5fd6f4c 2440c5f5 dbc0c5fd 29442440  ..oL$@......)D$@
 4008e0 c5fff040 02c5fd29 442460c5 fd6f4424  ...@...)D$`..oD$
 4008f0 60c5fd6f 4c2440c5 f5dbc0c5 fd294424  `..oL$@......)D$
 400900 40c5fd28 442440c5 fd2902c5 fff000c5  @..(D$@..)......
 400910 fd298424 80000000 c5fd2840 01c5fd29  .).$......(@...)
 400920 8424a000 0000c5fd 6f8424a0 000000c5  .$......o.$.....
 400930 fd6f8c24 80000000 c5f5dbc0 c5fd2984  .o.$..........).
 400940 24800000 00c5fff0 4002c5fd 298424a0  $.......@...).$.
 400950 000000c5 fd6f8424 a0000000 c5fd6f8c  .....o.$......o.
 400960 24800000 00c5f5db c0c5fd29 84248000  $..........).$..
 400970 0000c5fd 28842480 000000c5 fd2902c5  ....(.$......)..
 400980 fff000c5 fd298424 c0000000 c5fd2840  .....).$......(@
 400990 01c5fd29 8424e000 0000c5fd 6f8424e0  ...).$......o.$.
 4009a0 000000c5 fd6f8c24 c0000000 c5f5dbc0  .....o.$........
 4009b0 c5fd2984 24c00000 00c5fff0 4002c5fd  ..).$.......@...
 4009c0 298424e0 000000c5 fd6f8424 e0000000  ).$......o.$....
 4009d0 c5fd6f8c 24c00000 00c5f5db c0c5fd29  ..o.$..........)
 4009e0 8424c000 0000c5fd 288424c0 000000c5  .$......(.$.....
 4009f0 fd2902c5 fff000c5 fd298424 00010000  .).......).$....
 400a00 c5fd2840 01c5fd29 84242001 0000c5fd  ..(@...).$ .....
 400a10 6f842420 010000c5 fd6f8c24 00010000  o.$ .....o.$....
 400a20 c5f5dbc0 c5fd2984 24000100 00c5fff0  ......).$.......
 400a30 4002c5fd 29842420 010000c5 fd6f8424  @...).$ .....o.$
 400a40 20010000 c5fd6f8c 24000100 00c5f5db   .....o.$.......
 400a50 c0c5fd29 84240001 0000c5fd 28842400  ...).$......(.$.
 400a60 010000c5 fd2902c5 fff000c5 fd298424  .....).......).$
 400a70 40010000 c5fd2840 01c5fd29 84246001  @.....(@...).$`.
 400a80 0000c5fd 6f842460 010000c5 fd6f8c24  ....o.$`.....o.$
 400a90 40010000 c5f5dbc0 c5fd2984 24400100  @.........).$@..
 400aa0 00c5fff0 4002c5fd 29842460 010000c5  ....@...).$`....
 400ab0 fd6f8424 60010000 c5fd6f8c 24400100  .o.$`.....o.$@..
 400ac0 00c5f5db c0c5fd29 84244001 0000c5fd  .......).$@.....
 400ad0 28842440 010000c5 fd2902c5 fff000c5  (.$@.....)......
 400ae0 fd298424 80010000 c5fd2840 01c5fd29  .).$......(@...)
 400af0 8424a001 0000c5fd 6f8424a0 010000c5  .$......o.$.....
 400b00 fd6f8c24 80010000 c5f5dbc0 c5fd2984  .o.$..........).
 400b10 24800100 00c5fff0 4002c5fd 298424a0  $.......@...).$.
 400b20 010000c5 fd6f8424 a0010000 c5fd6f8c  .....o.$......o.
 400b30 24800100 00c5f5db c0c5fd29 84248001  $..........).$..
 400b40 0000c5fd 28842480 010000c5 fd2902c5  ....(.$......)..
 400b50 fff000c5 fd298424 c0010000 c5fd2840  .....).$......(@
 400b60 01c5fd29 8424e001 0000c5fd 6f8424e0  ...).$......o.$.
 400b70 010000c5 fd6f8c24 c0010000 c5f5dbc0  .....o.$........
 400b80 c5fd2984 24c00100 00c5fff0 4002c5fd  ..).$.......@...
 400b90 298424e0 010000c5 fd6f8424 e0010000  ).$......o.$....
 400ba0 c5fd6f8c 24c00100 00c5f5db c0c5fd29  ..o.$..........)
 400bb0 8424c001 0000c5fd 288424c0 010000c5  .$......(.$.....
 400bc0 fd290248 05000100 004881c2 00010000  .).H.....H......
 400bd0 83ef010f 858cfcff ff4183c1 01c4c17d  .........A.....}
 400be0 2883df01 0000c5fd 290424c5 fff086de  (.......).$.....
 400bf0 010000c5 fd294424 20c5fd6f 0c24c5fd  .....)D$ ..o.$..
 400c00 6f0424c4 e37d46c1 81c5fd29 442440c5  o.$..}F....)D$@.
 400c10 fd6f4424 20c5fd6f 0c24c5f5 dbc0c5fd  .oD$ ..o.$......
 400c20 29442460 c5fd6f0c 24c5fd6f 442440c4  )D$`..o.$..oD$@.
 400c30 e37d0fc1 01c5fd29 442440c5 fd6f4424  .}.....)D$@..oD$
 400c40 60c5fd6f 4c2440c5 f5dbc0c5 fd294424  `..oL$@......)D$
 400c50 40c5fd28 442440c4 c17d2982 c0010000  @..(D$@..}).....
 400c60 4881c600 02000049 81c00002 00004183  H......I......A.
 400c70 f9100f85 31fbffff 0f3148c1 e22089c0  ....1....1H.. ..
 400c80 4809d04c 29e84839 c3480f47 d84183ec  H..L).H9.H.G.A..
 400c90 010f85e6 faffff48 85db7807 c4e1fb2a  .......H..x....*
 400ca0 c3eb1548 89d848d1 e883e301 4809d8c4  ...H..H.....H...
 400cb0 e1fb2ac0 c5fb58c0 c5fb5905 50100000  ..*...X...Y.P...
 400cc0 c5fb100d 50100000 c5f35ec0 bfa41c40  ....P.....^....@
 400cd0 00b80100 0000e8f5 f7ffff41 b840420f  ...........A.@B.
 400ce0 0048c7c7 ffffffff c5f157c9 0f314989  .H........W..1I.
 400cf0 d149c1e1 2089c049 09c1488b 8c240806  .I.. ..I..H..$..
 400d00 0000c5fd 298c2400 020000c5 fd298c24  ....).$......).$
 400d10 20020000 c5fd298c 24400200 00c5fd29   .....).$@.....)
 400d20 8c246002 0000c5fd 298c2480 020000c5  .$`.....).$.....
 400d30 fd298c24 a0020000 c5fd298c 24c00200  .).$......).$...
 400d40 00c5fd29 8c24e002 0000c5fd 298c2400  ...).$......).$.
 400d50 030000c5 fd298c24 20030000 c5fd298c  .....).$ .....).
 400d60 24400300 00c5fd29 8c246003 0000c5fd  $@.....).$`.....
 400d70 298c2480 030000c5 fd298c24 a0030000  ).$......).$....
 400d80 c5fd298c 24c00300 00c5fd29 8c24e003  ..).$......).$..
 400d90 0000488b 94241006 0000b800 000000c5  ..H..$..........
 400da0 fd2802c5 fd298424 00020000 c5fd2842  .(...).$......(B
 400db0 20c5fd29 84242002 0000c5fd 284240c5   ..).$ .....(B@.
 400dc0 fd298424 40020000 c5fd2842 60c5fd29  .).$@.....(B`..)
 400dd0 84246002 0000c5fd 28828000 0000c5fd  .$`.....(.......
 400de0 29842480 020000c5 fd2882a0 000000c5  ).$......(......
 400df0 fd298424 a0020000 c5fd2882 c0000000  .).$......(.....
 400e00 c5fd2984 24c00200 00c5fd28 82e00000  ..).$......(....
 400e10 00c5fd29 8424e002 0000c5fd 28820001  ...).$......(...
 400e20 0000c5fd 29842400 030000c5 fd288220  ....).$......(. 
 400e30 010000c5 fd298424 20030000 c5fd2882  .....).$ .....(.
 400e40 40010000 c5fd2984 24400300 00c5fd28  @.....).$@.....(
 400e50 82600100 00c5fd29 84246003 0000c5fd  .`.....).$`.....
 400e60 28828001 0000c5fd 29842480 030000c5  (.......).$.....
 400e70 fd2882a0 010000c5 fd298424 a0030000  .(.......).$....
 400e80 c5fd2882 c0010000 c5fd2984 24c00300  ..(.......).$...
 400e90 00c5fd28 82e00100 00c5fd29 8424e003  ...(.......).$..
 400ea0 0000c5fd 28842400 02000044 8d90ff01  ....(.$....D....
 400eb0 000085c0 440f49d0 41c1fa09 41c1e205  ....D.I.A...A...
 400ec0 89c6c1fe 1fc1ee17 448d1c30 4181e3ff  ........D..0A...
 400ed0 01000041 29f34489 dec1e604 4401d648  ...A).D.....D..H
 400ee0 63f6c5fd 290431c5 fd288424 20020000  c...).1..(.$ ...
 400ef0 448d981f 02000089 c683c620 440f49de  D.......... D.I.
 400f00 41c1fb09 41c1e305 4189f241 c1fa1f41  A...A...A..A...A
 400f10 c1ea1744 01d681e6 ff010000 4429d6c1  ...D........D)..
 400f20 e6044401 de4863f6 c5fd2904 31c5fd28  ..D..Hc...).1..(
 400f30 84244002 0000448d 983f0200 0089c683  .$@...D..?......
 400f40 c640440f 49de41c1 fb0941c1 e3054189  .@D.I.A...A...A.
 400f50 f241c1fa 1f41c1ea 174401d6 81e6ff01  .A...A...D......
 400f60 00004429 d6c1e604 4401de48 63f6c5fd  ..D)....D..Hc...
 400f70 290431c5 fd288424 60020000 448d985f  ).1..(.$`...D.._
 400f80 02000089 c683c660 440f49de 41c1fb09  .......`D.I.A...
 400f90 41c1e305 4189f241 c1fa1f41 c1ea1744  A...A..A...A...D
 400fa0 01d681e6 ff010000 4429d6c1 e6044401  ........D)....D.
 400fb0 de4863f6 c5fd2904 31c5fd28 84248002  .Hc...).1..(.$..
 400fc0 0000448d 987f0200 0089c683 ee80440f  ..D...........D.
 400fd0 49de41c1 fb0941c1 e3054189 f241c1fa  I.A...A...A..A..
 400fe0 1f41c1ea 174401d6 81e6ff01 00004429  .A...D........D)
 400ff0 d6c1e604 4401de48 63f6c5fd 290431c5  ....D..Hc...).1.
 401000 fd288424 a0020000 448d989f 02000089  .(.$....D.......
 401010 c681c6a0 00000044 0f49de41 c1fb0941  .......D.I.A...A
 401020 c1e30541 89f241c1 fa1f41c1 ea174401  ...A..A...A...D.
 401030 d681e6ff 01000044 29d6c1e6 044401de  .......D)....D..
 401040 4863f6c5 fd290431 c5fd2884 24c00200  Hc...).1..(.$...
 401050 00448d98 bf020000 89c681c6 c0000000  .D..............
 401060 440f49de 41c1fb09 41c1e305 4189f241  D.I.A...A...A..A
 401070 c1fa1f41 c1ea1744 01d681e6 ff010000  ...A...D........
 401080 4429d6c1 e6044401 de4863f6 c5fd2904  D)....D..Hc...).
 401090 31c5fd28 8424e002 0000448d 98df0200  1..(.$....D.....
 4010a0 0089c681 c6e00000 00440f49 de41c1fb  .........D.I.A..
 4010b0 0941c1e3 054189f2 41c1fa1f 41c1ea17  .A...A..A...A...
 4010c0 4401d681 e6ff0100 004429d6 c1e60444  D........D)....D
 4010d0 01de4863 f6c5fd29 0431c5fd 28842400  ..Hc...).1..(.$.
 4010e0 03000044 8d98ff02 000089c6 81c60001  ...D............
 4010f0 0000440f 49de41c1 fb0941c1 e3054189  ..D.I.A...A...A.
 401100 f241c1fa 1f41c1ea 174401d6 81e6ff01  .A...A...D......
 401110 00004429 d6c1e604 4401de48 63f6c5fd  ..D)....D..Hc...
 401120 290431c5 fd288424 20030000 448d981f  ).1..(.$ ...D...
 401130 03000089 c681c620 01000044 0f49de41  ....... ...D.I.A
 401140 c1fb0941 c1e30541 89f241c1 fa1f41c1  ...A...A..A...A.
 401150 ea174401 d681e6ff 01000044 29d6c1e6  ..D........D)...
 401160 044401de 4863f6c5 fd290431 c5fd2884  .D..Hc...).1..(.
 401170 24400300 00448d98 3f030000 89c681c6  $@...D..?.......
 401180 40010000 440f49de 41c1fb09 41c1e305  @...D.I.A...A...
 401190 4189f241 c1fa1f41 c1ea1744 01d681e6  A..A...A...D....
 4011a0 ff010000 4429d6c1 e6044401 de4863f6  ....D)....D..Hc.
 4011b0 c5fd2904 31c5fd28 84246003 0000448d  ..).1..(.$`...D.
 4011c0 985f0300 0089c681 c6600100 00440f49  ._.......`...D.I
 4011d0 de41c1fb 0941c1e3 054189f2 41c1fa1f  .A...A...A..A...
 4011e0 41c1ea17 4401d681 e6ff0100 004429d6  A...D........D).
 4011f0 c1e60444 01de4863 f6c5fd29 0431c5fd  ...D..Hc...).1..
 401200 28842480 03000044 8d987f03 000089c6  (.$....D........
 401210 81c68001 0000440f 49de41c1 fb0941c1  ......D.I.A...A.
 401220 e3054189 f241c1fa 1f41c1ea 174401d6  ..A..A...A...D..
 401230 81e6ff01 00004429 d6c1e604 4401de48  ......D)....D..H
 401240 63f6c5fd 290431c5 fd288424 a0030000  c...).1..(.$....
 401250 448d989f 03000089 c681c6a0 01000044  D..............D
 401260 0f49de41 c1fb0941 c1e30541 89f241c1  .I.A...A...A..A.
 401270 fa1f41c1 ea174401 d681e6ff 01000044  ..A...D........D
 401280 29d6c1e6 044401de 4863f6c5 fd290431  )....D..Hc...).1
 401290 c5fd2884 24c00300 00448d98 bf030000  ..(.$....D......
 4012a0 89c681c6 c0010000 440f49de 41c1fb09  ........D.I.A...
 4012b0 41c1e305 4189f241 c1fa1f41 c1ea1744  A...A..A...A...D
 4012c0 01d681e6 ff010000 4429d6c1 e6044401  ........D)....D.
 4012d0 de4863f6 c5fd2904 31c5fd28 8424e003  .Hc...).1..(.$..
 4012e0 0000448d 98df0300 0089c681 c6e00100  ..D.............
 4012f0 00440f49 de41c1fb 0941c1e3 054189f2  .D.I.A...A...A..
 401300 41c1fa1f 41c1ea17 4401d681 e6ff0100  A...A...D.......
 401310 004429d6 c1e60444 01de4863 f6c5fd29  .D)....D..Hc...)
 401320 04310500 02000048 81c20002 00003d00  .1.....H......=.
 401330 2000000f 8566faff ff0f3148 c1e22089   ....f....1H.. .
 401340 c04809d0 4c29c848 39c7480f 47f84183  .H..L).H9.H.G.A.
 401350 e8010f85 94f9ffff 4885ff78 07c4e1fb  ........H..x....
 401360 2ac7eb15 4889f848 d1e883e7 014809f8  *...H..H.....H..
 401370 c4e1fb2a c0c5fb58 c0c5fb59 058f0900  ...*...X...Y....
 401380 00c5fb10 0d970900 00c5f35e c0bfbf1c  ...........^....
 401390 4000b801 000000e8 34f1ffff 41b84042  @.......4...A.@B
 4013a0 0f0048c7 c7ffffff ffc44129 57d20f31  ..H.......A)W..1
 4013b0 4989d149 c1e12089 c04909c1 488b8424  I..I.. ..I..H..$
 4013c0 08060000 488d9080 000000be 10000000  ....H...........
 4013d0 c5fd284a a0c5fd28 42c0c5fd 2852e0c5  ..(J...(B...(R..
 4013e0 f5db5a80 c57ddbc9 c56ddbc0 4889d0b9  ..Z..}...m..H...
 4013f0 02000000 c57d29d7 c5fd2870 20c5fd28  .....})...(p ..(
 401400 6840c5fd 286060c5 f554cfc5 fd54c3c4  h@..(``..T...T..
 401410 416ddbc9 c5fd6f38 c44145db c0c5fd29  Am....o8.AE....)
 401420 4880c5fd 2940a0c5 7d2948c0 c57d2940  H...)@..})H..})@
 401430 e0c5c5db dac5c5db fec555db cec55ddb  ..........U...].
 401440 c5c5fd28 88a00000 00c5fd28 80c00000  ...(.......(....
 401450 00c5fd28 90e00000 00c5e5db f6c5c5db  ...(............
 401460 edc535db ccc5fd6f 98800000 00c44165  ..5....o......Ae
 401470 dbc0c5fd 2930c5fd 296820c5 7d294840  ....)0..)h .})H@
 401480 c57d2940 60c5e5db fcc5e5db d9c57ddb  .})@`.........}.
 401490 c9c56ddb c0480500 01000083 e9010f85  ..m..H..........
 4014a0 54ffffff 4881c200 02000083 ee010f85  T...H...........
 4014b0 1cffffff 0f3148c1 e22089c0 4809d04c  .....1H.. ..H..L
 4014c0 29c84839 c7480f47 f84183e8 010f85db  ).H9.H.G.A......
 4014d0 feffff48 85ff7807 c4e1fb2a c7eb1548  ...H..x....*...H
 4014e0 89f848d1 e883e701 4809f8c4 e1fb2ac0  ..H.....H.....*.
 4014f0 c5fb58c0 c5fb5905 14080000 c5fb100d  ..X...Y.........
 401500 1c080000 c5f35ec0 bfd71c40 00b80100  ......^....@....
 401510 0000e8b9 efffff41 b940420f 0049c7c0  .......A.@B..I..
 401520 ffffffff c5f157c9 0f314989 d249c1e2  ......W..1I..I..
 401530 2089c049 09c2488b 8c241006 0000c5fd   ..I..H..$......
 401540 298c2400 040000c5 fd298c24 20040000  ).$......).$ ...
 401550 c5fd298c 24400400 00c5fd29 8c246004  ..).$@.....).$`.
 401560 0000c5fd 298c2480 040000c5 fd298c24  ....).$......).$
 401570 a0040000 c5fd298c 24c00400 00c5fd29  ......).$......)
 401580 8c24e004 0000c5fd 298c2400 050000c5  .$......).$.....
 401590 fd298c24 20050000 c5fd298c 24400500  .).$ .....).$@..
 4015a0 00c5fd29 8c246005 0000c5fd 298c2480  ...).$`.....).$.
 4015b0 050000c5 fd298c24 a0050000 c5fd298c  .....).$......).
 4015c0 24c00500 00c5fd29 8c24e005 0000488b  $......).$....H.
 4015d0 94240806 0000b800 000000c5 fd2802c5  .$...........(..
 4015e0 fd298424 00040000 c5fd2842 20c5fd29  .).$......(B ..)
 4015f0 84242004 0000c5fd 284240c5 fd298424  .$ .....(B@..).$
 401600 40040000 c5fd2842 60c5fd29 84246004  @.....(B`..).$`.
 401610 0000c5fd 28828000 0000c5fd 29842480  ....(.......).$.
 401620 040000c5 fd2882a0 000000c5 fd298424  .....(.......).$
 401630 a0040000 c5fd2882 c0000000 c5fd2984  ......(.......).
 401640 24c00400 00c5fd28 82e00000 00c5fd29  $......(.......)
 401650 8424e004 0000c5fd 28820001 0000c5fd  .$......(.......
 401660 29842400 050000c5 fd288220 010000c5  ).$......(. ....
 401670 fd298424 20050000 c5fd2882 40010000  .).$ .....(.@...
 401680 c5fd2984 24400500 00c5fd28 82600100  ..).$@.....(.`..
 401690 00c5fd29 84246005 0000c5fd 28828001  ...).$`.....(...
 4016a0 0000c5fd 29842480 050000c5 fd2882a0  ....).$......(..
 4016b0 010000c5 fd298424 a0050000 c5fd2882  .....).$......(.
 4016c0 c0010000 c5fd2984 24c00500 00c5fd28  ......).$......(
 4016d0 82e00100 00c5fd29 8424e005 0000c5fd  .......).$......
 4016e0 28842400 04000044 8d98ff01 000085c0  (.$....D........
 4016f0 89c7410f 48fbc1ff 09c1e705 8d701f85  ..A.H........p..
 401700 c00f49f0 89f3c1fb 05c1fe1f c1ee1c01  ..I.............
 401710 f383e30f 29f389de c1e60901 fe4863f6  ....)........Hc.
 401720 c5fd2904 31c5fd28 84242004 00008db8  ..).1..(.$ .....
 401730 1f020000 89c683c6 200f49fe c1ff09c1  ........ .I.....
 401740 e7058d58 3f85f60f 48f389f3 c1fb05c1  ...X?...H.......
 401750 fe1fc1ee 1c01f383 e30f29f3 89dec1e6  ..........).....
 401760 0901fe48 63f6c5fd 290431c5 fd288424  ...Hc...).1..(.$
 401770 40040000 8db83f02 000089c6 83c6400f  @.....?.......@.
 401780 49fec1ff 09c1e705 8d585f85 f60f48f3  I........X_...H.
 401790 89f3c1fb 05c1fe1f c1ee1c01 f383e30f  ................
 4017a0 29f389de c1e60901 fe4863f6 c5fd2904  )........Hc...).
 4017b0 31c5fd28 84246004 00008db8 5f020000  1..(.$`....._...
 4017c0 89c683c6 600f49fe c1ff09c1 e7058d58  ....`.I........X
 4017d0 7f85f60f 48f389f3 c1fb05c1 fe1fc1ee  ....H...........
 4017e0 1c01f383 e30f29f3 89dec1e6 0901fe48  ......)........H
 4017f0 63f6c5fd 290431c5 fd288424 80040000  c...).1..(.$....
 401800 8db87f02 000089c6 83ee800f 49fec1ff  ............I...
 401810 09c1e705 8d989f00 000085f6 0f48f389  .............H..
 401820 f3c1fb05 c1fe1fc1 ee1c01f3 83e30f29  ...............)
 401830 f389dec1 e60901fe 4863f6c5 fd290431  ........Hc...).1
 401840 c5fd2884 24a00400 008db89f 02000089  ..(.$...........
 401850 c681c6a0 0000000f 49fec1ff 09c1e705  ........I.......
 401860 8d98bf00 000085f6 0f48f389 f3c1fb05  .........H......
 401870 c1fe1fc1 ee1c01f3 83e30f29 f389dec1  ...........)....
 401880 e60901fe 4863f6c5 fd290431 c5fd2884  ....Hc...).1..(.
 401890 24c00400 008db8bf 02000089 c681c6c0  $...............
 4018a0 0000000f 49fec1ff 09c1e705 8d98df00  ....I...........
 4018b0 000085f6 0f48f389 f3c1fb05 c1fe1fc1  .....H..........
 4018c0 ee1c01f3 83e30f29 f389dec1 e60901fe  .......)........
 4018d0 4863f6c5 fd290431 c5fd2884 24e00400  Hc...).1..(.$...
 4018e0 008db8df 02000089 c681c6e0 0000000f  ................
 4018f0 49fec1ff 09c1e705 8d98ff00 000085f6  I...............
 401900 0f48f389 f3c1fb05 c1fe1fc1 ee1c01f3  .H..............
 401910 83e30f29 f389dec1 e60901fe 4863f6c5  ...)........Hc..
 401920 fd290431 c5fd2884 24000500 008db8ff  .).1..(.$.......
 401930 02000089 c681c600 0100000f 49fec1ff  ............I...
 401940 09c1e705 8d981f01 000085f6 0f48f389  .............H..
 401950 f3c1fb05 c1fe1fc1 ee1c01f3 83e30f29  ...............)
 401960 f389dec1 e60901fe 4863f6c5 fd290431  ........Hc...).1
 401970 c5fd2884 24200500 008d981f 03000089  ..(.$ ..........
 401980 c781c720 0100000f 49dfc1fb 09c1e305  ... ....I.......
 401990 8db03f01 000085ff 0f48fe89 fec1fe05  ..?......H......
 4019a0 c1ff1fc1 ef1c01fe 83e60f29 fec1e609  ...........)....
 4019b0 01de4863 f6c5fd29 0431c5fd 28842440  ..Hc...).1..(.$@
 4019c0 0500008d 983f0300 0089c781 c7400100  .....?.......@..
 4019d0 000f49df c1fb09c1 e3058db0 5f010000  ..I........._...
 4019e0 85ff0f48 fe89fec1 fe05c1ff 1fc1ef1c  ...H............
 4019f0 01fe83e6 0f29fec1 e60901de 4863f6c5  .....)......Hc..
 401a00 fd290431 c5fd2884 24600500 008d985f  .).1..(.$`....._
 401a10 03000089 c781c760 0100000f 49dfc1fb  .......`....I...
 401a20 09c1e305 8db07f01 000085ff 0f48fe89  .............H..
 401a30 fec1fe05 c1ff1fc1 ef1c01fe 83e60f29  ...............)
 401a40 fec1e609 01de4863 f6c5fd29 0431c5fd  ......Hc...).1..
 401a50 28842480 0500008d 987f0300 0089c781  (.$.............
 401a60 c7800100 000f49df c1fb09c1 e3058db0  ......I.........
 401a70 9f010000 85ff0f48 fe89fec1 fe05c1ff  .......H........
 401a80 1fc1ef1c 01fe83e6 0f29fec1 e60901de  .........)......
 401a90 4863f6c5 fd290431 c5fd2884 24a00500  Hc...).1..(.$...
 401aa0 008d989f 03000089 c781c7a0 0100000f  ................
 401ab0 49dfc1fb 09c1e305 8db0bf01 000085ff  I...............
 401ac0 0f48fe89 fec1fe05 c1ff1fc1 ef1c01fe  .H..............
 401ad0 83e60f29 fec1e609 01de4863 f6c5fd29  ...)......Hc...)
 401ae0 0431c5fd 288424c0 0500008d 98bf0300  .1..(.$.........
 401af0 0089c781 c7c00100 000f49df c1fb09c1  ..........I.....
 401b00 e3058db0 df010000 85ff0f48 fe89fec1  ...........H....
 401b10 fe05c1ff 1fc1ef1c 01fe83e6 0f29fec1  .............)..
 401b20 e60901de 4863f6c5 fd290431 c5fd2884  ....Hc...).1..(.
 401b30 24e00500 008db8df 03000089 c681c6e0  $...............
 401b40 0100000f 49fec1ff 09c1e705 85f6410f  ....I.........A.
 401b50 48f34189 f341c1fb 05c1fe1f c1ee1c41  H.A..A.........A
 401b60 01f34183 e30f4129 f34489de c1e60901  ..A...A).D......
 401b70 fe4863f6 c5fd2904 31050002 00004881  .Hc...).1.....H.
 401b80 c2000200 003d0020 00000f85 4bfaffff  .....=. ....K...
 401b90 0f3148c1 e22089c0 4809d04c 29d04939  .1H.. ..H..L).I9
 401ba0 c04c0f47 c04183e9 010f8579 f9ffff4d  .L.G.A.....y...M
 401bb0 85c07807 c4c1fb2a c0eb164c 89c048d1  ..x....*...L..H.
 401bc0 e84183e0 014c09c0 c4e1fb2a c0c5fb58  .A...L.....*...X
 401bd0 c0c5fb59 05370100 00c5fb10 0d3f0100  ...Y.7.......?..
 401be0 00c5f35e c0bff01c 4000b801 000000e8  ...^....@.......
 401bf0 dce8ffff b8000000 00488d65 e85b415c  .........H.e.[A\
 401c00 415d5dc3 662e0f1f 84000000 00006690  A]].f.........f.
 401c10 41574189 ff415649 89f64155 4989d541  AWA..AVI..AUI..A
 401c20 544c8d25 b8112000 55488d2d b8112000  TL.%.. .UH.-.. .
 401c30 534c29e5 31db48c1 fd034883 ec08e845  SL).1.H...H....E
 401c40 e8ffff48 85ed741e 0f1f8400 00000000  ...H..t.........
 401c50 4c89ea4c 89f64489 ff41ff14 dc4883c3  L..L..D..A...H..
 401c60 014839eb 75ea4883 c4085b5d 415c415d  .H9.u.H...[]A\A]
 401c70 415e415f c390662e 0f1f8400 00000000  A^A_..f.........
 401c80 f3c3                                 ..              
Contents of section .fini:
 401c84 4883ec08 4883c408 c3                 H...H....       
Contents of section .rodata:
 401c90 01000200 00000000 00000000 00000000  ................
 401ca0 25316400 486f7269 7a6f6e74 616c2045  %1d.Horizontal E
 401cb0 66666963 69656e63 793a2025 660a0050  fficiency: %f..P
 401cc0 61636b69 6e672045 66666963 69656e63  acking Efficienc
 401cd0 793a2025 660a0056 65727469 63616c20  y: %f..Vertical 
 401ce0 45666669 6369656e 63793a20 25660a00  Efficiency: %f..
 401cf0 556e7061 636b696e 67204566 66696369  Unpacking Effici
 401d00 656e6379 3a202566 0a000000 00000000  ency: %f........
 401d10 33333333 33330b40 cccccccc cccc8c40  333333.@.......@
 401d20 33333333 33338340                    333333.@        
Contents of section .eh_frame_hdr:
 401d28 011b033b 44000000 07000000 88e7ffff  ...;D...........
 401d38 90000000 e8e7ffff 60000000 d5e8ffff  ........`.......
 401d48 b8000000 60e9ffff 00010000 85e9ffff  ....`...........
 401d58 18010000 e8feffff 40010000 58ffffff  ........@...X...
 401d68 88010000                             ....            
Contents of section .eh_frame:
 401d70 14000000 00000000 017a5200 01781001  .........zR..x..
 401d80 1b0c0708 90010710 14000000 1c000000  ................
 401d90 80e7ffff 2a000000 00000000 00000000  ....*...........
 401da0 14000000 00000000 017a5200 01781001  .........zR..x..
 401db0 1b0c0708 90010000 24000000 1c000000  ........$.......
 401dc0 f0e6ffff 60000000 000e1046 0e184a0f  ....`......F..J.
 401dd0 0b770880 003f1a3b 2a332422 00000000  .w...?.;*3$"....
 401de0 44000000 44000000 15e8ffff 8b000000  D...D...........
 401df0 00420e10 8f02420e 188e0342 0e208d04  .B....B....B. ..
 401e00 420e288c 05410e30 8606410e 38830744  B.(..A.0..A.8..D
 401e10 0e500272 0e38410e 30410e28 420e2042  .P.r.8A.0A.(B. B
 401e20 0e18420e 10420e08 14000000 8c000000  ..B..B..........
 401e30 58e8ffff 25000000 00000000 00000000  X...%...........
 401e40 24000000 a4000000 65e8ffff 57150000  $.......e...W...
 401e50 00410e10 8602430d 06508d03 8c048305  .A....C..P......
 401e60 0342150c 07080000 44000000 cc000000  .B......D.......
 401e70 a0fdffff 65000000 00420e10 8f02450e  ....e....B....E.
 401e80 188e0345 0e208d04 450e288c 05480e30  ...E. ..E.(..H.0
 401e90 8606480e 3883074d 0e406c0e 38410e30  ..H.8..M.@l.8A.0
 401ea0 410e2842 0e20420e 18420e10 420e0800  A.(B. B..B..B...
 401eb0 14000000 14010000 c8fdffff 02000000  ................
 401ec0 00000000 00000000 00000000           ............    
Contents of section .init_array:
 602de0 d0054000 00000000                    ..@.....        
Contents of section .fini_array:
 602de8 b0054000 00000000                    ..@.....        
Contents of section .jcr:
 602df0 00000000 00000000                    ........        
Contents of section .dynamic:
 602df8 01000000 00000000 01000000 00000000  ................
 602e08 01000000 00000000 1a000000 00000000  ................
 602e18 01000000 00000000 27000000 00000000  ........'.......
 602e28 01000000 00000000 37000000 00000000  ........7.......
 602e38 0c000000 00000000 88044000 00000000  ..........@.....
 602e48 0d000000 00000000 841c4000 00000000  ..........@.....
 602e58 19000000 00000000 e02d6000 00000000  .........-`.....
 602e68 1b000000 00000000 08000000 00000000  ................
 602e78 1a000000 00000000 e82d6000 00000000  .........-`.....
 602e88 1c000000 00000000 08000000 00000000  ................
 602e98 f5feff6f 00000000 98024000 00000000  ...o......@.....
 602ea8 05000000 00000000 48034000 00000000  ........H.@.....
 602eb8 06000000 00000000 b8024000 00000000  ..........@.....
 602ec8 0a000000 00000000 7d000000 00000000  ........}.......
 602ed8 0b000000 00000000 18000000 00000000  ................
 602ee8 15000000 00000000 00000000 00000000  ................
 602ef8 03000000 00000000 00306000 00000000  .........0`.....
 602f08 02000000 00000000 78000000 00000000  ........x.......
 602f18 14000000 00000000 07000000 00000000  ................
 602f28 17000000 00000000 10044000 00000000  ..........@.....
 602f38 07000000 00000000 f8034000 00000000  ..........@.....
 602f48 08000000 00000000 18000000 00000000  ................
 602f58 09000000 00000000 18000000 00000000  ................
 602f68 feffff6f 00000000 d8034000 00000000  ...o......@.....
 602f78 ffffff6f 00000000 01000000 00000000  ...o............
 602f88 f0ffff6f 00000000 c6034000 00000000  ...o......@.....
 602f98 00000000 00000000 00000000 00000000  ................
 602fa8 00000000 00000000 00000000 00000000  ................
 602fb8 00000000 00000000 00000000 00000000  ................
 602fc8 00000000 00000000 00000000 00000000  ................
 602fd8 00000000 00000000 00000000 00000000  ................
 602fe8 00000000 00000000 00000000 00000000  ................
Contents of section .got:
 602ff8 00000000 00000000                    ........        
Contents of section .got.plt:
 603000 f82d6000 00000000 00000000 00000000  .-`.............
 603010 00000000 00000000 c6044000 00000000  ..........@.....
 603020 d6044000 00000000 e6044000 00000000  ..@.......@.....
 603030 f6044000 00000000 06054000 00000000  ..@.......@.....
Contents of section .data:
 603040 00000000                             ....            
Contents of section .comment:
 0000 4743433a 2028474e 55292034 2e382e35  GCC: (GNU) 4.8.5
 0010 20323031 35303632 33202852 65642048   20150623 (Red H
 0020 61742034 2e382e35 2d343429 00        at 4.8.5-44).   

Disassembly of section .init:

0000000000400488 <_init>:
  400488:	48 83 ec 08          	sub    $0x8,%rsp
  40048c:	48 8b 05 65 2b 20 00 	mov    0x202b65(%rip),%rax        # 602ff8 <__gmon_start__>
  400493:	48 85 c0             	test   %rax,%rax
  400496:	74 05                	je     40049d <_init+0x15>
  400498:	e8 53 00 00 00       	callq  4004f0 <__gmon_start__@plt>
  40049d:	48 83 c4 08          	add    $0x8,%rsp
  4004a1:	c3                   	retq   

Disassembly of section .plt:

00000000004004b0 <.plt>:
  4004b0:	ff 35 52 2b 20 00    	pushq  0x202b52(%rip)        # 603008 <_GLOBAL_OFFSET_TABLE_+0x8>
  4004b6:	ff 25 54 2b 20 00    	jmpq   *0x202b54(%rip)        # 603010 <_GLOBAL_OFFSET_TABLE_+0x10>
  4004bc:	0f 1f 40 00          	nopl   0x0(%rax)

00000000004004c0 <putchar@plt>:
  4004c0:	ff 25 52 2b 20 00    	jmpq   *0x202b52(%rip)        # 603018 <putchar@GLIBC_2.2.5>
  4004c6:	68 00 00 00 00       	pushq  $0x0
  4004cb:	e9 e0 ff ff ff       	jmpq   4004b0 <.plt>

00000000004004d0 <printf@plt>:
  4004d0:	ff 25 4a 2b 20 00    	jmpq   *0x202b4a(%rip)        # 603020 <printf@GLIBC_2.2.5>
  4004d6:	68 01 00 00 00       	pushq  $0x1
  4004db:	e9 d0 ff ff ff       	jmpq   4004b0 <.plt>

00000000004004e0 <__libc_start_main@plt>:
  4004e0:	ff 25 42 2b 20 00    	jmpq   *0x202b42(%rip)        # 603028 <__libc_start_main@GLIBC_2.2.5>
  4004e6:	68 02 00 00 00       	pushq  $0x2
  4004eb:	e9 c0 ff ff ff       	jmpq   4004b0 <.plt>

00000000004004f0 <__gmon_start__@plt>:
  4004f0:	ff 25 3a 2b 20 00    	jmpq   *0x202b3a(%rip)        # 603030 <__gmon_start__>
  4004f6:	68 03 00 00 00       	pushq  $0x3
  4004fb:	e9 b0 ff ff ff       	jmpq   4004b0 <.plt>

0000000000400500 <posix_memalign@plt>:
  400500:	ff 25 32 2b 20 00    	jmpq   *0x202b32(%rip)        # 603038 <posix_memalign@GLIBC_2.2.5>
  400506:	68 04 00 00 00       	pushq  $0x4
  40050b:	e9 a0 ff ff ff       	jmpq   4004b0 <.plt>

Disassembly of section .text:

0000000000400510 <_start>:
  400510:	31 ed                	xor    %ebp,%ebp
  400512:	49 89 d1             	mov    %rdx,%r9
  400515:	5e                   	pop    %rsi
  400516:	48 89 e2             	mov    %rsp,%rdx
  400519:	48 83 e4 f0          	and    $0xfffffffffffffff0,%rsp
  40051d:	50                   	push   %rax
  40051e:	54                   	push   %rsp
  40051f:	49 c7 c0 80 1c 40 00 	mov    $0x401c80,%r8
  400526:	48 c7 c1 10 1c 40 00 	mov    $0x401c10,%rcx
  40052d:	48 c7 c7 ad 06 40 00 	mov    $0x4006ad,%rdi
  400534:	e8 a7 ff ff ff       	callq  4004e0 <__libc_start_main@plt>
  400539:	f4                   	hlt    
  40053a:	66 0f 1f 44 00 00    	nopw   0x0(%rax,%rax,1)

0000000000400540 <deregister_tm_clones>:
  400540:	b8 4f 30 60 00       	mov    $0x60304f,%eax
  400545:	55                   	push   %rbp
  400546:	48 2d 48 30 60 00    	sub    $0x603048,%rax
  40054c:	48 83 f8 0e          	cmp    $0xe,%rax
  400550:	48 89 e5             	mov    %rsp,%rbp
  400553:	77 02                	ja     400557 <deregister_tm_clones+0x17>
  400555:	5d                   	pop    %rbp
  400556:	c3                   	retq   
  400557:	b8 00 00 00 00       	mov    $0x0,%eax
  40055c:	48 85 c0             	test   %rax,%rax
  40055f:	74 f4                	je     400555 <deregister_tm_clones+0x15>
  400561:	5d                   	pop    %rbp
  400562:	bf 48 30 60 00       	mov    $0x603048,%edi
  400567:	ff e0                	jmpq   *%rax
  400569:	0f 1f 80 00 00 00 00 	nopl   0x0(%rax)

0000000000400570 <register_tm_clones>:
  400570:	b8 48 30 60 00       	mov    $0x603048,%eax
  400575:	55                   	push   %rbp
  400576:	48 2d 48 30 60 00    	sub    $0x603048,%rax
  40057c:	48 c1 f8 03          	sar    $0x3,%rax
  400580:	48 89 e5             	mov    %rsp,%rbp
  400583:	48 89 c2             	mov    %rax,%rdx
  400586:	48 c1 ea 3f          	shr    $0x3f,%rdx
  40058a:	48 01 d0             	add    %rdx,%rax
  40058d:	48 d1 f8             	sar    %rax
  400590:	75 02                	jne    400594 <register_tm_clones+0x24>
  400592:	5d                   	pop    %rbp
  400593:	c3                   	retq   
  400594:	ba 00 00 00 00       	mov    $0x0,%edx
  400599:	48 85 d2             	test   %rdx,%rdx
  40059c:	74 f4                	je     400592 <register_tm_clones+0x22>
  40059e:	5d                   	pop    %rbp
  40059f:	48 89 c6             	mov    %rax,%rsi
  4005a2:	bf 48 30 60 00       	mov    $0x603048,%edi
  4005a7:	ff e2                	jmpq   *%rdx
  4005a9:	0f 1f 80 00 00 00 00 	nopl   0x0(%rax)

00000000004005b0 <__do_global_dtors_aux>:
  4005b0:	80 3d 8d 2a 20 00 00 	cmpb   $0x0,0x202a8d(%rip)        # 603044 <_edata>
  4005b7:	75 11                	jne    4005ca <__do_global_dtors_aux+0x1a>
  4005b9:	55                   	push   %rbp
  4005ba:	48 89 e5             	mov    %rsp,%rbp
  4005bd:	e8 7e ff ff ff       	callq  400540 <deregister_tm_clones>
  4005c2:	5d                   	pop    %rbp
  4005c3:	c6 05 7a 2a 20 00 01 	movb   $0x1,0x202a7a(%rip)        # 603044 <_edata>
  4005ca:	f3 c3                	repz retq 
  4005cc:	0f 1f 40 00          	nopl   0x0(%rax)

00000000004005d0 <frame_dummy>:
  4005d0:	48 83 3d 18 28 20 00 	cmpq   $0x0,0x202818(%rip)        # 602df0 <__JCR_END__>
  4005d7:	00 
  4005d8:	74 1e                	je     4005f8 <frame_dummy+0x28>
  4005da:	b8 00 00 00 00       	mov    $0x0,%eax
  4005df:	48 85 c0             	test   %rax,%rax
  4005e2:	74 14                	je     4005f8 <frame_dummy+0x28>
  4005e4:	55                   	push   %rbp
  4005e5:	bf f0 2d 60 00       	mov    $0x602df0,%edi
  4005ea:	48 89 e5             	mov    %rsp,%rbp
  4005ed:	ff d0                	callq  *%rax
  4005ef:	5d                   	pop    %rbp
  4005f0:	e9 7b ff ff ff       	jmpq   400570 <register_tm_clones>
  4005f5:	0f 1f 00             	nopl   (%rax)
  4005f8:	e9 73 ff ff ff       	jmpq   400570 <register_tm_clones>

00000000004005fd <mat_print>:
  4005fd:	41 57                	push   %r15
  4005ff:	41 56                	push   %r14
  400601:	41 55                	push   %r13
  400603:	41 54                	push   %r12
  400605:	55                   	push   %rbp
  400606:	53                   	push   %rbx
  400607:	48 83 ec 18          	sub    $0x18,%rsp
  40060b:	89 7c 24 08          	mov    %edi,0x8(%rsp)
  40060f:	89 74 24 0c          	mov    %esi,0xc(%rsp)
  400613:	85 f6                	test   %esi,%esi
  400615:	7e 62                	jle    400679 <mat_print+0x7c>
  400617:	49 89 d4             	mov    %rdx,%r12
  40061a:	41 89 ff             	mov    %edi,%r15d
  40061d:	41 bd 00 00 00 00    	mov    $0x0,%r13d
  400623:	41 be 00 00 00 00    	mov    $0x0,%r14d
  400629:	eb 3e                	jmp    400669 <mat_print+0x6c>
  40062b:	48 63 c3             	movslq %ebx,%rax
  40062e:	41 80 3c 04 ff       	cmpb   $0xff,(%r12,%rax,1)
  400633:	40 0f 94 c6          	sete   %sil
  400637:	40 0f b6 f6          	movzbl %sil,%esi
  40063b:	bf a0 1c 40 00       	mov    $0x401ca0,%edi
  400640:	b8 00 00 00 00       	mov    $0x0,%eax
  400645:	e8 86 fe ff ff       	callq  4004d0 <printf@plt>
  40064a:	83 c3 01             	add    $0x1,%ebx
  40064d:	39 eb                	cmp    %ebp,%ebx
  40064f:	75 da                	jne    40062b <mat_print+0x2e>
  400651:	bf 0a 00 00 00       	mov    $0xa,%edi
  400656:	e8 65 fe ff ff       	callq  4004c0 <putchar@plt>
  40065b:	41 83 c6 01          	add    $0x1,%r14d
  40065f:	45 01 fd             	add    %r15d,%r13d
  400662:	44 3b 74 24 0c       	cmp    0xc(%rsp),%r14d
  400667:	74 10                	je     400679 <mat_print+0x7c>
  400669:	83 7c 24 08 00       	cmpl   $0x0,0x8(%rsp)
  40066e:	7e e1                	jle    400651 <mat_print+0x54>
  400670:	43 8d 2c 2f          	lea    (%r15,%r13,1),%ebp
  400674:	44 89 eb             	mov    %r13d,%ebx
  400677:	eb b2                	jmp    40062b <mat_print+0x2e>
  400679:	48 83 c4 18          	add    $0x18,%rsp
  40067d:	5b                   	pop    %rbx
  40067e:	5d                   	pop    %rbp
  40067f:	41 5c                	pop    %r12
  400681:	41 5d                	pop    %r13
  400683:	41 5e                	pop    %r14
  400685:	41 5f                	pop    %r15
  400687:	c3                   	retq   

0000000000400688 <check>:
  400688:	ba 00 00 00 00       	mov    $0x0,%edx
  40068d:	b8 01 00 00 00       	mov    $0x1,%eax
  400692:	0f b6 0c 16          	movzbl (%rsi,%rdx,1),%ecx
  400696:	38 0c 17             	cmp    %cl,(%rdi,%rdx,1)
  400699:	0f 94 c1             	sete   %cl
  40069c:	21 c8                	and    %ecx,%eax
  40069e:	48 83 c2 01          	add    $0x1,%rdx
  4006a2:	48 81 fa 00 20 00 00 	cmp    $0x2000,%rdx
  4006a9:	75 e7                	jne    400692 <check+0xa>
  4006ab:	f3 c3                	repz retq 

00000000004006ad <main>:
  4006ad:	55                   	push   %rbp
  4006ae:	48 89 e5             	mov    %rsp,%rbp
  4006b1:	41 55                	push   %r13
  4006b3:	41 54                	push   %r12
  4006b5:	53                   	push   %rbx
  4006b6:	48 83 e4 e0          	and    $0xffffffffffffffe0,%rsp
  4006ba:	48 81 ec 20 06 00 00 	sub    $0x620,%rsp
  4006c1:	ba 00 20 00 00       	mov    $0x2000,%edx
  4006c6:	be 40 00 00 00       	mov    $0x40,%esi
  4006cb:	48 8d bc 24 18 06 00 	lea    0x618(%rsp),%rdi
  4006d2:	00 
  4006d3:	e8 28 fe ff ff       	callq  400500 <posix_memalign@plt>
  4006d8:	ba 00 20 00 00       	mov    $0x2000,%edx
  4006dd:	be 40 00 00 00       	mov    $0x40,%esi
  4006e2:	48 8d bc 24 10 06 00 	lea    0x610(%rsp),%rdi
  4006e9:	00 
  4006ea:	e8 11 fe ff ff       	callq  400500 <posix_memalign@plt>
  4006ef:	ba 00 20 00 00       	mov    $0x2000,%edx
  4006f4:	be 40 00 00 00       	mov    $0x40,%esi
  4006f9:	48 8d bc 24 08 06 00 	lea    0x608(%rsp),%rdi
  400700:	00 
  400701:	e8 fa fd ff ff       	callq  400500 <posix_memalign@plt>
  400706:	b8 00 00 00 00       	mov    $0x0,%eax
  40070b:	89 c1                	mov    %eax,%ecx
  40070d:	c1 f9 1f             	sar    $0x1f,%ecx
  400710:	c1 e9 17             	shr    $0x17,%ecx
  400713:	8d 14 01             	lea    (%rcx,%rax,1),%edx
  400716:	81 e2 ff 01 00 00    	and    $0x1ff,%edx
  40071c:	29 ca                	sub    %ecx,%edx
  40071e:	8d 4a 03             	lea    0x3(%rdx),%ecx
  400721:	85 d2                	test   %edx,%edx
  400723:	0f 48 d1             	cmovs  %ecx,%edx
  400726:	c1 fa 02             	sar    $0x2,%edx
  400729:	8d 88 ff 07 00 00    	lea    0x7ff(%rax),%ecx
  40072f:	85 c0                	test   %eax,%eax
  400731:	0f 49 c8             	cmovns %eax,%ecx
  400734:	c1 f9 0b             	sar    $0xb,%ecx
  400737:	31 d1                	xor    %edx,%ecx
  400739:	83 e1 01             	and    $0x1,%ecx
  40073c:	83 f1 01             	xor    $0x1,%ecx
  40073f:	f7 d9                	neg    %ecx
  400741:	48 8b 94 24 18 06 00 	mov    0x618(%rsp),%rdx
  400748:	00 
  400749:	88 0c 02             	mov    %cl,(%rdx,%rax,1)
  40074c:	48 8b 94 24 10 06 00 	mov    0x610(%rsp),%rdx
  400753:	00 
  400754:	c6 04 02 00          	movb   $0x0,(%rdx,%rax,1)
  400758:	48 8b 94 24 08 06 00 	mov    0x608(%rsp),%rdx
  40075f:	00 
  400760:	c6 04 02 00          	movb   $0x0,(%rdx,%rax,1)
  400764:	48 83 c0 01          	add    $0x1,%rax
  400768:	48 3d 00 20 00 00    	cmp    $0x2000,%rax
  40076e:	75 9b                	jne    40070b <main+0x5e>
  400770:	41 bc 40 42 0f 00    	mov    $0xf4240,%r12d
  400776:	48 c7 c3 ff ff ff ff 	mov    $0xffffffffffffffff,%rbx
  40077d:	0f 31                	rdtsc  
  40077f:	49 89 d5             	mov    %rdx,%r13
  400782:	49 c1 e5 20          	shl    $0x20,%r13
  400786:	89 c0                	mov    %eax,%eax
  400788:	49 09 c5             	or     %rax,%r13
  40078b:	48 8b 84 24 18 06 00 	mov    0x618(%rsp),%rax
  400792:	00 
  400793:	48 8d 70 01          	lea    0x1(%rax),%rsi
  400797:	48 8b 84 24 10 06 00 	mov    0x610(%rsp),%rax
  40079e:	00 
  40079f:	4c 8d 40 20          	lea    0x20(%rax),%r8
  4007a3:	41 b9 00 00 00 00    	mov    $0x0,%r9d
  4007a9:	49 89 f3             	mov    %rsi,%r11
  4007ac:	c5 fd 28 46 ff       	vmovapd -0x1(%rsi),%ymm0
  4007b1:	c5 fd 29 84 24 40 01 	vmovapd %ymm0,0x140(%rsp)
  4007b8:	00 00 
  4007ba:	c5 ff f0 06          	vlddqu (%rsi),%ymm0
  4007be:	c5 fd 29 84 24 60 01 	vmovapd %ymm0,0x160(%rsp)
  4007c5:	00 00 
  4007c7:	c5 fd 6f 8c 24 40 01 	vmovdqa 0x140(%rsp),%ymm1
  4007ce:	00 00 
  4007d0:	c5 fd 6f 84 24 40 01 	vmovdqa 0x140(%rsp),%ymm0
  4007d7:	00 00 
  4007d9:	c4 e3 7d 46 c1 08    	vperm2i128 $0x8,%ymm1,%ymm0,%ymm0
  4007df:	c5 fd 29 84 24 c0 01 	vmovapd %ymm0,0x1c0(%rsp)
  4007e6:	00 00 
  4007e8:	c5 fd 6f 84 24 60 01 	vmovdqa 0x160(%rsp),%ymm0
  4007ef:	00 00 
  4007f1:	c5 fd 6f 8c 24 40 01 	vmovdqa 0x140(%rsp),%ymm1
  4007f8:	00 00 
  4007fa:	c5 f5 db c0          	vpand  %ymm0,%ymm1,%ymm0
  4007fe:	c5 fd 29 84 24 e0 01 	vmovapd %ymm0,0x1e0(%rsp)
  400805:	00 00 
  400807:	c5 fd 6f 8c 24 c0 01 	vmovdqa 0x1c0(%rsp),%ymm1
  40080e:	00 00 
  400810:	c5 fd 6f 84 24 40 01 	vmovdqa 0x140(%rsp),%ymm0
  400817:	00 00 
  400819:	c4 e3 7d 0f c1 0f    	vpalignr $0xf,%ymm1,%ymm0,%ymm0
  40081f:	c5 fd 29 84 24 c0 01 	vmovapd %ymm0,0x1c0(%rsp)
  400826:	00 00 
  400828:	c5 fd 6f 84 24 e0 01 	vmovdqa 0x1e0(%rsp),%ymm0
  40082f:	00 00 
  400831:	c5 fd 6f 8c 24 c0 01 	vmovdqa 0x1c0(%rsp),%ymm1
  400838:	00 00 
  40083a:	c5 f5 db c0          	vpand  %ymm0,%ymm1,%ymm0
  40083e:	c5 fd 29 84 24 c0 01 	vmovapd %ymm0,0x1c0(%rsp)
  400845:	00 00 
  400847:	c5 fd 28 84 24 c0 01 	vmovapd 0x1c0(%rsp),%ymm0
  40084e:	00 00 
  400850:	4d 89 c2             	mov    %r8,%r10
  400853:	c4 c1 7d 29 40 e0    	vmovapd %ymm0,-0x20(%r8)
  400859:	4c 89 c2             	mov    %r8,%rdx
  40085c:	48 8d 46 1e          	lea    0x1e(%rsi),%rax
  400860:	bf 02 00 00 00       	mov    $0x2,%edi
  400865:	c5 ff f0 00          	vlddqu (%rax),%ymm0
  400869:	c5 fd 29 04 24       	vmovapd %ymm0,(%rsp)
  40086e:	c5 fd 28 40 01       	vmovapd 0x1(%rax),%ymm0
  400873:	c5 fd 29 44 24 20    	vmovapd %ymm0,0x20(%rsp)
  400879:	c5 fd 6f 44 24 20    	vmovdqa 0x20(%rsp),%ymm0
  40087f:	c5 fd 6f 0c 24       	vmovdqa (%rsp),%ymm1
  400884:	c5 f5 db c0          	vpand  %ymm0,%ymm1,%ymm0
  400888:	c5 fd 29 04 24       	vmovapd %ymm0,(%rsp)
  40088d:	c5 ff f0 40 02       	vlddqu 0x2(%rax),%ymm0
  400892:	c5 fd 29 44 24 20    	vmovapd %ymm0,0x20(%rsp)
  400898:	c5 fd 6f 44 24 20    	vmovdqa 0x20(%rsp),%ymm0
  40089e:	c5 fd 6f 0c 24       	vmovdqa (%rsp),%ymm1
  4008a3:	c5 f5 db c0          	vpand  %ymm0,%ymm1,%ymm0
  4008a7:	c5 fd 29 04 24       	vmovapd %ymm0,(%rsp)
  4008ac:	c5 fd 28 04 24       	vmovapd (%rsp),%ymm0
  4008b1:	c5 fd 29 02          	vmovapd %ymm0,(%rdx)
  4008b5:	c5 ff f0 00          	vlddqu (%rax),%ymm0
  4008b9:	c5 fd 29 44 24 40    	vmovapd %ymm0,0x40(%rsp)
  4008bf:	c5 fd 28 40 01       	vmovapd 0x1(%rax),%ymm0
  4008c4:	c5 fd 29 44 24 60    	vmovapd %ymm0,0x60(%rsp)
  4008ca:	c5 fd 6f 44 24 60    	vmovdqa 0x60(%rsp),%ymm0
  4008d0:	c5 fd 6f 4c 24 40    	vmovdqa 0x40(%rsp),%ymm1
  4008d6:	c5 f5 db c0          	vpand  %ymm0,%ymm1,%ymm0
  4008da:	c5 fd 29 44 24 40    	vmovapd %ymm0,0x40(%rsp)
  4008e0:	c5 ff f0 40 02       	vlddqu 0x2(%rax),%ymm0
  4008e5:	c5 fd 29 44 24 60    	vmovapd %ymm0,0x60(%rsp)
  4008eb:	c5 fd 6f 44 24 60    	vmovdqa 0x60(%rsp),%ymm0
  4008f1:	c5 fd 6f 4c 24 40    	vmovdqa 0x40(%rsp),%ymm1
  4008f7:	c5 f5 db c0          	vpand  %ymm0,%ymm1,%ymm0
  4008fb:	c5 fd 29 44 24 40    	vmovapd %ymm0,0x40(%rsp)
  400901:	c5 fd 28 44 24 40    	vmovapd 0x40(%rsp),%ymm0
  400907:	c5 fd 29 02          	vmovapd %ymm0,(%rdx)
  40090b:	c5 ff f0 00          	vlddqu (%rax),%ymm0
  40090f:	c5 fd 29 84 24 80 00 	vmovapd %ymm0,0x80(%rsp)
  400916:	00 00 
  400918:	c5 fd 28 40 01       	vmovapd 0x1(%rax),%ymm0
  40091d:	c5 fd 29 84 24 a0 00 	vmovapd %ymm0,0xa0(%rsp)
  400924:	00 00 
  400926:	c5 fd 6f 84 24 a0 00 	vmovdqa 0xa0(%rsp),%ymm0
  40092d:	00 00 
  40092f:	c5 fd 6f 8c 24 80 00 	vmovdqa 0x80(%rsp),%ymm1
  400936:	00 00 
  400938:	c5 f5 db c0          	vpand  %ymm0,%ymm1,%ymm0
  40093c:	c5 fd 29 84 24 80 00 	vmovapd %ymm0,0x80(%rsp)
  400943:	00 00 
  400945:	c5 ff f0 40 02       	vlddqu 0x2(%rax),%ymm0
  40094a:	c5 fd 29 84 24 a0 00 	vmovapd %ymm0,0xa0(%rsp)
  400951:	00 00 
  400953:	c5 fd 6f 84 24 a0 00 	vmovdqa 0xa0(%rsp),%ymm0
  40095a:	00 00 
  40095c:	c5 fd 6f 8c 24 80 00 	vmovdqa 0x80(%rsp),%ymm1
  400963:	00 00 
  400965:	c5 f5 db c0          	vpand  %ymm0,%ymm1,%ymm0
  400969:	c5 fd 29 84 24 80 00 	vmovapd %ymm0,0x80(%rsp)
  400970:	00 00 
  400972:	c5 fd 28 84 24 80 00 	vmovapd 0x80(%rsp),%ymm0
  400979:	00 00 
  40097b:	c5 fd 29 02          	vmovapd %ymm0,(%rdx)
  40097f:	c5 ff f0 00          	vlddqu (%rax),%ymm0
  400983:	c5 fd 29 84 24 c0 00 	vmovapd %ymm0,0xc0(%rsp)
  40098a:	00 00 
  40098c:	c5 fd 28 40 01       	vmovapd 0x1(%rax),%ymm0
  400991:	c5 fd 29 84 24 e0 00 	vmovapd %ymm0,0xe0(%rsp)
  400998:	00 00 
  40099a:	c5 fd 6f 84 24 e0 00 	vmovdqa 0xe0(%rsp),%ymm0
  4009a1:	00 00 
  4009a3:	c5 fd 6f 8c 24 c0 00 	vmovdqa 0xc0(%rsp),%ymm1
  4009aa:	00 00 
  4009ac:	c5 f5 db c0          	vpand  %ymm0,%ymm1,%ymm0
  4009b0:	c5 fd 29 84 24 c0 00 	vmovapd %ymm0,0xc0(%rsp)
  4009b7:	00 00 
  4009b9:	c5 ff f0 40 02       	vlddqu 0x2(%rax),%ymm0
  4009be:	c5 fd 29 84 24 e0 00 	vmovapd %ymm0,0xe0(%rsp)
  4009c5:	00 00 
  4009c7:	c5 fd 6f 84 24 e0 00 	vmovdqa 0xe0(%rsp),%ymm0
  4009ce:	00 00 
  4009d0:	c5 fd 6f 8c 24 c0 00 	vmovdqa 0xc0(%rsp),%ymm1
  4009d7:	00 00 
  4009d9:	c5 f5 db c0          	vpand  %ymm0,%ymm1,%ymm0
  4009dd:	c5 fd 29 84 24 c0 00 	vmovapd %ymm0,0xc0(%rsp)
  4009e4:	00 00 
  4009e6:	c5 fd 28 84 24 c0 00 	vmovapd 0xc0(%rsp),%ymm0
  4009ed:	00 00 
  4009ef:	c5 fd 29 02          	vmovapd %ymm0,(%rdx)
  4009f3:	c5 ff f0 00          	vlddqu (%rax),%ymm0
  4009f7:	c5 fd 29 84 24 00 01 	vmovapd %ymm0,0x100(%rsp)
  4009fe:	00 00 
  400a00:	c5 fd 28 40 01       	vmovapd 0x1(%rax),%ymm0
  400a05:	c5 fd 29 84 24 20 01 	vmovapd %ymm0,0x120(%rsp)
  400a0c:	00 00 
  400a0e:	c5 fd 6f 84 24 20 01 	vmovdqa 0x120(%rsp),%ymm0
  400a15:	00 00 
  400a17:	c5 fd 6f 8c 24 00 01 	vmovdqa 0x100(%rsp),%ymm1
  400a1e:	00 00 
  400a20:	c5 f5 db c0          	vpand  %ymm0,%ymm1,%ymm0
  400a24:	c5 fd 29 84 24 00 01 	vmovapd %ymm0,0x100(%rsp)
  400a2b:	00 00 
  400a2d:	c5 ff f0 40 02       	vlddqu 0x2(%rax),%ymm0
  400a32:	c5 fd 29 84 24 20 01 	vmovapd %ymm0,0x120(%rsp)
  400a39:	00 00 
  400a3b:	c5 fd 6f 84 24 20 01 	vmovdqa 0x120(%rsp),%ymm0
  400a42:	00 00 
  400a44:	c5 fd 6f 8c 24 00 01 	vmovdqa 0x100(%rsp),%ymm1
  400a4b:	00 00 
  400a4d:	c5 f5 db c0          	vpand  %ymm0,%ymm1,%ymm0
  400a51:	c5 fd 29 84 24 00 01 	vmovapd %ymm0,0x100(%rsp)
  400a58:	00 00 
  400a5a:	c5 fd 28 84 24 00 01 	vmovapd 0x100(%rsp),%ymm0
  400a61:	00 00 
  400a63:	c5 fd 29 02          	vmovapd %ymm0,(%rdx)
  400a67:	c5 ff f0 00          	vlddqu (%rax),%ymm0
  400a6b:	c5 fd 29 84 24 40 01 	vmovapd %ymm0,0x140(%rsp)
  400a72:	00 00 
  400a74:	c5 fd 28 40 01       	vmovapd 0x1(%rax),%ymm0
  400a79:	c5 fd 29 84 24 60 01 	vmovapd %ymm0,0x160(%rsp)
  400a80:	00 00 
  400a82:	c5 fd 6f 84 24 60 01 	vmovdqa 0x160(%rsp),%ymm0
  400a89:	00 00 
  400a8b:	c5 fd 6f 8c 24 40 01 	vmovdqa 0x140(%rsp),%ymm1
  400a92:	00 00 
  400a94:	c5 f5 db c0          	vpand  %ymm0,%ymm1,%ymm0
  400a98:	c5 fd 29 84 24 40 01 	vmovapd %ymm0,0x140(%rsp)
  400a9f:	00 00 
  400aa1:	c5 ff f0 40 02       	vlddqu 0x2(%rax),%ymm0
  400aa6:	c5 fd 29 84 24 60 01 	vmovapd %ymm0,0x160(%rsp)
  400aad:	00 00 
  400aaf:	c5 fd 6f 84 24 60 01 	vmovdqa 0x160(%rsp),%ymm0
  400ab6:	00 00 
  400ab8:	c5 fd 6f 8c 24 40 01 	vmovdqa 0x140(%rsp),%ymm1
  400abf:	00 00 
  400ac1:	c5 f5 db c0          	vpand  %ymm0,%ymm1,%ymm0
  400ac5:	c5 fd 29 84 24 40 01 	vmovapd %ymm0,0x140(%rsp)
  400acc:	00 00 
  400ace:	c5 fd 28 84 24 40 01 	vmovapd 0x140(%rsp),%ymm0
  400ad5:	00 00 
  400ad7:	c5 fd 29 02          	vmovapd %ymm0,(%rdx)
  400adb:	c5 ff f0 00          	vlddqu (%rax),%ymm0
  400adf:	c5 fd 29 84 24 80 01 	vmovapd %ymm0,0x180(%rsp)
  400ae6:	00 00 
  400ae8:	c5 fd 28 40 01       	vmovapd 0x1(%rax),%ymm0
  400aed:	c5 fd 29 84 24 a0 01 	vmovapd %ymm0,0x1a0(%rsp)
  400af4:	00 00 
  400af6:	c5 fd 6f 84 24 a0 01 	vmovdqa 0x1a0(%rsp),%ymm0
  400afd:	00 00 
  400aff:	c5 fd 6f 8c 24 80 01 	vmovdqa 0x180(%rsp),%ymm1
  400b06:	00 00 
  400b08:	c5 f5 db c0          	vpand  %ymm0,%ymm1,%ymm0
  400b0c:	c5 fd 29 84 24 80 01 	vmovapd %ymm0,0x180(%rsp)
  400b13:	00 00 
  400b15:	c5 ff f0 40 02       	vlddqu 0x2(%rax),%ymm0
  400b1a:	c5 fd 29 84 24 a0 01 	vmovapd %ymm0,0x1a0(%rsp)
  400b21:	00 00 
  400b23:	c5 fd 6f 84 24 a0 01 	vmovdqa 0x1a0(%rsp),%ymm0
  400b2a:	00 00 
  400b2c:	c5 fd 6f 8c 24 80 01 	vmovdqa 0x180(%rsp),%ymm1
  400b33:	00 00 
  400b35:	c5 f5 db c0          	vpand  %ymm0,%ymm1,%ymm0
  400b39:	c5 fd 29 84 24 80 01 	vmovapd %ymm0,0x180(%rsp)
  400b40:	00 00 
  400b42:	c5 fd 28 84 24 80 01 	vmovapd 0x180(%rsp),%ymm0
  400b49:	00 00 
  400b4b:	c5 fd 29 02          	vmovapd %ymm0,(%rdx)
  400b4f:	c5 ff f0 00          	vlddqu (%rax),%ymm0
  400b53:	c5 fd 29 84 24 c0 01 	vmovapd %ymm0,0x1c0(%rsp)
  400b5a:	00 00 
  400b5c:	c5 fd 28 40 01       	vmovapd 0x1(%rax),%ymm0
  400b61:	c5 fd 29 84 24 e0 01 	vmovapd %ymm0,0x1e0(%rsp)
  400b68:	00 00 
  400b6a:	c5 fd 6f 84 24 e0 01 	vmovdqa 0x1e0(%rsp),%ymm0
  400b71:	00 00 
  400b73:	c5 fd 6f 8c 24 c0 01 	vmovdqa 0x1c0(%rsp),%ymm1
  400b7a:	00 00 
  400b7c:	c5 f5 db c0          	vpand  %ymm0,%ymm1,%ymm0
  400b80:	c5 fd 29 84 24 c0 01 	vmovapd %ymm0,0x1c0(%rsp)
  400b87:	00 00 
  400b89:	c5 ff f0 40 02       	vlddqu 0x2(%rax),%ymm0
  400b8e:	c5 fd 29 84 24 e0 01 	vmovapd %ymm0,0x1e0(%rsp)
  400b95:	00 00 
  400b97:	c5 fd 6f 84 24 e0 01 	vmovdqa 0x1e0(%rsp),%ymm0
  400b9e:	00 00 
  400ba0:	c5 fd 6f 8c 24 c0 01 	vmovdqa 0x1c0(%rsp),%ymm1
  400ba7:	00 00 
  400ba9:	c5 f5 db c0          	vpand  %ymm0,%ymm1,%ymm0
  400bad:	c5 fd 29 84 24 c0 01 	vmovapd %ymm0,0x1c0(%rsp)
  400bb4:	00 00 
  400bb6:	c5 fd 28 84 24 c0 01 	vmovapd 0x1c0(%rsp),%ymm0
  400bbd:	00 00 
  400bbf:	c5 fd 29 02          	vmovapd %ymm0,(%rdx)
  400bc3:	48 05 00 01 00 00    	add    $0x100,%rax
  400bc9:	48 81 c2 00 01 00 00 	add    $0x100,%rdx
  400bd0:	83 ef 01             	sub    $0x1,%edi
  400bd3:	0f 85 8c fc ff ff    	jne    400865 <main+0x1b8>
  400bd9:	41 83 c1 01          	add    $0x1,%r9d
  400bdd:	c4 c1 7d 28 83 df 01 	vmovapd 0x1df(%r11),%ymm0
  400be4:	00 00 
  400be6:	c5 fd 29 04 24       	vmovapd %ymm0,(%rsp)
  400beb:	c5 ff f0 86 de 01 00 	vlddqu 0x1de(%rsi),%ymm0
  400bf2:	00 
  400bf3:	c5 fd 29 44 24 20    	vmovapd %ymm0,0x20(%rsp)
  400bf9:	c5 fd 6f 0c 24       	vmovdqa (%rsp),%ymm1
  400bfe:	c5 fd 6f 04 24       	vmovdqa (%rsp),%ymm0
  400c03:	c4 e3 7d 46 c1 81    	vperm2i128 $0x81,%ymm1,%ymm0,%ymm0
  400c09:	c5 fd 29 44 24 40    	vmovapd %ymm0,0x40(%rsp)
  400c0f:	c5 fd 6f 44 24 20    	vmovdqa 0x20(%rsp),%ymm0
  400c15:	c5 fd 6f 0c 24       	vmovdqa (%rsp),%ymm1
  400c1a:	c5 f5 db c0          	vpand  %ymm0,%ymm1,%ymm0
  400c1e:	c5 fd 29 44 24 60    	vmovapd %ymm0,0x60(%rsp)
  400c24:	c5 fd 6f 0c 24       	vmovdqa (%rsp),%ymm1
  400c29:	c5 fd 6f 44 24 40    	vmovdqa 0x40(%rsp),%ymm0
  400c2f:	c4 e3 7d 0f c1 01    	vpalignr $0x1,%ymm1,%ymm0,%ymm0
  400c35:	c5 fd 29 44 24 40    	vmovapd %ymm0,0x40(%rsp)
  400c3b:	c5 fd 6f 44 24 60    	vmovdqa 0x60(%rsp),%ymm0
  400c41:	c5 fd 6f 4c 24 40    	vmovdqa 0x40(%rsp),%ymm1
  400c47:	c5 f5 db c0          	vpand  %ymm0,%ymm1,%ymm0
  400c4b:	c5 fd 29 44 24 40    	vmovapd %ymm0,0x40(%rsp)
  400c51:	c5 fd 28 44 24 40    	vmovapd 0x40(%rsp),%ymm0
  400c57:	c4 c1 7d 29 82 c0 01 	vmovapd %ymm0,0x1c0(%r10)
  400c5e:	00 00 
  400c60:	48 81 c6 00 02 00 00 	add    $0x200,%rsi
  400c67:	49 81 c0 00 02 00 00 	add    $0x200,%r8
  400c6e:	41 83 f9 10          	cmp    $0x10,%r9d
  400c72:	0f 85 31 fb ff ff    	jne    4007a9 <main+0xfc>
  400c78:	0f 31                	rdtsc  
  400c7a:	48 c1 e2 20          	shl    $0x20,%rdx
  400c7e:	89 c0                	mov    %eax,%eax
  400c80:	48 09 d0             	or     %rdx,%rax
  400c83:	4c 29 e8             	sub    %r13,%rax
  400c86:	48 39 c3             	cmp    %rax,%rbx
  400c89:	48 0f 47 d8          	cmova  %rax,%rbx
  400c8d:	41 83 ec 01          	sub    $0x1,%r12d
  400c91:	0f 85 e6 fa ff ff    	jne    40077d <main+0xd0>
  400c97:	48 85 db             	test   %rbx,%rbx
  400c9a:	78 07                	js     400ca3 <main+0x5f6>
  400c9c:	c4 e1 fb 2a c3       	vcvtsi2sd %rbx,%xmm0,%xmm0
  400ca1:	eb 15                	jmp    400cb8 <main+0x60b>
  400ca3:	48 89 d8             	mov    %rbx,%rax
  400ca6:	48 d1 e8             	shr    %rax
  400ca9:	83 e3 01             	and    $0x1,%ebx
  400cac:	48 09 d8             	or     %rbx,%rax
  400caf:	c4 e1 fb 2a c0       	vcvtsi2sd %rax,%xmm0,%xmm0
  400cb4:	c5 fb 58 c0          	vaddsd %xmm0,%xmm0,%xmm0
  400cb8:	c5 fb 59 05 50 10 00 	vmulsd 0x1050(%rip),%xmm0,%xmm0        # 401d10 <__dso_handle+0x78>
  400cbf:	00 
  400cc0:	c5 fb 10 0d 50 10 00 	vmovsd 0x1050(%rip),%xmm1        # 401d18 <__dso_handle+0x80>
  400cc7:	00 
  400cc8:	c5 f3 5e c0          	vdivsd %xmm0,%xmm1,%xmm0
  400ccc:	bf a4 1c 40 00       	mov    $0x401ca4,%edi
  400cd1:	b8 01 00 00 00       	mov    $0x1,%eax
  400cd6:	e8 f5 f7 ff ff       	callq  4004d0 <printf@plt>
  400cdb:	41 b8 40 42 0f 00    	mov    $0xf4240,%r8d
  400ce1:	48 c7 c7 ff ff ff ff 	mov    $0xffffffffffffffff,%rdi
  400ce8:	c5 f1 57 c9          	vxorpd %xmm1,%xmm1,%xmm1
  400cec:	0f 31                	rdtsc  
  400cee:	49 89 d1             	mov    %rdx,%r9
  400cf1:	49 c1 e1 20          	shl    $0x20,%r9
  400cf5:	89 c0                	mov    %eax,%eax
  400cf7:	49 09 c1             	or     %rax,%r9
  400cfa:	48 8b 8c 24 08 06 00 	mov    0x608(%rsp),%rcx
  400d01:	00 
  400d02:	c5 fd 29 8c 24 00 02 	vmovapd %ymm1,0x200(%rsp)
  400d09:	00 00 
  400d0b:	c5 fd 29 8c 24 20 02 	vmovapd %ymm1,0x220(%rsp)
  400d12:	00 00 
  400d14:	c5 fd 29 8c 24 40 02 	vmovapd %ymm1,0x240(%rsp)
  400d1b:	00 00 
  400d1d:	c5 fd 29 8c 24 60 02 	vmovapd %ymm1,0x260(%rsp)
  400d24:	00 00 
  400d26:	c5 fd 29 8c 24 80 02 	vmovapd %ymm1,0x280(%rsp)
  400d2d:	00 00 
  400d2f:	c5 fd 29 8c 24 a0 02 	vmovapd %ymm1,0x2a0(%rsp)
  400d36:	00 00 
  400d38:	c5 fd 29 8c 24 c0 02 	vmovapd %ymm1,0x2c0(%rsp)
  400d3f:	00 00 
  400d41:	c5 fd 29 8c 24 e0 02 	vmovapd %ymm1,0x2e0(%rsp)
  400d48:	00 00 
  400d4a:	c5 fd 29 8c 24 00 03 	vmovapd %ymm1,0x300(%rsp)
  400d51:	00 00 
  400d53:	c5 fd 29 8c 24 20 03 	vmovapd %ymm1,0x320(%rsp)
  400d5a:	00 00 
  400d5c:	c5 fd 29 8c 24 40 03 	vmovapd %ymm1,0x340(%rsp)
  400d63:	00 00 
  400d65:	c5 fd 29 8c 24 60 03 	vmovapd %ymm1,0x360(%rsp)
  400d6c:	00 00 
  400d6e:	c5 fd 29 8c 24 80 03 	vmovapd %ymm1,0x380(%rsp)
  400d75:	00 00 
  400d77:	c5 fd 29 8c 24 a0 03 	vmovapd %ymm1,0x3a0(%rsp)
  400d7e:	00 00 
  400d80:	c5 fd 29 8c 24 c0 03 	vmovapd %ymm1,0x3c0(%rsp)
  400d87:	00 00 
  400d89:	c5 fd 29 8c 24 e0 03 	vmovapd %ymm1,0x3e0(%rsp)
  400d90:	00 00 
  400d92:	48 8b 94 24 10 06 00 	mov    0x610(%rsp),%rdx
  400d99:	00 
  400d9a:	b8 00 00 00 00       	mov    $0x0,%eax
  400d9f:	c5 fd 28 02          	vmovapd (%rdx),%ymm0
  400da3:	c5 fd 29 84 24 00 02 	vmovapd %ymm0,0x200(%rsp)
  400daa:	00 00 
  400dac:	c5 fd 28 42 20       	vmovapd 0x20(%rdx),%ymm0
  400db1:	c5 fd 29 84 24 20 02 	vmovapd %ymm0,0x220(%rsp)
  400db8:	00 00 
  400dba:	c5 fd 28 42 40       	vmovapd 0x40(%rdx),%ymm0
  400dbf:	c5 fd 29 84 24 40 02 	vmovapd %ymm0,0x240(%rsp)
  400dc6:	00 00 
  400dc8:	c5 fd 28 42 60       	vmovapd 0x60(%rdx),%ymm0
  400dcd:	c5 fd 29 84 24 60 02 	vmovapd %ymm0,0x260(%rsp)
  400dd4:	00 00 
  400dd6:	c5 fd 28 82 80 00 00 	vmovapd 0x80(%rdx),%ymm0
  400ddd:	00 
  400dde:	c5 fd 29 84 24 80 02 	vmovapd %ymm0,0x280(%rsp)
  400de5:	00 00 
  400de7:	c5 fd 28 82 a0 00 00 	vmovapd 0xa0(%rdx),%ymm0
  400dee:	00 
  400def:	c5 fd 29 84 24 a0 02 	vmovapd %ymm0,0x2a0(%rsp)
  400df6:	00 00 
  400df8:	c5 fd 28 82 c0 00 00 	vmovapd 0xc0(%rdx),%ymm0
  400dff:	00 
  400e00:	c5 fd 29 84 24 c0 02 	vmovapd %ymm0,0x2c0(%rsp)
  400e07:	00 00 
  400e09:	c5 fd 28 82 e0 00 00 	vmovapd 0xe0(%rdx),%ymm0
  400e10:	00 
  400e11:	c5 fd 29 84 24 e0 02 	vmovapd %ymm0,0x2e0(%rsp)
  400e18:	00 00 
  400e1a:	c5 fd 28 82 00 01 00 	vmovapd 0x100(%rdx),%ymm0
  400e21:	00 
  400e22:	c5 fd 29 84 24 00 03 	vmovapd %ymm0,0x300(%rsp)
  400e29:	00 00 
  400e2b:	c5 fd 28 82 20 01 00 	vmovapd 0x120(%rdx),%ymm0
  400e32:	00 
  400e33:	c5 fd 29 84 24 20 03 	vmovapd %ymm0,0x320(%rsp)
  400e3a:	00 00 
  400e3c:	c5 fd 28 82 40 01 00 	vmovapd 0x140(%rdx),%ymm0
  400e43:	00 
  400e44:	c5 fd 29 84 24 40 03 	vmovapd %ymm0,0x340(%rsp)
  400e4b:	00 00 
  400e4d:	c5 fd 28 82 60 01 00 	vmovapd 0x160(%rdx),%ymm0
  400e54:	00 
  400e55:	c5 fd 29 84 24 60 03 	vmovapd %ymm0,0x360(%rsp)
  400e5c:	00 00 
  400e5e:	c5 fd 28 82 80 01 00 	vmovapd 0x180(%rdx),%ymm0
  400e65:	00 
  400e66:	c5 fd 29 84 24 80 03 	vmovapd %ymm0,0x380(%rsp)
  400e6d:	00 00 
  400e6f:	c5 fd 28 82 a0 01 00 	vmovapd 0x1a0(%rdx),%ymm0
  400e76:	00 
  400e77:	c5 fd 29 84 24 a0 03 	vmovapd %ymm0,0x3a0(%rsp)
  400e7e:	00 00 
  400e80:	c5 fd 28 82 c0 01 00 	vmovapd 0x1c0(%rdx),%ymm0
  400e87:	00 
  400e88:	c5 fd 29 84 24 c0 03 	vmovapd %ymm0,0x3c0(%rsp)
  400e8f:	00 00 
  400e91:	c5 fd 28 82 e0 01 00 	vmovapd 0x1e0(%rdx),%ymm0
  400e98:	00 
  400e99:	c5 fd 29 84 24 e0 03 	vmovapd %ymm0,0x3e0(%rsp)
  400ea0:	00 00 
  400ea2:	c5 fd 28 84 24 00 02 	vmovapd 0x200(%rsp),%ymm0
  400ea9:	00 00 
  400eab:	44 8d 90 ff 01 00 00 	lea    0x1ff(%rax),%r10d
  400eb2:	85 c0                	test   %eax,%eax
  400eb4:	44 0f 49 d0          	cmovns %eax,%r10d
  400eb8:	41 c1 fa 09          	sar    $0x9,%r10d
  400ebc:	41 c1 e2 05          	shl    $0x5,%r10d
  400ec0:	89 c6                	mov    %eax,%esi
  400ec2:	c1 fe 1f             	sar    $0x1f,%esi
  400ec5:	c1 ee 17             	shr    $0x17,%esi
  400ec8:	44 8d 1c 30          	lea    (%rax,%rsi,1),%r11d
  400ecc:	41 81 e3 ff 01 00 00 	and    $0x1ff,%r11d
  400ed3:	41 29 f3             	sub    %esi,%r11d
  400ed6:	44 89 de             	mov    %r11d,%esi
  400ed9:	c1 e6 04             	shl    $0x4,%esi
  400edc:	44 01 d6             	add    %r10d,%esi
  400edf:	48 63 f6             	movslq %esi,%rsi
  400ee2:	c5 fd 29 04 31       	vmovapd %ymm0,(%rcx,%rsi,1)
  400ee7:	c5 fd 28 84 24 20 02 	vmovapd 0x220(%rsp),%ymm0
  400eee:	00 00 
  400ef0:	44 8d 98 1f 02 00 00 	lea    0x21f(%rax),%r11d
  400ef7:	89 c6                	mov    %eax,%esi
  400ef9:	83 c6 20             	add    $0x20,%esi
  400efc:	44 0f 49 de          	cmovns %esi,%r11d
  400f00:	41 c1 fb 09          	sar    $0x9,%r11d
  400f04:	41 c1 e3 05          	shl    $0x5,%r11d
  400f08:	41 89 f2             	mov    %esi,%r10d
  400f0b:	41 c1 fa 1f          	sar    $0x1f,%r10d
  400f0f:	41 c1 ea 17          	shr    $0x17,%r10d
  400f13:	44 01 d6             	add    %r10d,%esi
  400f16:	81 e6 ff 01 00 00    	and    $0x1ff,%esi
  400f1c:	44 29 d6             	sub    %r10d,%esi
  400f1f:	c1 e6 04             	shl    $0x4,%esi
  400f22:	44 01 de             	add    %r11d,%esi
  400f25:	48 63 f6             	movslq %esi,%rsi
  400f28:	c5 fd 29 04 31       	vmovapd %ymm0,(%rcx,%rsi,1)
  400f2d:	c5 fd 28 84 24 40 02 	vmovapd 0x240(%rsp),%ymm0
  400f34:	00 00 
  400f36:	44 8d 98 3f 02 00 00 	lea    0x23f(%rax),%r11d
  400f3d:	89 c6                	mov    %eax,%esi
  400f3f:	83 c6 40             	add    $0x40,%esi
  400f42:	44 0f 49 de          	cmovns %esi,%r11d
  400f46:	41 c1 fb 09          	sar    $0x9,%r11d
  400f4a:	41 c1 e3 05          	shl    $0x5,%r11d
  400f4e:	41 89 f2             	mov    %esi,%r10d
  400f51:	41 c1 fa 1f          	sar    $0x1f,%r10d
  400f55:	41 c1 ea 17          	shr    $0x17,%r10d
  400f59:	44 01 d6             	add    %r10d,%esi
  400f5c:	81 e6 ff 01 00 00    	and    $0x1ff,%esi
  400f62:	44 29 d6             	sub    %r10d,%esi
  400f65:	c1 e6 04             	shl    $0x4,%esi
  400f68:	44 01 de             	add    %r11d,%esi
  400f6b:	48 63 f6             	movslq %esi,%rsi
  400f6e:	c5 fd 29 04 31       	vmovapd %ymm0,(%rcx,%rsi,1)
  400f73:	c5 fd 28 84 24 60 02 	vmovapd 0x260(%rsp),%ymm0
  400f7a:	00 00 
  400f7c:	44 8d 98 5f 02 00 00 	lea    0x25f(%rax),%r11d
  400f83:	89 c6                	mov    %eax,%esi
  400f85:	83 c6 60             	add    $0x60,%esi
  400f88:	44 0f 49 de          	cmovns %esi,%r11d
  400f8c:	41 c1 fb 09          	sar    $0x9,%r11d
  400f90:	41 c1 e3 05          	shl    $0x5,%r11d
  400f94:	41 89 f2             	mov    %esi,%r10d
  400f97:	41 c1 fa 1f          	sar    $0x1f,%r10d
  400f9b:	41 c1 ea 17          	shr    $0x17,%r10d
  400f9f:	44 01 d6             	add    %r10d,%esi
  400fa2:	81 e6 ff 01 00 00    	and    $0x1ff,%esi
  400fa8:	44 29 d6             	sub    %r10d,%esi
  400fab:	c1 e6 04             	shl    $0x4,%esi
  400fae:	44 01 de             	add    %r11d,%esi
  400fb1:	48 63 f6             	movslq %esi,%rsi
  400fb4:	c5 fd 29 04 31       	vmovapd %ymm0,(%rcx,%rsi,1)
  400fb9:	c5 fd 28 84 24 80 02 	vmovapd 0x280(%rsp),%ymm0
  400fc0:	00 00 
  400fc2:	44 8d 98 7f 02 00 00 	lea    0x27f(%rax),%r11d
  400fc9:	89 c6                	mov    %eax,%esi
  400fcb:	83 ee 80             	sub    $0xffffff80,%esi
  400fce:	44 0f 49 de          	cmovns %esi,%r11d
  400fd2:	41 c1 fb 09          	sar    $0x9,%r11d
  400fd6:	41 c1 e3 05          	shl    $0x5,%r11d
  400fda:	41 89 f2             	mov    %esi,%r10d
  400fdd:	41 c1 fa 1f          	sar    $0x1f,%r10d
  400fe1:	41 c1 ea 17          	shr    $0x17,%r10d
  400fe5:	44 01 d6             	add    %r10d,%esi
  400fe8:	81 e6 ff 01 00 00    	and    $0x1ff,%esi
  400fee:	44 29 d6             	sub    %r10d,%esi
  400ff1:	c1 e6 04             	shl    $0x4,%esi
  400ff4:	44 01 de             	add    %r11d,%esi
  400ff7:	48 63 f6             	movslq %esi,%rsi
  400ffa:	c5 fd 29 04 31       	vmovapd %ymm0,(%rcx,%rsi,1)
  400fff:	c5 fd 28 84 24 a0 02 	vmovapd 0x2a0(%rsp),%ymm0
  401006:	00 00 
  401008:	44 8d 98 9f 02 00 00 	lea    0x29f(%rax),%r11d
  40100f:	89 c6                	mov    %eax,%esi
  401011:	81 c6 a0 00 00 00    	add    $0xa0,%esi
  401017:	44 0f 49 de          	cmovns %esi,%r11d
  40101b:	41 c1 fb 09          	sar    $0x9,%r11d
  40101f:	41 c1 e3 05          	shl    $0x5,%r11d
  401023:	41 89 f2             	mov    %esi,%r10d
  401026:	41 c1 fa 1f          	sar    $0x1f,%r10d
  40102a:	41 c1 ea 17          	shr    $0x17,%r10d
  40102e:	44 01 d6             	add    %r10d,%esi
  401031:	81 e6 ff 01 00 00    	and    $0x1ff,%esi
  401037:	44 29 d6             	sub    %r10d,%esi
  40103a:	c1 e6 04             	shl    $0x4,%esi
  40103d:	44 01 de             	add    %r11d,%esi
  401040:	48 63 f6             	movslq %esi,%rsi
  401043:	c5 fd 29 04 31       	vmovapd %ymm0,(%rcx,%rsi,1)
  401048:	c5 fd 28 84 24 c0 02 	vmovapd 0x2c0(%rsp),%ymm0
  40104f:	00 00 
  401051:	44 8d 98 bf 02 00 00 	lea    0x2bf(%rax),%r11d
  401058:	89 c6                	mov    %eax,%esi
  40105a:	81 c6 c0 00 00 00    	add    $0xc0,%esi
  401060:	44 0f 49 de          	cmovns %esi,%r11d
  401064:	41 c1 fb 09          	sar    $0x9,%r11d
  401068:	41 c1 e3 05          	shl    $0x5,%r11d
  40106c:	41 89 f2             	mov    %esi,%r10d
  40106f:	41 c1 fa 1f          	sar    $0x1f,%r10d
  401073:	41 c1 ea 17          	shr    $0x17,%r10d
  401077:	44 01 d6             	add    %r10d,%esi
  40107a:	81 e6 ff 01 00 00    	and    $0x1ff,%esi
  401080:	44 29 d6             	sub    %r10d,%esi
  401083:	c1 e6 04             	shl    $0x4,%esi
  401086:	44 01 de             	add    %r11d,%esi
  401089:	48 63 f6             	movslq %esi,%rsi
  40108c:	c5 fd 29 04 31       	vmovapd %ymm0,(%rcx,%rsi,1)
  401091:	c5 fd 28 84 24 e0 02 	vmovapd 0x2e0(%rsp),%ymm0
  401098:	00 00 
  40109a:	44 8d 98 df 02 00 00 	lea    0x2df(%rax),%r11d
  4010a1:	89 c6                	mov    %eax,%esi
  4010a3:	81 c6 e0 00 00 00    	add    $0xe0,%esi
  4010a9:	44 0f 49 de          	cmovns %esi,%r11d
  4010ad:	41 c1 fb 09          	sar    $0x9,%r11d
  4010b1:	41 c1 e3 05          	shl    $0x5,%r11d
  4010b5:	41 89 f2             	mov    %esi,%r10d
  4010b8:	41 c1 fa 1f          	sar    $0x1f,%r10d
  4010bc:	41 c1 ea 17          	shr    $0x17,%r10d
  4010c0:	44 01 d6             	add    %r10d,%esi
  4010c3:	81 e6 ff 01 00 00    	and    $0x1ff,%esi
  4010c9:	44 29 d6             	sub    %r10d,%esi
  4010cc:	c1 e6 04             	shl    $0x4,%esi
  4010cf:	44 01 de             	add    %r11d,%esi
  4010d2:	48 63 f6             	movslq %esi,%rsi
  4010d5:	c5 fd 29 04 31       	vmovapd %ymm0,(%rcx,%rsi,1)
  4010da:	c5 fd 28 84 24 00 03 	vmovapd 0x300(%rsp),%ymm0
  4010e1:	00 00 
  4010e3:	44 8d 98 ff 02 00 00 	lea    0x2ff(%rax),%r11d
  4010ea:	89 c6                	mov    %eax,%esi
  4010ec:	81 c6 00 01 00 00    	add    $0x100,%esi
  4010f2:	44 0f 49 de          	cmovns %esi,%r11d
  4010f6:	41 c1 fb 09          	sar    $0x9,%r11d
  4010fa:	41 c1 e3 05          	shl    $0x5,%r11d
  4010fe:	41 89 f2             	mov    %esi,%r10d
  401101:	41 c1 fa 1f          	sar    $0x1f,%r10d
  401105:	41 c1 ea 17          	shr    $0x17,%r10d
  401109:	44 01 d6             	add    %r10d,%esi
  40110c:	81 e6 ff 01 00 00    	and    $0x1ff,%esi
  401112:	44 29 d6             	sub    %r10d,%esi
  401115:	c1 e6 04             	shl    $0x4,%esi
  401118:	44 01 de             	add    %r11d,%esi
  40111b:	48 63 f6             	movslq %esi,%rsi
  40111e:	c5 fd 29 04 31       	vmovapd %ymm0,(%rcx,%rsi,1)
  401123:	c5 fd 28 84 24 20 03 	vmovapd 0x320(%rsp),%ymm0
  40112a:	00 00 
  40112c:	44 8d 98 1f 03 00 00 	lea    0x31f(%rax),%r11d
  401133:	89 c6                	mov    %eax,%esi
  401135:	81 c6 20 01 00 00    	add    $0x120,%esi
  40113b:	44 0f 49 de          	cmovns %esi,%r11d
  40113f:	41 c1 fb 09          	sar    $0x9,%r11d
  401143:	41 c1 e3 05          	shl    $0x5,%r11d
  401147:	41 89 f2             	mov    %esi,%r10d
  40114a:	41 c1 fa 1f          	sar    $0x1f,%r10d
  40114e:	41 c1 ea 17          	shr    $0x17,%r10d
  401152:	44 01 d6             	add    %r10d,%esi
  401155:	81 e6 ff 01 00 00    	and    $0x1ff,%esi
  40115b:	44 29 d6             	sub    %r10d,%esi
  40115e:	c1 e6 04             	shl    $0x4,%esi
  401161:	44 01 de             	add    %r11d,%esi
  401164:	48 63 f6             	movslq %esi,%rsi
  401167:	c5 fd 29 04 31       	vmovapd %ymm0,(%rcx,%rsi,1)
  40116c:	c5 fd 28 84 24 40 03 	vmovapd 0x340(%rsp),%ymm0
  401173:	00 00 
  401175:	44 8d 98 3f 03 00 00 	lea    0x33f(%rax),%r11d
  40117c:	89 c6                	mov    %eax,%esi
  40117e:	81 c6 40 01 00 00    	add    $0x140,%esi
  401184:	44 0f 49 de          	cmovns %esi,%r11d
  401188:	41 c1 fb 09          	sar    $0x9,%r11d
  40118c:	41 c1 e3 05          	shl    $0x5,%r11d
  401190:	41 89 f2             	mov    %esi,%r10d
  401193:	41 c1 fa 1f          	sar    $0x1f,%r10d
  401197:	41 c1 ea 17          	shr    $0x17,%r10d
  40119b:	44 01 d6             	add    %r10d,%esi
  40119e:	81 e6 ff 01 00 00    	and    $0x1ff,%esi
  4011a4:	44 29 d6             	sub    %r10d,%esi
  4011a7:	c1 e6 04             	shl    $0x4,%esi
  4011aa:	44 01 de             	add    %r11d,%esi
  4011ad:	48 63 f6             	movslq %esi,%rsi
  4011b0:	c5 fd 29 04 31       	vmovapd %ymm0,(%rcx,%rsi,1)
  4011b5:	c5 fd 28 84 24 60 03 	vmovapd 0x360(%rsp),%ymm0
  4011bc:	00 00 
  4011be:	44 8d 98 5f 03 00 00 	lea    0x35f(%rax),%r11d
  4011c5:	89 c6                	mov    %eax,%esi
  4011c7:	81 c6 60 01 00 00    	add    $0x160,%esi
  4011cd:	44 0f 49 de          	cmovns %esi,%r11d
  4011d1:	41 c1 fb 09          	sar    $0x9,%r11d
  4011d5:	41 c1 e3 05          	shl    $0x5,%r11d
  4011d9:	41 89 f2             	mov    %esi,%r10d
  4011dc:	41 c1 fa 1f          	sar    $0x1f,%r10d
  4011e0:	41 c1 ea 17          	shr    $0x17,%r10d
  4011e4:	44 01 d6             	add    %r10d,%esi
  4011e7:	81 e6 ff 01 00 00    	and    $0x1ff,%esi
  4011ed:	44 29 d6             	sub    %r10d,%esi
  4011f0:	c1 e6 04             	shl    $0x4,%esi
  4011f3:	44 01 de             	add    %r11d,%esi
  4011f6:	48 63 f6             	movslq %esi,%rsi
  4011f9:	c5 fd 29 04 31       	vmovapd %ymm0,(%rcx,%rsi,1)
  4011fe:	c5 fd 28 84 24 80 03 	vmovapd 0x380(%rsp),%ymm0
  401205:	00 00 
  401207:	44 8d 98 7f 03 00 00 	lea    0x37f(%rax),%r11d
  40120e:	89 c6                	mov    %eax,%esi
  401210:	81 c6 80 01 00 00    	add    $0x180,%esi
  401216:	44 0f 49 de          	cmovns %esi,%r11d
  40121a:	41 c1 fb 09          	sar    $0x9,%r11d
  40121e:	41 c1 e3 05          	shl    $0x5,%r11d
  401222:	41 89 f2             	mov    %esi,%r10d
  401225:	41 c1 fa 1f          	sar    $0x1f,%r10d
  401229:	41 c1 ea 17          	shr    $0x17,%r10d
  40122d:	44 01 d6             	add    %r10d,%esi
  401230:	81 e6 ff 01 00 00    	and    $0x1ff,%esi
  401236:	44 29 d6             	sub    %r10d,%esi
  401239:	c1 e6 04             	shl    $0x4,%esi
  40123c:	44 01 de             	add    %r11d,%esi
  40123f:	48 63 f6             	movslq %esi,%rsi
  401242:	c5 fd 29 04 31       	vmovapd %ymm0,(%rcx,%rsi,1)
  401247:	c5 fd 28 84 24 a0 03 	vmovapd 0x3a0(%rsp),%ymm0
  40124e:	00 00 
  401250:	44 8d 98 9f 03 00 00 	lea    0x39f(%rax),%r11d
  401257:	89 c6                	mov    %eax,%esi
  401259:	81 c6 a0 01 00 00    	add    $0x1a0,%esi
  40125f:	44 0f 49 de          	cmovns %esi,%r11d
  401263:	41 c1 fb 09          	sar    $0x9,%r11d
  401267:	41 c1 e3 05          	shl    $0x5,%r11d
  40126b:	41 89 f2             	mov    %esi,%r10d
  40126e:	41 c1 fa 1f          	sar    $0x1f,%r10d
  401272:	41 c1 ea 17          	shr    $0x17,%r10d
  401276:	44 01 d6             	add    %r10d,%esi
  401279:	81 e6 ff 01 00 00    	and    $0x1ff,%esi
  40127f:	44 29 d6             	sub    %r10d,%esi
  401282:	c1 e6 04             	shl    $0x4,%esi
  401285:	44 01 de             	add    %r11d,%esi
  401288:	48 63 f6             	movslq %esi,%rsi
  40128b:	c5 fd 29 04 31       	vmovapd %ymm0,(%rcx,%rsi,1)
  401290:	c5 fd 28 84 24 c0 03 	vmovapd 0x3c0(%rsp),%ymm0
  401297:	00 00 
  401299:	44 8d 98 bf 03 00 00 	lea    0x3bf(%rax),%r11d
  4012a0:	89 c6                	mov    %eax,%esi
  4012a2:	81 c6 c0 01 00 00    	add    $0x1c0,%esi
  4012a8:	44 0f 49 de          	cmovns %esi,%r11d
  4012ac:	41 c1 fb 09          	sar    $0x9,%r11d
  4012b0:	41 c1 e3 05          	shl    $0x5,%r11d
  4012b4:	41 89 f2             	mov    %esi,%r10d
  4012b7:	41 c1 fa 1f          	sar    $0x1f,%r10d
  4012bb:	41 c1 ea 17          	shr    $0x17,%r10d
  4012bf:	44 01 d6             	add    %r10d,%esi
  4012c2:	81 e6 ff 01 00 00    	and    $0x1ff,%esi
  4012c8:	44 29 d6             	sub    %r10d,%esi
  4012cb:	c1 e6 04             	shl    $0x4,%esi
  4012ce:	44 01 de             	add    %r11d,%esi
  4012d1:	48 63 f6             	movslq %esi,%rsi
  4012d4:	c5 fd 29 04 31       	vmovapd %ymm0,(%rcx,%rsi,1)
  4012d9:	c5 fd 28 84 24 e0 03 	vmovapd 0x3e0(%rsp),%ymm0
  4012e0:	00 00 
  4012e2:	44 8d 98 df 03 00 00 	lea    0x3df(%rax),%r11d
  4012e9:	89 c6                	mov    %eax,%esi
  4012eb:	81 c6 e0 01 00 00    	add    $0x1e0,%esi
  4012f1:	44 0f 49 de          	cmovns %esi,%r11d
  4012f5:	41 c1 fb 09          	sar    $0x9,%r11d
  4012f9:	41 c1 e3 05          	shl    $0x5,%r11d
  4012fd:	41 89 f2             	mov    %esi,%r10d
  401300:	41 c1 fa 1f          	sar    $0x1f,%r10d
  401304:	41 c1 ea 17          	shr    $0x17,%r10d
  401308:	44 01 d6             	add    %r10d,%esi
  40130b:	81 e6 ff 01 00 00    	and    $0x1ff,%esi
  401311:	44 29 d6             	sub    %r10d,%esi
  401314:	c1 e6 04             	shl    $0x4,%esi
  401317:	44 01 de             	add    %r11d,%esi
  40131a:	48 63 f6             	movslq %esi,%rsi
  40131d:	c5 fd 29 04 31       	vmovapd %ymm0,(%rcx,%rsi,1)
  401322:	05 00 02 00 00       	add    $0x200,%eax
  401327:	48 81 c2 00 02 00 00 	add    $0x200,%rdx
  40132e:	3d 00 20 00 00       	cmp    $0x2000,%eax
  401333:	0f 85 66 fa ff ff    	jne    400d9f <main+0x6f2>
  401339:	0f 31                	rdtsc  
  40133b:	48 c1 e2 20          	shl    $0x20,%rdx
  40133f:	89 c0                	mov    %eax,%eax
  401341:	48 09 d0             	or     %rdx,%rax
  401344:	4c 29 c8             	sub    %r9,%rax
  401347:	48 39 c7             	cmp    %rax,%rdi
  40134a:	48 0f 47 f8          	cmova  %rax,%rdi
  40134e:	41 83 e8 01          	sub    $0x1,%r8d
  401352:	0f 85 94 f9 ff ff    	jne    400cec <main+0x63f>
  401358:	48 85 ff             	test   %rdi,%rdi
  40135b:	78 07                	js     401364 <main+0xcb7>
  40135d:	c4 e1 fb 2a c7       	vcvtsi2sd %rdi,%xmm0,%xmm0
  401362:	eb 15                	jmp    401379 <main+0xccc>
  401364:	48 89 f8             	mov    %rdi,%rax
  401367:	48 d1 e8             	shr    %rax
  40136a:	83 e7 01             	and    $0x1,%edi
  40136d:	48 09 f8             	or     %rdi,%rax
  401370:	c4 e1 fb 2a c0       	vcvtsi2sd %rax,%xmm0,%xmm0
  401375:	c5 fb 58 c0          	vaddsd %xmm0,%xmm0,%xmm0
  401379:	c5 fb 59 05 8f 09 00 	vmulsd 0x98f(%rip),%xmm0,%xmm0        # 401d10 <__dso_handle+0x78>
  401380:	00 
  401381:	c5 fb 10 0d 97 09 00 	vmovsd 0x997(%rip),%xmm1        # 401d20 <__dso_handle+0x88>
  401388:	00 
  401389:	c5 f3 5e c0          	vdivsd %xmm0,%xmm1,%xmm0
  40138d:	bf bf 1c 40 00       	mov    $0x401cbf,%edi
  401392:	b8 01 00 00 00       	mov    $0x1,%eax
  401397:	e8 34 f1 ff ff       	callq  4004d0 <printf@plt>
  40139c:	41 b8 40 42 0f 00    	mov    $0xf4240,%r8d
  4013a2:	48 c7 c7 ff ff ff ff 	mov    $0xffffffffffffffff,%rdi
  4013a9:	c4 41 29 57 d2       	vxorpd %xmm10,%xmm10,%xmm10
  4013ae:	0f 31                	rdtsc  
  4013b0:	49 89 d1             	mov    %rdx,%r9
  4013b3:	49 c1 e1 20          	shl    $0x20,%r9
  4013b7:	89 c0                	mov    %eax,%eax
  4013b9:	49 09 c1             	or     %rax,%r9
  4013bc:	48 8b 84 24 08 06 00 	mov    0x608(%rsp),%rax
  4013c3:	00 
  4013c4:	48 8d 90 80 00 00 00 	lea    0x80(%rax),%rdx
  4013cb:	be 10 00 00 00       	mov    $0x10,%esi
  4013d0:	c5 fd 28 4a a0       	vmovapd -0x60(%rdx),%ymm1
  4013d5:	c5 fd 28 42 c0       	vmovapd -0x40(%rdx),%ymm0
  4013da:	c5 fd 28 52 e0       	vmovapd -0x20(%rdx),%ymm2
  4013df:	c5 f5 db 5a 80       	vpand  -0x80(%rdx),%ymm1,%ymm3
  4013e4:	c5 7d db c9          	vpand  %ymm1,%ymm0,%ymm9
  4013e8:	c5 6d db c0          	vpand  %ymm0,%ymm2,%ymm8
  4013ec:	48 89 d0             	mov    %rdx,%rax
  4013ef:	b9 02 00 00 00       	mov    $0x2,%ecx
  4013f4:	c5 7d 29 d7          	vmovapd %ymm10,%ymm7
  4013f8:	c5 fd 28 70 20       	vmovapd 0x20(%rax),%ymm6
  4013fd:	c5 fd 28 68 40       	vmovapd 0x40(%rax),%ymm5
  401402:	c5 fd 28 60 60       	vmovapd 0x60(%rax),%ymm4
  401407:	c5 f5 54 cf          	vandpd %ymm7,%ymm1,%ymm1
  40140b:	c5 fd 54 c3          	vandpd %ymm3,%ymm0,%ymm0
  40140f:	c4 41 6d db c9       	vpand  %ymm9,%ymm2,%ymm9
  401414:	c5 fd 6f 38          	vmovdqa (%rax),%ymm7
  401418:	c4 41 45 db c0       	vpand  %ymm8,%ymm7,%ymm8
  40141d:	c5 fd 29 48 80       	vmovapd %ymm1,-0x80(%rax)
  401422:	c5 fd 29 40 a0       	vmovapd %ymm0,-0x60(%rax)
  401427:	c5 7d 29 48 c0       	vmovapd %ymm9,-0x40(%rax)
  40142c:	c5 7d 29 40 e0       	vmovapd %ymm8,-0x20(%rax)
  401431:	c5 c5 db da          	vpand  %ymm2,%ymm7,%ymm3
  401435:	c5 c5 db fe          	vpand  %ymm6,%ymm7,%ymm7
  401439:	c5 55 db ce          	vpand  %ymm6,%ymm5,%ymm9
  40143d:	c5 5d db c5          	vpand  %ymm5,%ymm4,%ymm8
  401441:	c5 fd 28 88 a0 00 00 	vmovapd 0xa0(%rax),%ymm1
  401448:	00 
  401449:	c5 fd 28 80 c0 00 00 	vmovapd 0xc0(%rax),%ymm0
  401450:	00 
  401451:	c5 fd 28 90 e0 00 00 	vmovapd 0xe0(%rax),%ymm2
  401458:	00 
  401459:	c5 e5 db f6          	vpand  %ymm6,%ymm3,%ymm6
  40145d:	c5 c5 db ed          	vpand  %ymm5,%ymm7,%ymm5
  401461:	c5 35 db cc          	vpand  %ymm4,%ymm9,%ymm9
  401465:	c5 fd 6f 98 80 00 00 	vmovdqa 0x80(%rax),%ymm3
  40146c:	00 
  40146d:	c4 41 65 db c0       	vpand  %ymm8,%ymm3,%ymm8
  401472:	c5 fd 29 30          	vmovapd %ymm6,(%rax)
  401476:	c5 fd 29 68 20       	vmovapd %ymm5,0x20(%rax)
  40147b:	c5 7d 29 48 40       	vmovapd %ymm9,0x40(%rax)
  401480:	c5 7d 29 40 60       	vmovapd %ymm8,0x60(%rax)
  401485:	c5 e5 db fc          	vpand  %ymm4,%ymm3,%ymm7
  401489:	c5 e5 db d9          	vpand  %ymm1,%ymm3,%ymm3
  40148d:	c5 7d db c9          	vpand  %ymm1,%ymm0,%ymm9
  401491:	c5 6d db c0          	vpand  %ymm0,%ymm2,%ymm8
  401495:	48 05 00 01 00 00    	add    $0x100,%rax
  40149b:	83 e9 01             	sub    $0x1,%ecx
  40149e:	0f 85 54 ff ff ff    	jne    4013f8 <main+0xd4b>
  4014a4:	48 81 c2 00 02 00 00 	add    $0x200,%rdx
  4014ab:	83 ee 01             	sub    $0x1,%esi
  4014ae:	0f 85 1c ff ff ff    	jne    4013d0 <main+0xd23>
  4014b4:	0f 31                	rdtsc  
  4014b6:	48 c1 e2 20          	shl    $0x20,%rdx
  4014ba:	89 c0                	mov    %eax,%eax
  4014bc:	48 09 d0             	or     %rdx,%rax
  4014bf:	4c 29 c8             	sub    %r9,%rax
  4014c2:	48 39 c7             	cmp    %rax,%rdi
  4014c5:	48 0f 47 f8          	cmova  %rax,%rdi
  4014c9:	41 83 e8 01          	sub    $0x1,%r8d
  4014cd:	0f 85 db fe ff ff    	jne    4013ae <main+0xd01>
  4014d3:	48 85 ff             	test   %rdi,%rdi
  4014d6:	78 07                	js     4014df <main+0xe32>
  4014d8:	c4 e1 fb 2a c7       	vcvtsi2sd %rdi,%xmm0,%xmm0
  4014dd:	eb 15                	jmp    4014f4 <main+0xe47>
  4014df:	48 89 f8             	mov    %rdi,%rax
  4014e2:	48 d1 e8             	shr    %rax
  4014e5:	83 e7 01             	and    $0x1,%edi
  4014e8:	48 09 f8             	or     %rdi,%rax
  4014eb:	c4 e1 fb 2a c0       	vcvtsi2sd %rax,%xmm0,%xmm0
  4014f0:	c5 fb 58 c0          	vaddsd %xmm0,%xmm0,%xmm0
  4014f4:	c5 fb 59 05 14 08 00 	vmulsd 0x814(%rip),%xmm0,%xmm0        # 401d10 <__dso_handle+0x78>
  4014fb:	00 
  4014fc:	c5 fb 10 0d 1c 08 00 	vmovsd 0x81c(%rip),%xmm1        # 401d20 <__dso_handle+0x88>
  401503:	00 
  401504:	c5 f3 5e c0          	vdivsd %xmm0,%xmm1,%xmm0
  401508:	bf d7 1c 40 00       	mov    $0x401cd7,%edi
  40150d:	b8 01 00 00 00       	mov    $0x1,%eax
  401512:	e8 b9 ef ff ff       	callq  4004d0 <printf@plt>
  401517:	41 b9 40 42 0f 00    	mov    $0xf4240,%r9d
  40151d:	49 c7 c0 ff ff ff ff 	mov    $0xffffffffffffffff,%r8
  401524:	c5 f1 57 c9          	vxorpd %xmm1,%xmm1,%xmm1
  401528:	0f 31                	rdtsc  
  40152a:	49 89 d2             	mov    %rdx,%r10
  40152d:	49 c1 e2 20          	shl    $0x20,%r10
  401531:	89 c0                	mov    %eax,%eax
  401533:	49 09 c2             	or     %rax,%r10
  401536:	48 8b 8c 24 10 06 00 	mov    0x610(%rsp),%rcx
  40153d:	00 
  40153e:	c5 fd 29 8c 24 00 04 	vmovapd %ymm1,0x400(%rsp)
  401545:	00 00 
  401547:	c5 fd 29 8c 24 20 04 	vmovapd %ymm1,0x420(%rsp)
  40154e:	00 00 
  401550:	c5 fd 29 8c 24 40 04 	vmovapd %ymm1,0x440(%rsp)
  401557:	00 00 
  401559:	c5 fd 29 8c 24 60 04 	vmovapd %ymm1,0x460(%rsp)
  401560:	00 00 
  401562:	c5 fd 29 8c 24 80 04 	vmovapd %ymm1,0x480(%rsp)
  401569:	00 00 
  40156b:	c5 fd 29 8c 24 a0 04 	vmovapd %ymm1,0x4a0(%rsp)
  401572:	00 00 
  401574:	c5 fd 29 8c 24 c0 04 	vmovapd %ymm1,0x4c0(%rsp)
  40157b:	00 00 
  40157d:	c5 fd 29 8c 24 e0 04 	vmovapd %ymm1,0x4e0(%rsp)
  401584:	00 00 
  401586:	c5 fd 29 8c 24 00 05 	vmovapd %ymm1,0x500(%rsp)
  40158d:	00 00 
  40158f:	c5 fd 29 8c 24 20 05 	vmovapd %ymm1,0x520(%rsp)
  401596:	00 00 
  401598:	c5 fd 29 8c 24 40 05 	vmovapd %ymm1,0x540(%rsp)
  40159f:	00 00 
  4015a1:	c5 fd 29 8c 24 60 05 	vmovapd %ymm1,0x560(%rsp)
  4015a8:	00 00 
  4015aa:	c5 fd 29 8c 24 80 05 	vmovapd %ymm1,0x580(%rsp)
  4015b1:	00 00 
  4015b3:	c5 fd 29 8c 24 a0 05 	vmovapd %ymm1,0x5a0(%rsp)
  4015ba:	00 00 
  4015bc:	c5 fd 29 8c 24 c0 05 	vmovapd %ymm1,0x5c0(%rsp)
  4015c3:	00 00 
  4015c5:	c5 fd 29 8c 24 e0 05 	vmovapd %ymm1,0x5e0(%rsp)
  4015cc:	00 00 
  4015ce:	48 8b 94 24 08 06 00 	mov    0x608(%rsp),%rdx
  4015d5:	00 
  4015d6:	b8 00 00 00 00       	mov    $0x0,%eax
  4015db:	c5 fd 28 02          	vmovapd (%rdx),%ymm0
  4015df:	c5 fd 29 84 24 00 04 	vmovapd %ymm0,0x400(%rsp)
  4015e6:	00 00 
  4015e8:	c5 fd 28 42 20       	vmovapd 0x20(%rdx),%ymm0
  4015ed:	c5 fd 29 84 24 20 04 	vmovapd %ymm0,0x420(%rsp)
  4015f4:	00 00 
  4015f6:	c5 fd 28 42 40       	vmovapd 0x40(%rdx),%ymm0
  4015fb:	c5 fd 29 84 24 40 04 	vmovapd %ymm0,0x440(%rsp)
  401602:	00 00 
  401604:	c5 fd 28 42 60       	vmovapd 0x60(%rdx),%ymm0
  401609:	c5 fd 29 84 24 60 04 	vmovapd %ymm0,0x460(%rsp)
  401610:	00 00 
  401612:	c5 fd 28 82 80 00 00 	vmovapd 0x80(%rdx),%ymm0
  401619:	00 
  40161a:	c5 fd 29 84 24 80 04 	vmovapd %ymm0,0x480(%rsp)
  401621:	00 00 
  401623:	c5 fd 28 82 a0 00 00 	vmovapd 0xa0(%rdx),%ymm0
  40162a:	00 
  40162b:	c5 fd 29 84 24 a0 04 	vmovapd %ymm0,0x4a0(%rsp)
  401632:	00 00 
  401634:	c5 fd 28 82 c0 00 00 	vmovapd 0xc0(%rdx),%ymm0
  40163b:	00 
  40163c:	c5 fd 29 84 24 c0 04 	vmovapd %ymm0,0x4c0(%rsp)
  401643:	00 00 
  401645:	c5 fd 28 82 e0 00 00 	vmovapd 0xe0(%rdx),%ymm0
  40164c:	00 
  40164d:	c5 fd 29 84 24 e0 04 	vmovapd %ymm0,0x4e0(%rsp)
  401654:	00 00 
  401656:	c5 fd 28 82 00 01 00 	vmovapd 0x100(%rdx),%ymm0
  40165d:	00 
  40165e:	c5 fd 29 84 24 00 05 	vmovapd %ymm0,0x500(%rsp)
  401665:	00 00 
  401667:	c5 fd 28 82 20 01 00 	vmovapd 0x120(%rdx),%ymm0
  40166e:	00 
  40166f:	c5 fd 29 84 24 20 05 	vmovapd %ymm0,0x520(%rsp)
  401676:	00 00 
  401678:	c5 fd 28 82 40 01 00 	vmovapd 0x140(%rdx),%ymm0
  40167f:	00 
  401680:	c5 fd 29 84 24 40 05 	vmovapd %ymm0,0x540(%rsp)
  401687:	00 00 
  401689:	c5 fd 28 82 60 01 00 	vmovapd 0x160(%rdx),%ymm0
  401690:	00 
  401691:	c5 fd 29 84 24 60 05 	vmovapd %ymm0,0x560(%rsp)
  401698:	00 00 
  40169a:	c5 fd 28 82 80 01 00 	vmovapd 0x180(%rdx),%ymm0
  4016a1:	00 
  4016a2:	c5 fd 29 84 24 80 05 	vmovapd %ymm0,0x580(%rsp)
  4016a9:	00 00 
  4016ab:	c5 fd 28 82 a0 01 00 	vmovapd 0x1a0(%rdx),%ymm0
  4016b2:	00 
  4016b3:	c5 fd 29 84 24 a0 05 	vmovapd %ymm0,0x5a0(%rsp)
  4016ba:	00 00 
  4016bc:	c5 fd 28 82 c0 01 00 	vmovapd 0x1c0(%rdx),%ymm0
  4016c3:	00 
  4016c4:	c5 fd 29 84 24 c0 05 	vmovapd %ymm0,0x5c0(%rsp)
  4016cb:	00 00 
  4016cd:	c5 fd 28 82 e0 01 00 	vmovapd 0x1e0(%rdx),%ymm0
  4016d4:	00 
  4016d5:	c5 fd 29 84 24 e0 05 	vmovapd %ymm0,0x5e0(%rsp)
  4016dc:	00 00 
  4016de:	c5 fd 28 84 24 00 04 	vmovapd 0x400(%rsp),%ymm0
  4016e5:	00 00 
  4016e7:	44 8d 98 ff 01 00 00 	lea    0x1ff(%rax),%r11d
  4016ee:	85 c0                	test   %eax,%eax
  4016f0:	89 c7                	mov    %eax,%edi
  4016f2:	41 0f 48 fb          	cmovs  %r11d,%edi
  4016f6:	c1 ff 09             	sar    $0x9,%edi
  4016f9:	c1 e7 05             	shl    $0x5,%edi
  4016fc:	8d 70 1f             	lea    0x1f(%rax),%esi
  4016ff:	85 c0                	test   %eax,%eax
  401701:	0f 49 f0             	cmovns %eax,%esi
  401704:	89 f3                	mov    %esi,%ebx
  401706:	c1 fb 05             	sar    $0x5,%ebx
  401709:	c1 fe 1f             	sar    $0x1f,%esi
  40170c:	c1 ee 1c             	shr    $0x1c,%esi
  40170f:	01 f3                	add    %esi,%ebx
  401711:	83 e3 0f             	and    $0xf,%ebx
  401714:	29 f3                	sub    %esi,%ebx
  401716:	89 de                	mov    %ebx,%esi
  401718:	c1 e6 09             	shl    $0x9,%esi
  40171b:	01 fe                	add    %edi,%esi
  40171d:	48 63 f6             	movslq %esi,%rsi
  401720:	c5 fd 29 04 31       	vmovapd %ymm0,(%rcx,%rsi,1)
  401725:	c5 fd 28 84 24 20 04 	vmovapd 0x420(%rsp),%ymm0
  40172c:	00 00 
  40172e:	8d b8 1f 02 00 00    	lea    0x21f(%rax),%edi
  401734:	89 c6                	mov    %eax,%esi
  401736:	83 c6 20             	add    $0x20,%esi
  401739:	0f 49 fe             	cmovns %esi,%edi
  40173c:	c1 ff 09             	sar    $0x9,%edi
  40173f:	c1 e7 05             	shl    $0x5,%edi
  401742:	8d 58 3f             	lea    0x3f(%rax),%ebx
  401745:	85 f6                	test   %esi,%esi
  401747:	0f 48 f3             	cmovs  %ebx,%esi
  40174a:	89 f3                	mov    %esi,%ebx
  40174c:	c1 fb 05             	sar    $0x5,%ebx
  40174f:	c1 fe 1f             	sar    $0x1f,%esi
  401752:	c1 ee 1c             	shr    $0x1c,%esi
  401755:	01 f3                	add    %esi,%ebx
  401757:	83 e3 0f             	and    $0xf,%ebx
  40175a:	29 f3                	sub    %esi,%ebx
  40175c:	89 de                	mov    %ebx,%esi
  40175e:	c1 e6 09             	shl    $0x9,%esi
  401761:	01 fe                	add    %edi,%esi
  401763:	48 63 f6             	movslq %esi,%rsi
  401766:	c5 fd 29 04 31       	vmovapd %ymm0,(%rcx,%rsi,1)
  40176b:	c5 fd 28 84 24 40 04 	vmovapd 0x440(%rsp),%ymm0
  401772:	00 00 
  401774:	8d b8 3f 02 00 00    	lea    0x23f(%rax),%edi
  40177a:	89 c6                	mov    %eax,%esi
  40177c:	83 c6 40             	add    $0x40,%esi
  40177f:	0f 49 fe             	cmovns %esi,%edi
  401782:	c1 ff 09             	sar    $0x9,%edi
  401785:	c1 e7 05             	shl    $0x5,%edi
  401788:	8d 58 5f             	lea    0x5f(%rax),%ebx
  40178b:	85 f6                	test   %esi,%esi
  40178d:	0f 48 f3             	cmovs  %ebx,%esi
  401790:	89 f3                	mov    %esi,%ebx
  401792:	c1 fb 05             	sar    $0x5,%ebx
  401795:	c1 fe 1f             	sar    $0x1f,%esi
  401798:	c1 ee 1c             	shr    $0x1c,%esi
  40179b:	01 f3                	add    %esi,%ebx
  40179d:	83 e3 0f             	and    $0xf,%ebx
  4017a0:	29 f3                	sub    %esi,%ebx
  4017a2:	89 de                	mov    %ebx,%esi
  4017a4:	c1 e6 09             	shl    $0x9,%esi
  4017a7:	01 fe                	add    %edi,%esi
  4017a9:	48 63 f6             	movslq %esi,%rsi
  4017ac:	c5 fd 29 04 31       	vmovapd %ymm0,(%rcx,%rsi,1)
  4017b1:	c5 fd 28 84 24 60 04 	vmovapd 0x460(%rsp),%ymm0
  4017b8:	00 00 
  4017ba:	8d b8 5f 02 00 00    	lea    0x25f(%rax),%edi
  4017c0:	89 c6                	mov    %eax,%esi
  4017c2:	83 c6 60             	add    $0x60,%esi
  4017c5:	0f 49 fe             	cmovns %esi,%edi
  4017c8:	c1 ff 09             	sar    $0x9,%edi
  4017cb:	c1 e7 05             	shl    $0x5,%edi
  4017ce:	8d 58 7f             	lea    0x7f(%rax),%ebx
  4017d1:	85 f6                	test   %esi,%esi
  4017d3:	0f 48 f3             	cmovs  %ebx,%esi
  4017d6:	89 f3                	mov    %esi,%ebx
  4017d8:	c1 fb 05             	sar    $0x5,%ebx
  4017db:	c1 fe 1f             	sar    $0x1f,%esi
  4017de:	c1 ee 1c             	shr    $0x1c,%esi
  4017e1:	01 f3                	add    %esi,%ebx
  4017e3:	83 e3 0f             	and    $0xf,%ebx
  4017e6:	29 f3                	sub    %esi,%ebx
  4017e8:	89 de                	mov    %ebx,%esi
  4017ea:	c1 e6 09             	shl    $0x9,%esi
  4017ed:	01 fe                	add    %edi,%esi
  4017ef:	48 63 f6             	movslq %esi,%rsi
  4017f2:	c5 fd 29 04 31       	vmovapd %ymm0,(%rcx,%rsi,1)
  4017f7:	c5 fd 28 84 24 80 04 	vmovapd 0x480(%rsp),%ymm0
  4017fe:	00 00 
  401800:	8d b8 7f 02 00 00    	lea    0x27f(%rax),%edi
  401806:	89 c6                	mov    %eax,%esi
  401808:	83 ee 80             	sub    $0xffffff80,%esi
  40180b:	0f 49 fe             	cmovns %esi,%edi
  40180e:	c1 ff 09             	sar    $0x9,%edi
  401811:	c1 e7 05             	shl    $0x5,%edi
  401814:	8d 98 9f 00 00 00    	lea    0x9f(%rax),%ebx
  40181a:	85 f6                	test   %esi,%esi
  40181c:	0f 48 f3             	cmovs  %ebx,%esi
  40181f:	89 f3                	mov    %esi,%ebx
  401821:	c1 fb 05             	sar    $0x5,%ebx
  401824:	c1 fe 1f             	sar    $0x1f,%esi
  401827:	c1 ee 1c             	shr    $0x1c,%esi
  40182a:	01 f3                	add    %esi,%ebx
  40182c:	83 e3 0f             	and    $0xf,%ebx
  40182f:	29 f3                	sub    %esi,%ebx
  401831:	89 de                	mov    %ebx,%esi
  401833:	c1 e6 09             	shl    $0x9,%esi
  401836:	01 fe                	add    %edi,%esi
  401838:	48 63 f6             	movslq %esi,%rsi
  40183b:	c5 fd 29 04 31       	vmovapd %ymm0,(%rcx,%rsi,1)
  401840:	c5 fd 28 84 24 a0 04 	vmovapd 0x4a0(%rsp),%ymm0
  401847:	00 00 
  401849:	8d b8 9f 02 00 00    	lea    0x29f(%rax),%edi
  40184f:	89 c6                	mov    %eax,%esi
  401851:	81 c6 a0 00 00 00    	add    $0xa0,%esi
  401857:	0f 49 fe             	cmovns %esi,%edi
  40185a:	c1 ff 09             	sar    $0x9,%edi
  40185d:	c1 e7 05             	shl    $0x5,%edi
  401860:	8d 98 bf 00 00 00    	lea    0xbf(%rax),%ebx
  401866:	85 f6                	test   %esi,%esi
  401868:	0f 48 f3             	cmovs  %ebx,%esi
  40186b:	89 f3                	mov    %esi,%ebx
  40186d:	c1 fb 05             	sar    $0x5,%ebx
  401870:	c1 fe 1f             	sar    $0x1f,%esi
  401873:	c1 ee 1c             	shr    $0x1c,%esi
  401876:	01 f3                	add    %esi,%ebx
  401878:	83 e3 0f             	and    $0xf,%ebx
  40187b:	29 f3                	sub    %esi,%ebx
  40187d:	89 de                	mov    %ebx,%esi
  40187f:	c1 e6 09             	shl    $0x9,%esi
  401882:	01 fe                	add    %edi,%esi
  401884:	48 63 f6             	movslq %esi,%rsi
  401887:	c5 fd 29 04 31       	vmovapd %ymm0,(%rcx,%rsi,1)
  40188c:	c5 fd 28 84 24 c0 04 	vmovapd 0x4c0(%rsp),%ymm0
  401893:	00 00 
  401895:	8d b8 bf 02 00 00    	lea    0x2bf(%rax),%edi
  40189b:	89 c6                	mov    %eax,%esi
  40189d:	81 c6 c0 00 00 00    	add    $0xc0,%esi
  4018a3:	0f 49 fe             	cmovns %esi,%edi
  4018a6:	c1 ff 09             	sar    $0x9,%edi
  4018a9:	c1 e7 05             	shl    $0x5,%edi
  4018ac:	8d 98 df 00 00 00    	lea    0xdf(%rax),%ebx
  4018b2:	85 f6                	test   %esi,%esi
  4018b4:	0f 48 f3             	cmovs  %ebx,%esi
  4018b7:	89 f3                	mov    %esi,%ebx
  4018b9:	c1 fb 05             	sar    $0x5,%ebx
  4018bc:	c1 fe 1f             	sar    $0x1f,%esi
  4018bf:	c1 ee 1c             	shr    $0x1c,%esi
  4018c2:	01 f3                	add    %esi,%ebx
  4018c4:	83 e3 0f             	and    $0xf,%ebx
  4018c7:	29 f3                	sub    %esi,%ebx
  4018c9:	89 de                	mov    %ebx,%esi
  4018cb:	c1 e6 09             	shl    $0x9,%esi
  4018ce:	01 fe                	add    %edi,%esi
  4018d0:	48 63 f6             	movslq %esi,%rsi
  4018d3:	c5 fd 29 04 31       	vmovapd %ymm0,(%rcx,%rsi,1)
  4018d8:	c5 fd 28 84 24 e0 04 	vmovapd 0x4e0(%rsp),%ymm0
  4018df:	00 00 
  4018e1:	8d b8 df 02 00 00    	lea    0x2df(%rax),%edi
  4018e7:	89 c6                	mov    %eax,%esi
  4018e9:	81 c6 e0 00 00 00    	add    $0xe0,%esi
  4018ef:	0f 49 fe             	cmovns %esi,%edi
  4018f2:	c1 ff 09             	sar    $0x9,%edi
  4018f5:	c1 e7 05             	shl    $0x5,%edi
  4018f8:	8d 98 ff 00 00 00    	lea    0xff(%rax),%ebx
  4018fe:	85 f6                	test   %esi,%esi
  401900:	0f 48 f3             	cmovs  %ebx,%esi
  401903:	89 f3                	mov    %esi,%ebx
  401905:	c1 fb 05             	sar    $0x5,%ebx
  401908:	c1 fe 1f             	sar    $0x1f,%esi
  40190b:	c1 ee 1c             	shr    $0x1c,%esi
  40190e:	01 f3                	add    %esi,%ebx
  401910:	83 e3 0f             	and    $0xf,%ebx
  401913:	29 f3                	sub    %esi,%ebx
  401915:	89 de                	mov    %ebx,%esi
  401917:	c1 e6 09             	shl    $0x9,%esi
  40191a:	01 fe                	add    %edi,%esi
  40191c:	48 63 f6             	movslq %esi,%rsi
  40191f:	c5 fd 29 04 31       	vmovapd %ymm0,(%rcx,%rsi,1)
  401924:	c5 fd 28 84 24 00 05 	vmovapd 0x500(%rsp),%ymm0
  40192b:	00 00 
  40192d:	8d b8 ff 02 00 00    	lea    0x2ff(%rax),%edi
  401933:	89 c6                	mov    %eax,%esi
  401935:	81 c6 00 01 00 00    	add    $0x100,%esi
  40193b:	0f 49 fe             	cmovns %esi,%edi
  40193e:	c1 ff 09             	sar    $0x9,%edi
  401941:	c1 e7 05             	shl    $0x5,%edi
  401944:	8d 98 1f 01 00 00    	lea    0x11f(%rax),%ebx
  40194a:	85 f6                	test   %esi,%esi
  40194c:	0f 48 f3             	cmovs  %ebx,%esi
  40194f:	89 f3                	mov    %esi,%ebx
  401951:	c1 fb 05             	sar    $0x5,%ebx
  401954:	c1 fe 1f             	sar    $0x1f,%esi
  401957:	c1 ee 1c             	shr    $0x1c,%esi
  40195a:	01 f3                	add    %esi,%ebx
  40195c:	83 e3 0f             	and    $0xf,%ebx
  40195f:	29 f3                	sub    %esi,%ebx
  401961:	89 de                	mov    %ebx,%esi
  401963:	c1 e6 09             	shl    $0x9,%esi
  401966:	01 fe                	add    %edi,%esi
  401968:	48 63 f6             	movslq %esi,%rsi
  40196b:	c5 fd 29 04 31       	vmovapd %ymm0,(%rcx,%rsi,1)
  401970:	c5 fd 28 84 24 20 05 	vmovapd 0x520(%rsp),%ymm0
  401977:	00 00 
  401979:	8d 98 1f 03 00 00    	lea    0x31f(%rax),%ebx
  40197f:	89 c7                	mov    %eax,%edi
  401981:	81 c7 20 01 00 00    	add    $0x120,%edi
  401987:	0f 49 df             	cmovns %edi,%ebx
  40198a:	c1 fb 09             	sar    $0x9,%ebx
  40198d:	c1 e3 05             	shl    $0x5,%ebx
  401990:	8d b0 3f 01 00 00    	lea    0x13f(%rax),%esi
  401996:	85 ff                	test   %edi,%edi
  401998:	0f 48 fe             	cmovs  %esi,%edi
  40199b:	89 fe                	mov    %edi,%esi
  40199d:	c1 fe 05             	sar    $0x5,%esi
  4019a0:	c1 ff 1f             	sar    $0x1f,%edi
  4019a3:	c1 ef 1c             	shr    $0x1c,%edi
  4019a6:	01 fe                	add    %edi,%esi
  4019a8:	83 e6 0f             	and    $0xf,%esi
  4019ab:	29 fe                	sub    %edi,%esi
  4019ad:	c1 e6 09             	shl    $0x9,%esi
  4019b0:	01 de                	add    %ebx,%esi
  4019b2:	48 63 f6             	movslq %esi,%rsi
  4019b5:	c5 fd 29 04 31       	vmovapd %ymm0,(%rcx,%rsi,1)
  4019ba:	c5 fd 28 84 24 40 05 	vmovapd 0x540(%rsp),%ymm0
  4019c1:	00 00 
  4019c3:	8d 98 3f 03 00 00    	lea    0x33f(%rax),%ebx
  4019c9:	89 c7                	mov    %eax,%edi
  4019cb:	81 c7 40 01 00 00    	add    $0x140,%edi
  4019d1:	0f 49 df             	cmovns %edi,%ebx
  4019d4:	c1 fb 09             	sar    $0x9,%ebx
  4019d7:	c1 e3 05             	shl    $0x5,%ebx
  4019da:	8d b0 5f 01 00 00    	lea    0x15f(%rax),%esi
  4019e0:	85 ff                	test   %edi,%edi
  4019e2:	0f 48 fe             	cmovs  %esi,%edi
  4019e5:	89 fe                	mov    %edi,%esi
  4019e7:	c1 fe 05             	sar    $0x5,%esi
  4019ea:	c1 ff 1f             	sar    $0x1f,%edi
  4019ed:	c1 ef 1c             	shr    $0x1c,%edi
  4019f0:	01 fe                	add    %edi,%esi
  4019f2:	83 e6 0f             	and    $0xf,%esi
  4019f5:	29 fe                	sub    %edi,%esi
  4019f7:	c1 e6 09             	shl    $0x9,%esi
  4019fa:	01 de                	add    %ebx,%esi
  4019fc:	48 63 f6             	movslq %esi,%rsi
  4019ff:	c5 fd 29 04 31       	vmovapd %ymm0,(%rcx,%rsi,1)
  401a04:	c5 fd 28 84 24 60 05 	vmovapd 0x560(%rsp),%ymm0
  401a0b:	00 00 
  401a0d:	8d 98 5f 03 00 00    	lea    0x35f(%rax),%ebx
  401a13:	89 c7                	mov    %eax,%edi
  401a15:	81 c7 60 01 00 00    	add    $0x160,%edi
  401a1b:	0f 49 df             	cmovns %edi,%ebx
  401a1e:	c1 fb 09             	sar    $0x9,%ebx
  401a21:	c1 e3 05             	shl    $0x5,%ebx
  401a24:	8d b0 7f 01 00 00    	lea    0x17f(%rax),%esi
  401a2a:	85 ff                	test   %edi,%edi
  401a2c:	0f 48 fe             	cmovs  %esi,%edi
  401a2f:	89 fe                	mov    %edi,%esi
  401a31:	c1 fe 05             	sar    $0x5,%esi
  401a34:	c1 ff 1f             	sar    $0x1f,%edi
  401a37:	c1 ef 1c             	shr    $0x1c,%edi
  401a3a:	01 fe                	add    %edi,%esi
  401a3c:	83 e6 0f             	and    $0xf,%esi
  401a3f:	29 fe                	sub    %edi,%esi
  401a41:	c1 e6 09             	shl    $0x9,%esi
  401a44:	01 de                	add    %ebx,%esi
  401a46:	48 63 f6             	movslq %esi,%rsi
  401a49:	c5 fd 29 04 31       	vmovapd %ymm0,(%rcx,%rsi,1)
  401a4e:	c5 fd 28 84 24 80 05 	vmovapd 0x580(%rsp),%ymm0
  401a55:	00 00 
  401a57:	8d 98 7f 03 00 00    	lea    0x37f(%rax),%ebx
  401a5d:	89 c7                	mov    %eax,%edi
  401a5f:	81 c7 80 01 00 00    	add    $0x180,%edi
  401a65:	0f 49 df             	cmovns %edi,%ebx
  401a68:	c1 fb 09             	sar    $0x9,%ebx
  401a6b:	c1 e3 05             	shl    $0x5,%ebx
  401a6e:	8d b0 9f 01 00 00    	lea    0x19f(%rax),%esi
  401a74:	85 ff                	test   %edi,%edi
  401a76:	0f 48 fe             	cmovs  %esi,%edi
  401a79:	89 fe                	mov    %edi,%esi
  401a7b:	c1 fe 05             	sar    $0x5,%esi
  401a7e:	c1 ff 1f             	sar    $0x1f,%edi
  401a81:	c1 ef 1c             	shr    $0x1c,%edi
  401a84:	01 fe                	add    %edi,%esi
  401a86:	83 e6 0f             	and    $0xf,%esi
  401a89:	29 fe                	sub    %edi,%esi
  401a8b:	c1 e6 09             	shl    $0x9,%esi
  401a8e:	01 de                	add    %ebx,%esi
  401a90:	48 63 f6             	movslq %esi,%rsi
  401a93:	c5 fd 29 04 31       	vmovapd %ymm0,(%rcx,%rsi,1)
  401a98:	c5 fd 28 84 24 a0 05 	vmovapd 0x5a0(%rsp),%ymm0
  401a9f:	00 00 
  401aa1:	8d 98 9f 03 00 00    	lea    0x39f(%rax),%ebx
  401aa7:	89 c7                	mov    %eax,%edi
  401aa9:	81 c7 a0 01 00 00    	add    $0x1a0,%edi
  401aaf:	0f 49 df             	cmovns %edi,%ebx
  401ab2:	c1 fb 09             	sar    $0x9,%ebx
  401ab5:	c1 e3 05             	shl    $0x5,%ebx
  401ab8:	8d b0 bf 01 00 00    	lea    0x1bf(%rax),%esi
  401abe:	85 ff                	test   %edi,%edi
  401ac0:	0f 48 fe             	cmovs  %esi,%edi
  401ac3:	89 fe                	mov    %edi,%esi
  401ac5:	c1 fe 05             	sar    $0x5,%esi
  401ac8:	c1 ff 1f             	sar    $0x1f,%edi
  401acb:	c1 ef 1c             	shr    $0x1c,%edi
  401ace:	01 fe                	add    %edi,%esi
  401ad0:	83 e6 0f             	and    $0xf,%esi
  401ad3:	29 fe                	sub    %edi,%esi
  401ad5:	c1 e6 09             	shl    $0x9,%esi
  401ad8:	01 de                	add    %ebx,%esi
  401ada:	48 63 f6             	movslq %esi,%rsi
  401add:	c5 fd 29 04 31       	vmovapd %ymm0,(%rcx,%rsi,1)
  401ae2:	c5 fd 28 84 24 c0 05 	vmovapd 0x5c0(%rsp),%ymm0
  401ae9:	00 00 
  401aeb:	8d 98 bf 03 00 00    	lea    0x3bf(%rax),%ebx
  401af1:	89 c7                	mov    %eax,%edi
  401af3:	81 c7 c0 01 00 00    	add    $0x1c0,%edi
  401af9:	0f 49 df             	cmovns %edi,%ebx
  401afc:	c1 fb 09             	sar    $0x9,%ebx
  401aff:	c1 e3 05             	shl    $0x5,%ebx
  401b02:	8d b0 df 01 00 00    	lea    0x1df(%rax),%esi
  401b08:	85 ff                	test   %edi,%edi
  401b0a:	0f 48 fe             	cmovs  %esi,%edi
  401b0d:	89 fe                	mov    %edi,%esi
  401b0f:	c1 fe 05             	sar    $0x5,%esi
  401b12:	c1 ff 1f             	sar    $0x1f,%edi
  401b15:	c1 ef 1c             	shr    $0x1c,%edi
  401b18:	01 fe                	add    %edi,%esi
  401b1a:	83 e6 0f             	and    $0xf,%esi
  401b1d:	29 fe                	sub    %edi,%esi
  401b1f:	c1 e6 09             	shl    $0x9,%esi
  401b22:	01 de                	add    %ebx,%esi
  401b24:	48 63 f6             	movslq %esi,%rsi
  401b27:	c5 fd 29 04 31       	vmovapd %ymm0,(%rcx,%rsi,1)
  401b2c:	c5 fd 28 84 24 e0 05 	vmovapd 0x5e0(%rsp),%ymm0
  401b33:	00 00 
  401b35:	8d b8 df 03 00 00    	lea    0x3df(%rax),%edi
  401b3b:	89 c6                	mov    %eax,%esi
  401b3d:	81 c6 e0 01 00 00    	add    $0x1e0,%esi
  401b43:	0f 49 fe             	cmovns %esi,%edi
  401b46:	c1 ff 09             	sar    $0x9,%edi
  401b49:	c1 e7 05             	shl    $0x5,%edi
  401b4c:	85 f6                	test   %esi,%esi
  401b4e:	41 0f 48 f3          	cmovs  %r11d,%esi
  401b52:	41 89 f3             	mov    %esi,%r11d
  401b55:	41 c1 fb 05          	sar    $0x5,%r11d
  401b59:	c1 fe 1f             	sar    $0x1f,%esi
  401b5c:	c1 ee 1c             	shr    $0x1c,%esi
  401b5f:	41 01 f3             	add    %esi,%r11d
  401b62:	41 83 e3 0f          	and    $0xf,%r11d
  401b66:	41 29 f3             	sub    %esi,%r11d
  401b69:	44 89 de             	mov    %r11d,%esi
  401b6c:	c1 e6 09             	shl    $0x9,%esi
  401b6f:	01 fe                	add    %edi,%esi
  401b71:	48 63 f6             	movslq %esi,%rsi
  401b74:	c5 fd 29 04 31       	vmovapd %ymm0,(%rcx,%rsi,1)
  401b79:	05 00 02 00 00       	add    $0x200,%eax
  401b7e:	48 81 c2 00 02 00 00 	add    $0x200,%rdx
  401b85:	3d 00 20 00 00       	cmp    $0x2000,%eax
  401b8a:	0f 85 4b fa ff ff    	jne    4015db <main+0xf2e>
  401b90:	0f 31                	rdtsc  
  401b92:	48 c1 e2 20          	shl    $0x20,%rdx
  401b96:	89 c0                	mov    %eax,%eax
  401b98:	48 09 d0             	or     %rdx,%rax
  401b9b:	4c 29 d0             	sub    %r10,%rax
  401b9e:	49 39 c0             	cmp    %rax,%r8
  401ba1:	4c 0f 47 c0          	cmova  %rax,%r8
  401ba5:	41 83 e9 01          	sub    $0x1,%r9d
  401ba9:	0f 85 79 f9 ff ff    	jne    401528 <main+0xe7b>
  401baf:	4d 85 c0             	test   %r8,%r8
  401bb2:	78 07                	js     401bbb <main+0x150e>
  401bb4:	c4 c1 fb 2a c0       	vcvtsi2sd %r8,%xmm0,%xmm0
  401bb9:	eb 16                	jmp    401bd1 <main+0x1524>
  401bbb:	4c 89 c0             	mov    %r8,%rax
  401bbe:	48 d1 e8             	shr    %rax
  401bc1:	41 83 e0 01          	and    $0x1,%r8d
  401bc5:	4c 09 c0             	or     %r8,%rax
  401bc8:	c4 e1 fb 2a c0       	vcvtsi2sd %rax,%xmm0,%xmm0
  401bcd:	c5 fb 58 c0          	vaddsd %xmm0,%xmm0,%xmm0
  401bd1:	c5 fb 59 05 37 01 00 	vmulsd 0x137(%rip),%xmm0,%xmm0        # 401d10 <__dso_handle+0x78>
  401bd8:	00 
  401bd9:	c5 fb 10 0d 3f 01 00 	vmovsd 0x13f(%rip),%xmm1        # 401d20 <__dso_handle+0x88>
  401be0:	00 
  401be1:	c5 f3 5e c0          	vdivsd %xmm0,%xmm1,%xmm0
  401be5:	bf f0 1c 40 00       	mov    $0x401cf0,%edi
  401bea:	b8 01 00 00 00       	mov    $0x1,%eax
  401bef:	e8 dc e8 ff ff       	callq  4004d0 <printf@plt>
  401bf4:	b8 00 00 00 00       	mov    $0x0,%eax
  401bf9:	48 8d 65 e8          	lea    -0x18(%rbp),%rsp
  401bfd:	5b                   	pop    %rbx
  401bfe:	41 5c                	pop    %r12
  401c00:	41 5d                	pop    %r13
  401c02:	5d                   	pop    %rbp
  401c03:	c3                   	retq   
  401c04:	66 2e 0f 1f 84 00 00 	nopw   %cs:0x0(%rax,%rax,1)
  401c0b:	00 00 00 
  401c0e:	66 90                	xchg   %ax,%ax

0000000000401c10 <__libc_csu_init>:
  401c10:	41 57                	push   %r15
  401c12:	41 89 ff             	mov    %edi,%r15d
  401c15:	41 56                	push   %r14
  401c17:	49 89 f6             	mov    %rsi,%r14
  401c1a:	41 55                	push   %r13
  401c1c:	49 89 d5             	mov    %rdx,%r13
  401c1f:	41 54                	push   %r12
  401c21:	4c 8d 25 b8 11 20 00 	lea    0x2011b8(%rip),%r12        # 602de0 <__frame_dummy_init_array_entry>
  401c28:	55                   	push   %rbp
  401c29:	48 8d 2d b8 11 20 00 	lea    0x2011b8(%rip),%rbp        # 602de8 <__init_array_end>
  401c30:	53                   	push   %rbx
  401c31:	4c 29 e5             	sub    %r12,%rbp
  401c34:	31 db                	xor    %ebx,%ebx
  401c36:	48 c1 fd 03          	sar    $0x3,%rbp
  401c3a:	48 83 ec 08          	sub    $0x8,%rsp
  401c3e:	e8 45 e8 ff ff       	callq  400488 <_init>
  401c43:	48 85 ed             	test   %rbp,%rbp
  401c46:	74 1e                	je     401c66 <__libc_csu_init+0x56>
  401c48:	0f 1f 84 00 00 00 00 	nopl   0x0(%rax,%rax,1)
  401c4f:	00 
  401c50:	4c 89 ea             	mov    %r13,%rdx
  401c53:	4c 89 f6             	mov    %r14,%rsi
  401c56:	44 89 ff             	mov    %r15d,%edi
  401c59:	41 ff 14 dc          	callq  *(%r12,%rbx,8)
  401c5d:	48 83 c3 01          	add    $0x1,%rbx
  401c61:	48 39 eb             	cmp    %rbp,%rbx
  401c64:	75 ea                	jne    401c50 <__libc_csu_init+0x40>
  401c66:	48 83 c4 08          	add    $0x8,%rsp
  401c6a:	5b                   	pop    %rbx
  401c6b:	5d                   	pop    %rbp
  401c6c:	41 5c                	pop    %r12
  401c6e:	41 5d                	pop    %r13
  401c70:	41 5e                	pop    %r14
  401c72:	41 5f                	pop    %r15
  401c74:	c3                   	retq   
  401c75:	90                   	nop
  401c76:	66 2e 0f 1f 84 00 00 	nopw   %cs:0x0(%rax,%rax,1)
  401c7d:	00 00 00 

0000000000401c80 <__libc_csu_fini>:
  401c80:	f3 c3                	repz retq 

Disassembly of section .fini:

0000000000401c84 <_fini>:
  401c84:	48 83 ec 08          	sub    $0x8,%rsp
  401c88:	48 83 c4 08          	add    $0x8,%rsp
  401c8c:	c3                   	retq   
