
./latency_and_or.x:     file format elf64-x86-64
architecture: i386:x86-64, flags 0x00000112:
EXEC_P, HAS_SYMS, D_PAGED
start address 0x0000000000405d0a

Contents of section .interp:
 400238 2f6c6962 36342f6c 642d6c69 6e75782d  /lib64/ld-linux-
 400248 7838362d 36342e73 6f2e3200           x86-64.so.2.    
Contents of section .note.ABI-tag:
 400254 04000000 10000000 01000000 474e5500  ............GNU.
 400264 00000000 02000000 06000000 20000000  ............ ...
Contents of section .note.gnu.build-id:
 400274 04000000 14000000 03000000 474e5500  ............GNU.
 400284 5827e75b 0307fce8 158ec107 2c8a2690  X'.[........,.&.
 400294 fef3a3dc                             ....            
Contents of section .gnu.hash:
 400298 01000000 01000000 01000000 00000000  ................
 4002a8 00000000 00000000 00000000           ............    
Contents of section .dynsym:
 4002b8 00000000 00000000 00000000 00000000  ................
 4002c8 00000000 00000000 1a000000 12000000  ................
 4002d8 00000000 00000000 00000000 00000000  ................
 4002e8 21000000 12000000 00000000 00000000  !...............
 4002f8 00000000 00000000 33000000 20000000  ........3... ...
 400308 00000000 00000000 00000000 00000000  ................
 400318 0b000000 12000000 00000000 00000000  ................
 400328 00000000 00000000                    ........        
Contents of section .dynstr:
 400330 006c6962 632e736f 2e360070 6f736978  .libc.so.6.posix
 400340 5f6d656d 616c6967 6e007072 696e7466  _memalign.printf
 400350 005f5f6c 6962635f 73746172 745f6d61  .__libc_start_ma
 400360 696e005f 5f676d6f 6e5f7374 6172745f  in.__gmon_start_
 400370 5f00474c 4942435f 322e322e 3500      _.GLIBC_2.2.5.  
Contents of section .gnu.version:
 40037e 00000200 02000000 0200               ..........      
Contents of section .gnu.version_r:
 400388 01000100 01000000 10000000 00000000  ................
 400398 751a6909 00000200 42000000 00000000  u.i.....B.......
Contents of section .rela.dyn:
 4003a8 f86f6000 00000000 06000000 03000000  .o`.............
 4003b8 00000000 00000000                    ........        
Contents of section .rela.plt:
 4003c0 18706000 00000000 07000000 01000000  .p`.............
 4003d0 00000000 00000000 20706000 00000000  ........ p`.....
 4003e0 07000000 02000000 00000000 00000000  ................
 4003f0 28706000 00000000 07000000 03000000  (p`.............
 400400 00000000 00000000 30706000 00000000  ........0p`.....
 400410 07000000 04000000 00000000 00000000  ................
Contents of section .init:
 400420 4883ec08 488b05cd 6b200048 85c07405  H...H...k .H..t.
 400430 e83b0000 004883c4 08c3               .;...H....      
Contents of section .plt:
 400440 ff35c26b 2000ff25 c46b2000 0f1f4000  .5.k ..%.k ...@.
 400450 ff25c26b 20006800 000000e9 e0ffffff  .%.k .h.........
 400460 ff25ba6b 20006801 000000e9 d0ffffff  .%.k .h.........
 400470 ff25b26b 20006802 000000e9 c0ffffff  .%.k .h.........
 400480 ff25aa6b 20006803 000000e9 b0ffffff  .%.k .h.........
Contents of section .text:
 400490 55ba2000 0000be40 00000048 89e54154  U. ....@...H..AT
 4004a0 534883e4 e04883ec 60488d7c 2410e8cd  SH...H..`H.|$...
 4004b0 ffffff48 8d7c2418 ba200000 00be4000  ...H.|$.. ....@.
 4004c0 0000e8b9 ffffffba 20000000 be400000  ........ ....@..
 4004d0 004889e7 e8a7ffff ff488b54 2410488b  .H.......H.T$.H.
 4004e0 44241848 8d4a4048 39c80f82 8a570000  D$.H.J@H9....W..
 4004f0 c5fd6f05 e8590000 c5fa7f02 c4e37d39  ..o..Y........}9
 400500 421001c5 fd6f05f5 590000c5 fa7f4220  B....o..Y.....B 
 400510 c4e37d39 423001c5 fd6f0501 5a0000c5  ..}9B0...o..Z...
 400520 fa7f00c4 e37d3940 1001c5fd 6f050e5a  .....}9@....o..Z
 400530 0000c5fa 7f4020c4 e37d3940 3001bf64  .....@ ..}9@0..d
 400540 00000031 dbc5f96e 6208c5f9 6e6a18c5  ...1...nb...nj..
 400550 f96e7228 c5f96e7a 38c4e351 22521001  .nr(..nz8..Q"R..
 400560 c5f96e68 18c4e341 225a3001 c5f96e78  ..nh...A"Z0...nx
 400570 38c4e359 220201c5 f96e6008 c4e34922  8..Y"....n`...I"
 400580 4a2001c5 f96e7028 c5e96cc0 c4e35122  J ...np(..l...Q"
 400590 501001c5 e16cc9c4 e3412258 3001c4e3  P....l...A"X0...
 4005a0 7538c001 c4e34922 482001c5 fd7f4424  u8....I"H ....D$
 4005b0 20c4e359 220001c5 e16cc9c5 e96cc0c4   ..Y"....l...l..
 4005c0 e37538c0 01c5fd7f 4424400f 1f440000  .u8.....D$@..D..
 4005d0 0f31c5fd 6f442420 4189d089 c6c5fd6f  .1..oD$ A......o
 4005e0 4c2440c5 f5dbc0c5 fd7f4424 20c5fd6f  L$@.......D$ ..o
 4005f0 442420c5 fd6f4c24 40c5f5db c0c5fd7f  D$ ..oL$@.......
 400600 442420c5 fd6f4424 20c5fd6f 4c2440c5  D$ ..oD$ ..oL$@.
 400610 f5dbc0c5 fd7f4424 20c5fd6f 442420c5  ......D$ ..oD$ .
 400620 fd6f4c24 40c5f5db c0c5fd7f 442420c5  .oL$@.......D$ .
 400630 fd6f4424 20c5fd6f 4c2440c5 f5dbc0c5  .oD$ ..oL$@.....
 400640 fd7f4424 20c5fd6f 442420c5 fd6f4c24  ..D$ ..oD$ ..oL$
 400650 40c5f5db c0c5fd7f 442420c5 fd6f4424  @.......D$ ..oD$
 400660 20c5fd6f 4c2440c5 f5dbc0c5 fd7f4424   ..oL$@.......D$
 400670 20c5fd6f 442420c5 fd6f4c24 40c5f5db   ..oD$ ..oL$@...
 400680 c0c5fd7f 442420c5 fd6f4424 20c5fd6f  ....D$ ..oD$ ..o
 400690 4c2440c5 f5dbc0c5 fd7f4424 20c5fd6f  L$@.......D$ ..o
 4006a0 442420c5 fd6f4c24 40c5f5db c0c5fd7f  D$ ..oL$@.......
 4006b0 442420c5 fd6f4424 20c5fd6f 4c2440c5  D$ ..oD$ ..oL$@.
 4006c0 f5dbc0c5 fd7f4424 20c5fd6f 442420c5  ......D$ ..oD$ .
 4006d0 fd6f4c24 40c5f5db c0c5fd7f 442420c5  .oL$@.......D$ .
 4006e0 fd6f4424 20c5fd6f 4c2440c5 f5dbc0c5  .oD$ ..oL$@.....
 4006f0 fd7f4424 20c5fd6f 442420c5 fd6f4c24  ..D$ ..oD$ ..oL$
 400700 40c5f5db c0c5fd7f 442420c5 fd6f4424  @.......D$ ..oD$
 400710 20c5fd6f 4c2440c5 f5dbc0c5 fd7f4424   ..oL$@.......D$
 400720 20c5fd6f 442420c5 fd6f4c24 40c5f5db   ..oD$ ..oL$@...
 400730 c0c5fd7f 442420c5 fd6f4424 20c5fd6f  ....D$ ..oD$ ..o
 400740 4c2440c5 f5dbc0c5 fd7f4424 20c5fd6f  L$@.......D$ ..o
 400750 442420c5 fd6f4c24 40c5f5db c0c5fd7f  D$ ..oL$@.......
 400760 442420c5 fd6f4424 20c5fd6f 4c2440c5  D$ ..oD$ ..oL$@.
 400770 f5dbc0c5 fd7f4424 20c5fd6f 442420c5  ......D$ ..oD$ .
 400780 fd6f4c24 40c5f5db c0c5fd7f 442420c5  .oL$@.......D$ .
 400790 fd6f4424 20c5fd6f 4c2440c5 f5dbc0c5  .oD$ ..oL$@.....
 4007a0 fd7f4424 20c5fd6f 442420c5 fd6f4c24  ..D$ ..oD$ ..oL$
 4007b0 40c5f5db c0c5fd7f 442420c5 fd6f4424  @.......D$ ..oD$
 4007c0 20c5fd6f 4c2440c5 f5dbc0c5 fd7f4424   ..oL$@.......D$
 4007d0 20c5fd6f 442420c5 fd6f4c24 40c5f5db   ..oD$ ..oL$@...
 4007e0 c0c5fd7f 442420c5 fd6f4424 20c5fd6f  ....D$ ..oD$ ..o
 4007f0 4c2440c5 f5dbc0c5 fd7f4424 20c5fd6f  L$@.......D$ ..o
 400800 442420c5 fd6f4c24 40c5f5db c0c5fd7f  D$ ..oL$@.......
 400810 442420c5 fd6f4424 20c5fd6f 4c2440c5  D$ ..oD$ ..oL$@.
 400820 f5dbc0c5 fd7f4424 20c5fd6f 442420c5  ......D$ ..oD$ .
 400830 fd6f4c24 40c5f5db c0c5fd7f 442420c5  .oL$@.......D$ .
 400840 fd6f4424 20c5fd6f 4c2440c5 f5dbc0c5  .oD$ ..oL$@.....
 400850 fd7f4424 20c5fd6f 442420c5 fd6f4c24  ..D$ ..oD$ ..oL$
 400860 40c5f5db c0c5fd7f 442420c5 fd6f4424  @.......D$ ..oD$
 400870 20c5fd6f 4c2440c5 f5dbc0c5 fd7f4424   ..oL$@.......D$
 400880 20c5fd6f 442420c5 fd6f4c24 40c5f5db   ..oD$ ..oL$@...
 400890 c0c5fd7f 442420c5 fd6f4424 20c5fd6f  ....D$ ..oD$ ..o
 4008a0 4c2440c5 f5dbc0c5 fd7f4424 20c5fd6f  L$@.......D$ ..o
 4008b0 442420c5 fd6f4c24 40c5f5db c0c5fd7f  D$ ..oL$@.......
 4008c0 442420c5 fd6f4424 20c5fd6f 4c2440c5  D$ ..oD$ ..oL$@.
 4008d0 f5dbc0c5 fd7f4424 20c5fd6f 442420c5  ......D$ ..oD$ .
 4008e0 fd6f4c24 40c5f5db c0c5fd7f 442420c5  .oL$@.......D$ .
 4008f0 fd6f4424 20c5fd6f 4c2440c5 f5dbc0c5  .oD$ ..oL$@.....
 400900 fd7f4424 20c5fd6f 442420c5 fd6f4c24  ..D$ ..oD$ ..oL$
 400910 40c5f5db c0c5fd7f 442420c5 fd6f4424  @.......D$ ..oD$
 400920 20c5fd6f 4c2440c5 f5dbc0c5 fd7f4424   ..oL$@.......D$
 400930 20c5fd6f 442420c5 fd6f4c24 40c5f5db   ..oD$ ..oL$@...
 400940 c0c5fd7f 442420c5 fd6f4424 20c5fd6f  ....D$ ..oD$ ..o
 400950 4c2440c5 f5dbc0c5 fd7f4424 20c5fd6f  L$@.......D$ ..o
 400960 442420c5 fd6f4c24 40c5f5db c0c5fd7f  D$ ..oL$@.......
 400970 442420c5 fd6f4424 20c5fd6f 4c2440c5  D$ ..oD$ ..oL$@.
 400980 f5dbc0c5 fd7f4424 20c5fd6f 442420c5  ......D$ ..oD$ .
 400990 fd6f4c24 40c5f5db c0c5fd7f 442420c5  .oL$@.......D$ .
 4009a0 fd6f4424 20c5fd6f 4c2440c5 f5dbc0c5  .oD$ ..oL$@.....
 4009b0 fd7f4424 20c5fd6f 442420c5 fd6f4c24  ..D$ ..oD$ ..oL$
 4009c0 40c5f5db c0c5fd7f 442420c5 fd6f4424  @.......D$ ..oD$
 4009d0 20c5fd6f 4c2440c5 f5dbc0c5 fd7f4424   ..oL$@.......D$
 4009e0 20c5fd6f 442420c5 fd6f4c24 40c5f5db   ..oD$ ..oL$@...
 4009f0 c0c5fd7f 442420c5 fd6f4424 20c5fd6f  ....D$ ..oD$ ..o
 400a00 4c2440c5 f5dbc0c5 fd7f4424 20c5fd6f  L$@.......D$ ..o
 400a10 442420c5 fd6f4c24 40c5f5db c0c5fd7f  D$ ..oL$@.......
 400a20 442420c5 fd6f4424 20c5fd6f 4c2440c5  D$ ..oD$ ..oL$@.
 400a30 f5dbc0c5 fd7f4424 20c5fd6f 442420c5  ......D$ ..oD$ .
 400a40 fd6f4c24 40c5f5db c0c5fd7f 442420c5  .oL$@.......D$ .
 400a50 fd6f4424 20c5fd6f 4c2440c5 f5dbc0c5  .oD$ ..oL$@.....
 400a60 fd7f4424 20c5fd6f 442420c5 fd6f4c24  ..D$ ..oD$ ..oL$
 400a70 40c5f5db c0c5fd7f 442420c5 fd6f4424  @.......D$ ..oD$
 400a80 20c5fd6f 4c2440c5 f5dbc0c5 fd7f4424   ..oL$@.......D$
 400a90 20c5fd6f 442420c5 fd6f4c24 40c5f5db   ..oD$ ..oL$@...
 400aa0 c0c5fd7f 442420c5 fd6f4424 20c5fd6f  ....D$ ..oD$ ..o
 400ab0 4c2440c5 f5dbc0c5 fd7f4424 20c5fd6f  L$@.......D$ ..o
 400ac0 442420c5 fd6f4c24 40c5f5db c0c5fd7f  D$ ..oL$@.......
 400ad0 442420c5 fd6f4424 20c5fd6f 4c2440c5  D$ ..oD$ ..oL$@.
 400ae0 f5dbc0c5 fd7f4424 20c5fd6f 442420c5  ......D$ ..oD$ .
 400af0 fd6f4c24 40c5f5db c0c5fd7f 442420c5  .oL$@.......D$ .
 400b00 fd6f4424 20c5fd6f 4c2440c5 f5dbc0c5  .oD$ ..oL$@.....
 400b10 fd7f4424 20c5fd6f 442420c5 fd6f4c24  ..D$ ..oD$ ..oL$
 400b20 40c5f5db c0c5fd7f 442420c5 fd6f4424  @.......D$ ..oD$
 400b30 20c5fd6f 4c2440c5 f5dbc0c5 fd7f4424   ..oL$@.......D$
 400b40 20c5fd6f 442420c5 fd6f4c24 40c5f5db   ..oD$ ..oL$@...
 400b50 c0c5fd7f 442420c5 fd6f4424 20c5fd6f  ....D$ ..oD$ ..o
 400b60 4c2440c5 f5dbc0c5 fd7f4424 20c5fd6f  L$@.......D$ ..o
 400b70 442420c5 fd6f4c24 40c5f5db c0c5fd7f  D$ ..oL$@.......
 400b80 442420c5 fd6f4424 20c5fd6f 4c2440c5  D$ ..oD$ ..oL$@.
 400b90 f5dbc0c5 fd7f4424 20c5fd6f 442420c5  ......D$ ..oD$ .
 400ba0 fd6f4c24 40c5f5db c0c5fd7f 442420c5  .oL$@.......D$ .
 400bb0 fd6f4424 20c5fd6f 4c2440c5 f5dbc0c5  .oD$ ..oL$@.....
 400bc0 fd7f4424 20c5fd6f 442420c5 fd6f4c24  ..D$ ..oD$ ..oL$
 400bd0 40c5f5db c0c5fd7f 442420c5 fd6f4424  @.......D$ ..oD$
 400be0 20c5fd6f 4c2440c5 f5dbc0c5 fd7f4424   ..oL$@.......D$
 400bf0 20c5fd6f 442420c5 fd6f4c24 40c5f5db   ..oD$ ..oL$@...
 400c00 c0c5fd7f 442420c5 fd6f4424 20c5fd6f  ....D$ ..oD$ ..o
 400c10 4c2440c5 f5dbc0c5 fd7f4424 20c5fd6f  L$@.......D$ ..o
 400c20 442420c5 fd6f4c24 40c5f5db c0c5fd7f  D$ ..oL$@.......
 400c30 442420c5 fd6f4424 20c5fd6f 4c2440c5  D$ ..oD$ ..oL$@.
 400c40 f5dbc0c5 fd7f4424 20c5fd6f 442420c5  ......D$ ..oD$ .
 400c50 fd6f4c24 40c5f5db c0c5fd7f 442420c5  .oL$@.......D$ .
 400c60 fd6f4424 20c5fd6f 4c2440c5 f5dbc0c5  .oD$ ..oL$@.....
 400c70 fd7f4424 20c5fd6f 442420c5 fd6f4c24  ..D$ ..oD$ ..oL$
 400c80 40c5f5db c0c5fd7f 442420c5 fd6f4424  @.......D$ ..oD$
 400c90 20c5fd6f 4c2440c5 f5dbc0c5 fd7f4424   ..oL$@.......D$
 400ca0 20c5fd6f 442420c5 fd6f4c24 40c5f5db   ..oD$ ..oL$@...
 400cb0 c0c5fd7f 442420c5 fd6f4424 20c5fd6f  ....D$ ..oD$ ..o
 400cc0 4c2440c5 f5dbc0c5 fd7f4424 20c5fd6f  L$@.......D$ ..o
 400cd0 442420c5 fd6f4c24 40c5f5db c0c5fd7f  D$ ..oL$@.......
 400ce0 442420c5 fd6f4424 20c5fd6f 4c2440c5  D$ ..oD$ ..oL$@.
 400cf0 f5dbc0c5 fd7f4424 20c5fd6f 442420c5  ......D$ ..oD$ .
 400d00 fd6f4c24 40c5f5db c0c5fd7f 442420c5  .oL$@.......D$ .
 400d10 fd6f4424 20c5fd6f 4c2440c5 f5dbc0c5  .oD$ ..oL$@.....
 400d20 fd7f4424 20c5fd6f 442420c5 fd6f4c24  ..D$ ..oD$ ..oL$
 400d30 40c5f5db c0c5fd7f 442420c5 fd6f4424  @.......D$ ..oD$
 400d40 20c5fd6f 4c2440c5 f5dbc0c5 fd7f4424   ..oL$@.......D$
 400d50 20c5fd6f 442420c5 fd6f4c24 40c5f5db   ..oD$ ..oL$@...
 400d60 c0c5fd7f 442420c5 fd6f4424 20c5fd6f  ....D$ ..oD$ ..o
 400d70 4c2440c5 f5dbc0c5 fd7f4424 20c5fd6f  L$@.......D$ ..o
 400d80 442420c5 fd6f4c24 40c5f5db c0c5fd7f  D$ ..oL$@.......
 400d90 442420c5 fd6f4424 20c5fd6f 4c2440c5  D$ ..oD$ ..oL$@.
 400da0 f5dbc0c5 fd7f4424 20c5fd6f 442420c5  ......D$ ..oD$ .
 400db0 fd6f4c24 40c5f5db c0c5fd7f 442420c5  .oL$@.......D$ .
 400dc0 fd6f4424 20c5fd6f 4c2440c5 f5dbc0c5  .oD$ ..oL$@.....
 400dd0 fd7f4424 20c5fd6f 442420c5 fd6f4c24  ..D$ ..oD$ ..oL$
 400de0 40c5f5db c0c5fd7f 442420c5 fd6f4424  @.......D$ ..oD$
 400df0 20c5fd6f 4c2440c5 f5dbc0c5 fd7f4424   ..oL$@.......D$
 400e00 20c5fd6f 442420c5 fd6f4c24 40c5f5db   ..oD$ ..oL$@...
 400e10 c0c5fd7f 442420c5 fd6f4424 20c5fd6f  ....D$ ..oD$ ..o
 400e20 4c2440c5 f5dbc0c5 fd7f4424 20c5fd6f  L$@.......D$ ..o
 400e30 442420c5 fd6f4c24 40c5f5db c0c5fd7f  D$ ..oL$@.......
 400e40 442420c5 fd6f4424 20c5fd6f 4c2440c5  D$ ..oD$ ..oL$@.
 400e50 f5dbc0c5 fd7f4424 20c5fd6f 442420c5  ......D$ ..oD$ .
 400e60 fd6f4c24 40c5f5db c0c5fd7f 442420c5  .oL$@.......D$ .
 400e70 fd6f4424 20c5fd6f 4c2440c5 f5dbc0c5  .oD$ ..oL$@.....
 400e80 fd7f4424 20c5fd6f 442420c5 fd6f4c24  ..D$ ..oD$ ..oL$
 400e90 40c5f5db c0c5fd7f 442420c5 fd6f4424  @.......D$ ..oD$
 400ea0 20c5fd6f 4c2440c5 f5dbc0c5 fd7f4424   ..oL$@.......D$
 400eb0 20c5fd6f 442420c5 fd6f4c24 40c5f5db   ..oD$ ..oL$@...
 400ec0 c0c5fd7f 442420c5 fd6f4424 20c5fd6f  ....D$ ..oD$ ..o
 400ed0 4c2440c5 f5dbc0c5 fd7f4424 20c5fd6f  L$@.......D$ ..o
 400ee0 442420c5 fd6f4c24 40c5f5db c0c5fd7f  D$ ..oL$@.......
 400ef0 442420c5 fd6f4424 20c5fd6f 4c2440c5  D$ ..oD$ ..oL$@.
 400f00 f5dbc0c5 fd7f4424 20c5fd6f 442420c5  ......D$ ..oD$ .
 400f10 fd6f4c24 40c5f5db c0c5fd7f 442420c5  .oL$@.......D$ .
 400f20 fd6f4424 20c5fd6f 4c2440c5 f5dbc0c5  .oD$ ..oL$@.....
 400f30 fd7f4424 20c5fd6f 442420c5 fd6f4c24  ..D$ ..oD$ ..oL$
 400f40 40c5f5db c0c5fd7f 442420c5 fd6f4424  @.......D$ ..oD$
 400f50 20c5fd6f 4c2440c5 f5dbc0c5 fd7f4424   ..oL$@.......D$
 400f60 20c5fd6f 442420c5 fd6f4c24 40c5f5db   ..oD$ ..oL$@...
 400f70 c0c5fd7f 442420c5 fd6f4424 20c5fd6f  ....D$ ..oD$ ..o
 400f80 4c2440c5 f5dbc0c5 fd7f4424 20c5fd6f  L$@.......D$ ..o
 400f90 442420c5 fd6f4c24 40c5f5db c0c5fd7f  D$ ..oL$@.......
 400fa0 442420c5 fd6f4424 20c5fd6f 4c2440c5  D$ ..oD$ ..oL$@.
 400fb0 f5dbc0c5 fd7f4424 20c5fd6f 442420c5  ......D$ ..oD$ .
 400fc0 fd6f4c24 40c5f5db c0c5fd7f 442420c5  .oL$@.......D$ .
 400fd0 fd6f4424 20c5fd6f 4c2440c5 f5dbc0c5  .oD$ ..oL$@.....
 400fe0 fd7f4424 20c5fd6f 442420c5 fd6f4c24  ..D$ ..oD$ ..oL$
 400ff0 40c5f5db c0c5fd7f 442420c5 fd6f4424  @.......D$ ..oD$
 401000 20c5fd6f 4c2440c5 f5dbc0c5 fd7f4424   ..oL$@.......D$
 401010 20c5fd6f 442420c5 fd6f4c24 40c5f5db   ..oD$ ..oL$@...
 401020 c0c5fd7f 442420c5 fd6f4424 20c5fd6f  ....D$ ..oD$ ..o
 401030 4c2440c5 f5dbc0c5 fd7f4424 20c5fd6f  L$@.......D$ ..o
 401040 442420c5 fd6f4c24 40c5f5db c0c5fd7f  D$ ..oL$@.......
 401050 442420c5 fd6f4424 20c5fd6f 4c2440c5  D$ ..oD$ ..oL$@.
 401060 f5dbc0c5 fd7f4424 20c5fd6f 442420c5  ......D$ ..oD$ .
 401070 fd6f4c24 40c5f5db c0c5fd7f 442420c5  .oL$@.......D$ .
 401080 fd6f4424 20c5fd6f 4c2440c5 f5dbc0c5  .oD$ ..oL$@.....
 401090 fd7f4424 20c5fd6f 442420c5 fd6f4c24  ..D$ ..oD$ ..oL$
 4010a0 40c5f5db c0c5fd7f 442420c5 fd6f4424  @.......D$ ..oD$
 4010b0 20c5fd6f 4c2440c5 f5dbc0c5 fd7f4424   ..oL$@.......D$
 4010c0 20c5fd6f 442420c5 fd6f4c24 40c5f5db   ..oD$ ..oL$@...
 4010d0 c0c5fd7f 442420c5 fd6f4424 20c5fd6f  ....D$ ..oD$ ..o
 4010e0 4c2440c5 f5dbc0c5 fd7f4424 20c5fd6f  L$@.......D$ ..o
 4010f0 442420c5 fd6f4c24 40c5f5db c0c5fd7f  D$ ..oL$@.......
 401100 442420c5 fd6f4424 20c5fd6f 4c2440c5  D$ ..oD$ ..oL$@.
 401110 f5dbc0c5 fd7f4424 20c5fd6f 442420c5  ......D$ ..oD$ .
 401120 fd6f4c24 40c5f5db c0c5fd7f 442420c5  .oL$@.......D$ .
 401130 fd6f4424 20c5fd6f 4c2440c5 f5dbc0c5  .oD$ ..oL$@.....
 401140 fd7f4424 20c5fd6f 442420c5 fd6f4c24  ..D$ ..oD$ ..oL$
 401150 40c5f5db c0c5fd7f 442420c5 fd6f4424  @.......D$ ..oD$
 401160 20c5fd6f 4c2440c5 f5dbc0c5 fd7f4424   ..oL$@.......D$
 401170 20c5fd6f 442420c5 fd6f4c24 40c5f5db   ..oD$ ..oL$@...
 401180 c0c5fd7f 442420c5 fd6f4424 20c5fd6f  ....D$ ..oD$ ..o
 401190 4c2440c5 f5dbc0c5 fd7f4424 20c5fd6f  L$@.......D$ ..o
 4011a0 442420c5 fd6f4c24 40c5f5db c0c5fd7f  D$ ..oL$@.......
 4011b0 442420c5 fd6f4424 20c5fd6f 4c2440c5  D$ ..oD$ ..oL$@.
 4011c0 f5dbc0c5 fd7f4424 20c5fd6f 442420c5  ......D$ ..oD$ .
 4011d0 fd6f4c24 40c5f5db c0c5fd7f 442420c5  .oL$@.......D$ .
 4011e0 fd6f4424 20c5fd6f 4c2440c5 f5dbc0c5  .oD$ ..oL$@.....
 4011f0 fd7f4424 20c5fd6f 442420c5 fd6f4c24  ..D$ ..oD$ ..oL$
 401200 40c5f5db c0c5fd7f 442420c5 fd6f4424  @.......D$ ..oD$
 401210 20c5fd6f 4c2440c5 f5dbc0c5 fd7f4424   ..oL$@.......D$
 401220 20c5fd6f 442420c5 fd6f4c24 40c5f5db   ..oD$ ..oL$@...
 401230 c0c5fd7f 442420c5 fd6f4424 20c5fd6f  ....D$ ..oD$ ..o
 401240 4c2440c5 f5dbc0c5 fd7f4424 20c5fd6f  L$@.......D$ ..o
 401250 442420c5 fd6f4c24 40c5f5db c0c5fd7f  D$ ..oL$@.......
 401260 442420c5 fd6f4424 20c5fd6f 4c2440c5  D$ ..oD$ ..oL$@.
 401270 f5dbc0c5 fd7f4424 20c5fd6f 442420c5  ......D$ ..oD$ .
 401280 fd6f4c24 40c5f5db c0c5fd7f 442420c5  .oL$@.......D$ .
 401290 fd6f4424 20c5fd6f 4c2440c5 f5dbc0c5  .oD$ ..oL$@.....
 4012a0 fd7f4424 20c5fd6f 442420c5 fd6f4c24  ..D$ ..oD$ ..oL$
 4012b0 40c5f5db c0c5fd7f 442420c5 fd6f4424  @.......D$ ..oD$
 4012c0 20c5fd6f 4c2440c5 f5dbc0c5 fd7f4424   ..oL$@.......D$
 4012d0 20c5fd6f 442420c5 fd6f4c24 40c5f5db   ..oD$ ..oL$@...
 4012e0 c0c5fd7f 442420c5 fd6f4424 20c5fd6f  ....D$ ..oD$ ..o
 4012f0 4c2440c5 f5dbc0c5 fd7f4424 20c5fd6f  L$@.......D$ ..o
 401300 442420c5 fd6f4c24 40c5f5db c0c5fd7f  D$ ..oL$@.......
 401310 442420c5 fd6f4424 20c5fd6f 4c2440c5  D$ ..oD$ ..oL$@.
 401320 f5dbc0c5 fd7f4424 20c5fd6f 442420c5  ......D$ ..oD$ .
 401330 fd6f4c24 40c5f5db c0c5fd7f 442420c5  .oL$@.......D$ .
 401340 fd6f4424 20c5fd6f 4c2440c5 f5dbc0c5  .oD$ ..oL$@.....
 401350 fd7f4424 20c5fd6f 442420c5 fd6f4c24  ..D$ ..oD$ ..oL$
 401360 40c5f5db c0c5fd7f 442420c5 fd6f4424  @.......D$ ..oD$
 401370 20c5fd6f 4c2440c5 f5dbc0c5 fd7f4424   ..oL$@.......D$
 401380 20c5fd6f 442420c5 fd6f4c24 40c5f5db   ..oD$ ..oL$@...
 401390 c0c5fd7f 442420c5 fd6f4424 20c5fd6f  ....D$ ..oD$ ..o
 4013a0 4c2440c5 f5dbc0c5 fd7f4424 20c5fd6f  L$@.......D$ ..o
 4013b0 442420c5 fd6f4c24 40c5f5db c0c5fd7f  D$ ..oL$@.......
 4013c0 442420c5 fd6f4424 20c5fd6f 4c2440c5  D$ ..oD$ ..oL$@.
 4013d0 f5dbc0c5 fd7f4424 20c5fd6f 442420c5  ......D$ ..oD$ .
 4013e0 fd6f4c24 40c5f5db c0c5fd7f 442420c5  .oL$@.......D$ .
 4013f0 fd6f4424 20c5fd6f 4c2440c5 f5dbc0c5  .oD$ ..oL$@.....
 401400 fd7f4424 20c5fd6f 442420c5 fd6f4c24  ..D$ ..oD$ ..oL$
 401410 40c5f5db c0c5fd7f 442420c5 fd6f4424  @.......D$ ..oD$
 401420 20c5fd6f 4c2440c5 f5dbc0c5 fd7f4424   ..oL$@.......D$
 401430 20c5fd6f 442420c5 fd6f4c24 40c5f5db   ..oD$ ..oL$@...
 401440 c0c5fd7f 442420c5 fd6f4424 20c5fd6f  ....D$ ..oD$ ..o
 401450 4c2440c5 f5dbc0c5 fd7f4424 20c5fd6f  L$@.......D$ ..o
 401460 442420c5 fd6f4c24 40c5f5db c0c5fd7f  D$ ..oL$@.......
 401470 442420c5 fd6f4424 20c5fd6f 4c2440c5  D$ ..oD$ ..oL$@.
 401480 f5dbc0c5 fd7f4424 20c5fd6f 442420c5  ......D$ ..oD$ .
 401490 fd6f4c24 40c5f5db c0c5fd7f 442420c5  .oL$@.......D$ .
 4014a0 fd6f4424 20c5fd6f 4c2440c5 f5dbc0c5  .oD$ ..oL$@.....
 4014b0 fd7f4424 20c5fd6f 442420c5 fd6f4c24  ..D$ ..oD$ ..oL$
 4014c0 40c5f5db c0c5fd7f 442420c5 fd6f4424  @.......D$ ..oD$
 4014d0 20c5fd6f 4c2440c5 f5dbc0c5 fd7f4424   ..oL$@.......D$
 4014e0 20c5fd6f 442420c5 fd6f4c24 40c5f5db   ..oD$ ..oL$@...
 4014f0 c0c5fd7f 442420c5 fd6f4424 20c5fd6f  ....D$ ..oD$ ..o
 401500 4c2440c5 f5dbc0c5 fd7f4424 20c5fd6f  L$@.......D$ ..o
 401510 442420c5 fd6f4c24 40c5f5db c0c5fd7f  D$ ..oL$@.......
 401520 442420c5 fd6f4424 20c5fd6f 4c2440c5  D$ ..oD$ ..oL$@.
 401530 f5dbc0c5 fd7f4424 20c5fd6f 442420c5  ......D$ ..oD$ .
 401540 fd6f4c24 40c5f5db c0c5fd7f 442420c5  .oL$@.......D$ .
 401550 fd6f4424 20c5fd6f 4c2440c5 f5dbc0c5  .oD$ ..oL$@.....
 401560 fd7f4424 20c5fd6f 442420c5 fd6f4c24  ..D$ ..oD$ ..oL$
 401570 40c5f5db c0c5fd7f 442420c5 fd6f4424  @.......D$ ..oD$
 401580 20c5fd6f 4c2440c5 f5dbc0c5 fd7f4424   ..oL$@.......D$
 401590 20c5fd6f 442420c5 fd6f4c24 40c5f5db   ..oD$ ..oL$@...
 4015a0 c0c5fd7f 442420c5 fd6f4424 20c5fd6f  ....D$ ..oD$ ..o
 4015b0 4c2440c5 f5dbc0c5 fd7f4424 20c5fd6f  L$@.......D$ ..o
 4015c0 442420c5 fd6f4c24 40c5f5db c0c5fd7f  D$ ..oL$@.......
 4015d0 442420c5 fd6f4424 20c5fd6f 4c2440c5  D$ ..oD$ ..oL$@.
 4015e0 f5dbc0c5 fd7f4424 20c5fd6f 442420c5  ......D$ ..oD$ .
 4015f0 fd6f4c24 40c5f5db c0c5fd7f 442420c5  .oL$@.......D$ .
 401600 fd6f4424 20c5fd6f 4c2440c5 f5dbc0c5  .oD$ ..oL$@.....
 401610 fd7f4424 20c5fd6f 442420c5 fd6f4c24  ..D$ ..oD$ ..oL$
 401620 40c5f5db c0c5fd7f 442420c5 fd6f4424  @.......D$ ..oD$
 401630 20c5fd6f 4c2440c5 f5dbc0c5 fd7f4424   ..oL$@.......D$
 401640 20c5fd6f 442420c5 fd6f4c24 40c5f5db   ..oD$ ..oL$@...
 401650 c0c5fd7f 442420c5 fd6f4424 20c5fd6f  ....D$ ..oD$ ..o
 401660 4c2440c5 f5dbc0c5 fd7f4424 20c5fd6f  L$@.......D$ ..o
 401670 442420c5 fd6f4c24 40c5f5db c0c5fd7f  D$ ..oL$@.......
 401680 442420c5 fd6f4424 20c5fd6f 4c2440c5  D$ ..oD$ ..oL$@.
 401690 f5dbc0c5 fd7f4424 20c5fd6f 442420c5  ......D$ ..oD$ .
 4016a0 fd6f4c24 40c5f5db c0c5fd7f 442420c5  .oL$@.......D$ .
 4016b0 fd6f4424 20c5fd6f 4c2440c5 f5dbc0c5  .oD$ ..oL$@.....
 4016c0 fd7f4424 20c5fd6f 442420c5 fd6f4c24  ..D$ ..oD$ ..oL$
 4016d0 40c5f5db c0c5fd7f 442420c5 fd6f4424  @.......D$ ..oD$
 4016e0 20c5fd6f 4c2440c5 f5dbc0c5 fd7f4424   ..oL$@.......D$
 4016f0 20c5fd6f 442420c5 fd6f4c24 40c5f5db   ..oD$ ..oL$@...
 401700 c0c5fd7f 442420c5 fd6f4424 20c5fd6f  ....D$ ..oD$ ..o
 401710 4c2440c5 f5dbc0c5 fd7f4424 20c5fd6f  L$@.......D$ ..o
 401720 442420c5 fd6f4c24 40c5f5db c0c5fd7f  D$ ..oL$@.......
 401730 442420c5 fd6f4424 20c5fd6f 4c2440c5  D$ ..oD$ ..oL$@.
 401740 f5dbc0c5 fd7f4424 20c5fd6f 442420c5  ......D$ ..oD$ .
 401750 fd6f4c24 40c5f5db c0c5fd7f 442420c5  .oL$@.......D$ .
 401760 fd6f4424 20c5fd6f 4c2440c5 f5dbc0c5  .oD$ ..oL$@.....
 401770 fd7f4424 20c5fd6f 442420c5 fd6f4c24  ..D$ ..oD$ ..oL$
 401780 40c5f5db c0c5fd7f 442420c5 fd6f4424  @.......D$ ..oD$
 401790 20c5fd6f 4c2440c5 f5dbc0c5 fd7f4424   ..oL$@.......D$
 4017a0 20c5fd6f 442420c5 fd6f4c24 40c5f5db   ..oD$ ..oL$@...
 4017b0 c0c5fd7f 442420c5 fd6f4424 20c5fd6f  ....D$ ..oD$ ..o
 4017c0 4c2440c5 f5dbc0c5 fd7f4424 20c5fd6f  L$@.......D$ ..o
 4017d0 442420c5 fd6f4c24 40c5f5db c0c5fd7f  D$ ..oL$@.......
 4017e0 442420c5 fd6f4424 20c5fd6f 4c2440c5  D$ ..oD$ ..oL$@.
 4017f0 f5dbc0c5 fd7f4424 20c5fd6f 442420c5  ......D$ ..oD$ .
 401800 fd6f4c24 40c5f5db c0c5fd7f 442420c5  .oL$@.......D$ .
 401810 fd6f4424 20c5fd6f 4c2440c5 f5dbc0c5  .oD$ ..oL$@.....
 401820 fd7f4424 20c5fd6f 442420c5 fd6f4c24  ..D$ ..oD$ ..oL$
 401830 40c5f5db c0c5fd7f 442420c5 fd6f4424  @.......D$ ..oD$
 401840 20c5fd6f 4c2440c5 f5dbc0c5 fd7f4424   ..oL$@.......D$
 401850 20c5fd6f 442420c5 fd6f4c24 40c5f5db   ..oD$ ..oL$@...
 401860 c0c5fd7f 442420c5 fd6f4424 20c5fd6f  ....D$ ..oD$ ..o
 401870 4c2440c5 f5dbc0c5 fd7f4424 20c5fd6f  L$@.......D$ ..o
 401880 442420c5 fd6f4c24 40c5f5db c0c5fd7f  D$ ..oL$@.......
 401890 442420c5 fd6f4424 20c5fd6f 4c2440c5  D$ ..oD$ ..oL$@.
 4018a0 f5dbc0c5 fd7f4424 20c5fd6f 442420c5  ......D$ ..oD$ .
 4018b0 fd6f4c24 40c5f5db c0c5fd7f 442420c5  .oL$@.......D$ .
 4018c0 fd6f4424 20c5fd6f 4c2440c5 f5dbc0c5  .oD$ ..oL$@.....
 4018d0 fd7f4424 20c5fd6f 442420c5 fd6f4c24  ..D$ ..oD$ ..oL$
 4018e0 40c5f5db c0c5fd7f 442420c5 fd6f4424  @.......D$ ..oD$
 4018f0 20c5fd6f 4c2440c5 f5dbc0c5 fd7f4424   ..oL$@.......D$
 401900 20c5fd6f 442420c5 fd6f4c24 40c5f5db   ..oD$ ..oL$@...
 401910 c0c5fd7f 442420c5 fd6f4424 20c5fd6f  ....D$ ..oD$ ..o
 401920 4c2440c5 f5dbc0c5 fd7f4424 20c5fd6f  L$@.......D$ ..o
 401930 442420c5 fd6f4c24 40c5f5db c0c5fd7f  D$ ..oL$@.......
 401940 442420c5 fd6f4424 20c5fd6f 4c2440c5  D$ ..oD$ ..oL$@.
 401950 f5dbc0c5 fd7f4424 20c5fd6f 442420c5  ......D$ ..oD$ .
 401960 fd6f4c24 40c5f5db c0c5fd7f 442420c5  .oL$@.......D$ .
 401970 fd6f4424 20c5fd6f 4c2440c5 f5dbc0c5  .oD$ ..oL$@.....
 401980 fd7f4424 20c5fd6f 442420c5 fd6f4c24  ..D$ ..oD$ ..oL$
 401990 40c5f5db c0c5fd7f 442420c5 fd6f4424  @.......D$ ..oD$
 4019a0 20c5fd6f 4c2440c5 f5dbc0c5 fd7f4424   ..oL$@.......D$
 4019b0 20c5fd6f 442420c5 fd6f4c24 40c5f5db   ..oD$ ..oL$@...
 4019c0 c0c5fd7f 442420c5 fd6f4424 20c5fd6f  ....D$ ..oD$ ..o
 4019d0 4c2440c5 f5dbc0c5 fd7f4424 20c5fd6f  L$@.......D$ ..o
 4019e0 442420c5 fd6f4c24 40c5f5db c0c5fd7f  D$ ..oL$@.......
 4019f0 442420c5 fd6f4424 20c5fd6f 4c2440c5  D$ ..oD$ ..oL$@.
 401a00 f5dbc0c5 fd7f4424 20c5fd6f 442420c5  ......D$ ..oD$ .
 401a10 fd6f4c24 40c5f5db c0c5fd7f 442420c5  .oL$@.......D$ .
 401a20 fd6f4424 20c5fd6f 4c2440c5 f5dbc0c5  .oD$ ..oL$@.....
 401a30 fd7f4424 20c5fd6f 442420c5 fd6f4c24  ..D$ ..oD$ ..oL$
 401a40 40c5f5db c0c5fd7f 442420c5 fd6f4424  @.......D$ ..oD$
 401a50 20c5fd6f 4c2440c5 f5dbc0c5 fd7f4424   ..oL$@.......D$
 401a60 20c5fd6f 442420c5 fd6f4c24 40c5f5db   ..oD$ ..oL$@...
 401a70 c0c5fd7f 442420c5 fd6f4424 20c5fd6f  ....D$ ..oD$ ..o
 401a80 4c2440c5 f5dbc0c5 fd7f4424 20c5fd6f  L$@.......D$ ..o
 401a90 442420c5 fd6f4c24 40c5f5db c0c5fd7f  D$ ..oL$@.......
 401aa0 442420c5 fd6f4424 20c5fd6f 4c2440c5  D$ ..oD$ ..oL$@.
 401ab0 f5dbc0c5 fd7f4424 20c5fd6f 442420c5  ......D$ ..oD$ .
 401ac0 fd6f4c24 40c5f5db c0c5fd7f 442420c5  .oL$@.......D$ .
 401ad0 fd6f4424 20c5fd6f 4c2440c5 f5dbc0c5  .oD$ ..oL$@.....
 401ae0 fd7f4424 20c5fd6f 442420c5 fd6f4c24  ..D$ ..oD$ ..oL$
 401af0 40c5f5db c0c5fd7f 442420c5 fd6f4424  @.......D$ ..oD$
 401b00 20c5fd6f 4c2440c5 f5dbc0c5 fd7f4424   ..oL$@.......D$
 401b10 20c5fd6f 442420c5 fd6f4c24 40c5f5db   ..oD$ ..oL$@...
 401b20 c0c5fd7f 442420c5 fd6f4424 20c5fd6f  ....D$ ..oD$ ..o
 401b30 4c2440c5 f5dbc0c5 fd7f4424 20c5fd6f  L$@.......D$ ..o
 401b40 442420c5 fd6f4c24 40c5f5db c0c5fd7f  D$ ..oL$@.......
 401b50 442420c5 fd6f4424 20c5fd6f 4c2440c5  D$ ..oD$ ..oL$@.
 401b60 f5dbc0c5 fd7f4424 20c5fd6f 442420c5  ......D$ ..oD$ .
 401b70 fd6f4c24 40c5f5db c0c5fd7f 442420c5  .oL$@.......D$ .
 401b80 fd6f4424 20c5fd6f 4c2440c5 f5dbc0c5  .oD$ ..oL$@.....
 401b90 fd7f4424 20c5fd6f 442420c5 fd6f4c24  ..D$ ..oD$ ..oL$
 401ba0 40c5f5db c0c5fd7f 442420c5 fd6f4424  @.......D$ ..oD$
 401bb0 20c5fd6f 4c2440c5 f5dbc0c5 fd7f4424   ..oL$@.......D$
 401bc0 20c5fd6f 442420c5 fd6f4c24 40c5f5db   ..oD$ ..oL$@...
 401bd0 c0c5fd7f 442420c5 fd6f4424 20c5fd6f  ....D$ ..oD$ ..o
 401be0 4c2440c5 f5dbc0c5 fd7f4424 20c5fd6f  L$@.......D$ ..o
 401bf0 442420c5 fd6f4c24 40c5f5db c0c5fd7f  D$ ..oL$@.......
 401c00 442420c5 fd6f4424 20c5fd6f 4c2440c5  D$ ..oD$ ..oL$@.
 401c10 f5dbc0c5 fd7f4424 20c5fd6f 442420c5  ......D$ ..oD$ .
 401c20 fd6f4c24 40c5f5db c0c5fd7f 442420c5  .oL$@.......D$ .
 401c30 fd6f4424 20c5fd6f 4c2440c5 f5dbc0c5  .oD$ ..oL$@.....
 401c40 fd7f4424 20c5fd6f 442420c5 fd6f4c24  ..D$ ..oD$ ..oL$
 401c50 40c5f5db c0c5fd7f 442420c5 fd6f4424  @.......D$ ..oD$
 401c60 20c5fd6f 4c2440c5 f5dbc0c5 fd7f4424   ..oL$@.......D$
 401c70 20c5fd6f 442420c5 fd6f4c24 40c5f5db   ..oD$ ..oL$@...
 401c80 c0c5fd7f 442420c5 fd6f4424 20c5fd6f  ....D$ ..oD$ ..o
 401c90 4c2440c5 f5dbc0c5 fd7f4424 20c5fd6f  L$@.......D$ ..o
 401ca0 442420c5 fd6f4c24 40c5f5db c0c5fd7f  D$ ..oL$@.......
 401cb0 442420c5 fd6f4424 20c5fd6f 4c2440c5  D$ ..oD$ ..oL$@.
 401cc0 f5dbc0c5 fd7f4424 20c5fd6f 442420c5  ......D$ ..oD$ .
 401cd0 fd6f4c24 40c5f5db c0c5fd7f 442420c5  .oL$@.......D$ .
 401ce0 fd6f4424 20c5fd6f 4c2440c5 f5dbc0c5  .oD$ ..oL$@.....
 401cf0 fd7f4424 20c5fd6f 442420c5 fd6f4c24  ..D$ ..oD$ ..oL$
 401d00 40c5f5db c0c5fd7f 442420c5 fd6f4424  @.......D$ ..oD$
 401d10 20c5fd6f 4c2440c5 f5dbc0c5 fd7f4424   ..oL$@.......D$
 401d20 20c5fd6f 442420c5 fd6f4c24 40c5f5db   ..oD$ ..oL$@...
 401d30 c0c5fd7f 442420c5 fd6f4424 20c5fd6f  ....D$ ..oD$ ..o
 401d40 4c2440c5 f5dbc0c5 fd7f4424 20c5fd6f  L$@.......D$ ..o
 401d50 442420c5 fd6f4c24 40c5f5db c0c5fd7f  D$ ..oL$@.......
 401d60 442420c5 fd6f4424 20c5fd6f 4c2440c5  D$ ..oD$ ..oL$@.
 401d70 f5dbc0c5 fd7f4424 20c5fd6f 442420c5  ......D$ ..oD$ .
 401d80 fd6f4c24 40c5f5db c0c5fd7f 442420c5  .oL$@.......D$ .
 401d90 fd6f4424 20c5fd6f 4c2440c5 f5dbc0c5  .oD$ ..oL$@.....
 401da0 fd7f4424 20c5fd6f 442420c5 fd6f4c24  ..D$ ..oD$ ..oL$
 401db0 40c5f5db c0c5fd7f 442420c5 fd6f4424  @.......D$ ..oD$
 401dc0 20c5fd6f 4c2440c5 f5dbc0c5 fd7f4424   ..oL$@.......D$
 401dd0 20c5fd6f 442420c5 fd6f4c24 40c5f5db   ..oD$ ..oL$@...
 401de0 c0c5fd7f 442420c5 fd6f4424 20c5fd6f  ....D$ ..oD$ ..o
 401df0 4c2440c5 f5dbc0c5 fd7f4424 20c5fd6f  L$@.......D$ ..o
 401e00 442420c5 fd6f4c24 40c5f5db c0c5fd7f  D$ ..oL$@.......
 401e10 442420c5 fd6f4424 20c5fd6f 4c2440c5  D$ ..oD$ ..oL$@.
 401e20 f5dbc0c5 fd7f4424 20c5fd6f 442420c5  ......D$ ..oD$ .
 401e30 fd6f4c24 40c5f5db c0c5fd7f 442420c5  .oL$@.......D$ .
 401e40 fd6f4424 20c5fd6f 4c2440c5 f5dbc0c5  .oD$ ..oL$@.....
 401e50 fd7f4424 20c5fd6f 442420c5 fd6f4c24  ..D$ ..oD$ ..oL$
 401e60 40c5f5db c0c5fd7f 442420c5 fd6f4424  @.......D$ ..oD$
 401e70 20c5fd6f 4c2440c5 f5dbc0c5 fd7f4424   ..oL$@.......D$
 401e80 20c5fd6f 442420c5 fd6f4c24 40c5f5db   ..oD$ ..oL$@...
 401e90 c0c5fd7f 442420c5 fd6f4424 20c5fd6f  ....D$ ..oD$ ..o
 401ea0 4c2440c5 f5dbc0c5 fd7f4424 20c5fd6f  L$@.......D$ ..o
 401eb0 442420c5 fd6f4c24 40c5f5db c0c5fd7f  D$ ..oL$@.......
 401ec0 442420c5 fd6f4424 20c5fd6f 4c2440c5  D$ ..oD$ ..oL$@.
 401ed0 f5dbc0c5 fd7f4424 20c5fd6f 442420c5  ......D$ ..oD$ .
 401ee0 fd6f4c24 40c5f5db c0c5fd7f 442420c5  .oL$@.......D$ .
 401ef0 fd6f4424 20c5fd6f 4c2440c5 f5dbc0c5  .oD$ ..oL$@.....
 401f00 fd7f4424 20c5fd6f 442420c5 fd6f4c24  ..D$ ..oD$ ..oL$
 401f10 40c5f5db c0c5fd7f 442420c5 fd6f4424  @.......D$ ..oD$
 401f20 20c5fd6f 4c2440c5 f5dbc0c5 fd7f4424   ..oL$@.......D$
 401f30 20c5fd6f 442420c5 fd6f4c24 40c5f5db   ..oD$ ..oL$@...
 401f40 c0c5fd7f 442420c5 fd6f4424 20c5fd6f  ....D$ ..oD$ ..o
 401f50 4c2440c5 f5dbc0c5 fd7f4424 20c5fd6f  L$@.......D$ ..o
 401f60 442420c5 fd6f4c24 40c5f5db c0c5fd7f  D$ ..oL$@.......
 401f70 442420c5 fd6f4424 20c5fd6f 4c2440c5  D$ ..oD$ ..oL$@.
 401f80 f5dbc0c5 fd7f4424 20c5fd6f 442420c5  ......D$ ..oD$ .
 401f90 fd6f4c24 40c5f5db c0c5fd7f 442420c5  .oL$@.......D$ .
 401fa0 fd6f4424 20c5fd6f 4c2440c5 f5dbc0c5  .oD$ ..oL$@.....
 401fb0 fd7f4424 20c5fd6f 442420c5 fd6f4c24  ..D$ ..oD$ ..oL$
 401fc0 40c5f5db c0c5fd7f 442420c5 fd6f4424  @.......D$ ..oD$
 401fd0 20c5fd6f 4c2440c5 f5dbc0c5 fd7f4424   ..oL$@.......D$
 401fe0 20c5fd6f 442420c5 fd6f4c24 40c5f5db   ..oD$ ..oL$@...
 401ff0 c0c5fd7f 442420c5 fd6f4424 20c5fd6f  ....D$ ..oD$ ..o
 402000 4c2440c5 f5dbc0c5 fd7f4424 20c5fd6f  L$@.......D$ ..o
 402010 442420c5 fd6f4c24 40c5f5db c0c5fd7f  D$ ..oL$@.......
 402020 442420c5 fd6f4424 20c5fd6f 4c2440c5  D$ ..oD$ ..oL$@.
 402030 f5dbc0c5 fd7f4424 20c5fd6f 442420c5  ......D$ ..oD$ .
 402040 fd6f4c24 40c5f5db c0c5fd7f 442420c5  .oL$@.......D$ .
 402050 fd6f4424 20c5fd6f 4c2440c5 f5dbc0c5  .oD$ ..oL$@.....
 402060 fd7f4424 20c5fd6f 442420c5 fd6f4c24  ..D$ ..oD$ ..oL$
 402070 40c5f5db c0c5fd7f 442420c5 fd6f4424  @.......D$ ..oD$
 402080 20c5fd6f 4c2440c5 f5dbc0c5 fd7f4424   ..oL$@.......D$
 402090 20c5fd6f 442420c5 fd6f4c24 40c5f5db   ..oD$ ..oL$@...
 4020a0 c0c5fd7f 442420c5 fd6f4424 20c5fd6f  ....D$ ..oD$ ..o
 4020b0 4c2440c5 f5dbc0c5 fd7f4424 20c5fd6f  L$@.......D$ ..o
 4020c0 442420c5 fd6f4c24 40c5f5db c0c5fd7f  D$ ..oL$@.......
 4020d0 442420c5 fd6f4424 20c5fd6f 4c2440c5  D$ ..oD$ ..oL$@.
 4020e0 f5dbc0c5 fd7f4424 20c5fd6f 442420c5  ......D$ ..oD$ .
 4020f0 fd6f4c24 40c5f5db c0c5fd7f 442420c5  .oL$@.......D$ .
 402100 fd6f4424 20c5fd6f 4c2440c5 f5dbc0c5  .oD$ ..oL$@.....
 402110 fd7f4424 20c5fd6f 442420c5 fd6f4c24  ..D$ ..oD$ ..oL$
 402120 40c5f5db c0c5fd7f 442420c5 fd6f4424  @.......D$ ..oD$
 402130 20c5fd6f 4c2440c5 f5dbc0c5 fd7f4424   ..oL$@.......D$
 402140 20c5fd6f 442420c5 fd6f4c24 40c5f5db   ..oD$ ..oL$@...
 402150 c0c5fd7f 442420c5 fd6f4424 20c5fd6f  ....D$ ..oD$ ..o
 402160 4c2440c5 f5dbc0c5 fd7f4424 20c5fd6f  L$@.......D$ ..o
 402170 442420c5 fd6f4c24 40c5f5db c0c5fd7f  D$ ..oL$@.......
 402180 442420c5 fd6f4424 20c5fd6f 4c2440c5  D$ ..oD$ ..oL$@.
 402190 f5dbc0c5 fd7f4424 20c5fd6f 442420c5  ......D$ ..oD$ .
 4021a0 fd6f4c24 40c5f5db c0c5fd7f 442420c5  .oL$@.......D$ .
 4021b0 fd6f4424 20c5fd6f 4c2440c5 f5dbc0c5  .oD$ ..oL$@.....
 4021c0 fd7f4424 20c5fd6f 442420c5 fd6f4c24  ..D$ ..oD$ ..oL$
 4021d0 40c5f5db c0c5fd7f 442420c5 fd6f4424  @.......D$ ..oD$
 4021e0 20c5fd6f 4c2440c5 f5dbc0c5 fd7f4424   ..oL$@.......D$
 4021f0 20c5fd6f 442420c5 fd6f4c24 40c5f5db   ..oD$ ..oL$@...
 402200 c0c5fd7f 442420c5 fd6f4424 20c5fd6f  ....D$ ..oD$ ..o
 402210 4c2440c5 f5dbc0c5 fd7f4424 20c5fd6f  L$@.......D$ ..o
 402220 442420c5 fd6f4c24 40c5f5db c0c5fd7f  D$ ..oL$@.......
 402230 442420c5 fd6f4424 20c5fd6f 4c2440c5  D$ ..oD$ ..oL$@.
 402240 f5dbc0c5 fd7f4424 20c5fd6f 442420c5  ......D$ ..oD$ .
 402250 fd6f4c24 40c5f5db c0c5fd7f 442420c5  .oL$@.......D$ .
 402260 fd6f4424 20c5fd6f 4c2440c5 f5dbc0c5  .oD$ ..oL$@.....
 402270 fd7f4424 20c5fd6f 442420c5 fd6f4c24  ..D$ ..oD$ ..oL$
 402280 40c5f5db c0c5fd7f 442420c5 fd6f4424  @.......D$ ..oD$
 402290 20c5fd6f 4c2440c5 f5dbc0c5 fd7f4424   ..oL$@.......D$
 4022a0 20c5fd6f 442420c5 fd6f4c24 40c5f5db   ..oD$ ..oL$@...
 4022b0 c0c5fd7f 442420c5 fd6f4424 20c5fd6f  ....D$ ..oD$ ..o
 4022c0 4c2440c5 f5dbc0c5 fd7f4424 20c5fd6f  L$@.......D$ ..o
 4022d0 442420c5 fd6f4c24 40c5f5db c0c5fd7f  D$ ..oL$@.......
 4022e0 442420c5 fd6f4424 20c5fd6f 4c2440c5  D$ ..oD$ ..oL$@.
 4022f0 f5dbc0c5 fd7f4424 20c5fd6f 442420c5  ......D$ ..oD$ .
 402300 fd6f4c24 40c5f5db c0c5fd7f 442420c5  .oL$@.......D$ .
 402310 fd6f4424 20c5fd6f 4c2440c5 f5dbc0c5  .oD$ ..oL$@.....
 402320 fd7f4424 20c5fd6f 442420c5 fd6f4c24  ..D$ ..oD$ ..oL$
 402330 40c5f5db c0c5fd7f 442420c5 fd6f4424  @.......D$ ..oD$
 402340 20c5fd6f 4c2440c5 f5dbc0c5 fd7f4424   ..oL$@.......D$
 402350 20c5fd6f 442420c5 fd6f4c24 40c5f5db   ..oD$ ..oL$@...
 402360 c0c5fd7f 442420c5 fd6f4424 20c5fd6f  ....D$ ..oD$ ..o
 402370 4c2440c5 f5dbc0c5 fd7f4424 20c5fd6f  L$@.......D$ ..o
 402380 442420c5 fd6f4c24 40c5f5db c0c5fd7f  D$ ..oL$@.......
 402390 442420c5 fd6f4424 20c5fd6f 4c2440c5  D$ ..oD$ ..oL$@.
 4023a0 f5dbc0c5 fd7f4424 20c5fd6f 442420c5  ......D$ ..oD$ .
 4023b0 fd6f4c24 40c5f5db c0c5fd7f 442420c5  .oL$@.......D$ .
 4023c0 fd6f4424 20c5fd6f 4c2440c5 f5dbc0c5  .oD$ ..oL$@.....
 4023d0 fd7f4424 20c5fd6f 442420c5 fd6f4c24  ..D$ ..oD$ ..oL$
 4023e0 40c5f5db c0c5fd7f 442420c5 fd6f4424  @.......D$ ..oD$
 4023f0 20c5fd6f 4c2440c5 f5dbc0c5 fd7f4424   ..oL$@.......D$
 402400 20c5fd6f 442420c5 fd6f4c24 40c5f5db   ..oD$ ..oL$@...
 402410 c0c5fd7f 442420c5 fd6f4424 20c5fd6f  ....D$ ..oD$ ..o
 402420 4c2440c5 f5dbc0c5 fd7f4424 20c5fd6f  L$@.......D$ ..o
 402430 442420c5 fd6f4c24 40c5f5db c0c5fd7f  D$ ..oL$@.......
 402440 442420c5 fd6f4424 20c5fd6f 4c2440c5  D$ ..oD$ ..oL$@.
 402450 f5dbc0c5 fd7f4424 20c5fd6f 442420c5  ......D$ ..oD$ .
 402460 fd6f4c24 40c5f5db c0c5fd7f 442420c5  .oL$@.......D$ .
 402470 fd6f4424 20c5fd6f 4c2440c5 f5dbc0c5  .oD$ ..oL$@.....
 402480 fd7f4424 20c5fd6f 442420c5 fd6f4c24  ..D$ ..oD$ ..oL$
 402490 40c5f5db c0c5fd7f 442420c5 fd6f4424  @.......D$ ..oD$
 4024a0 20c5fd6f 4c2440c5 f5dbc0c5 fd7f4424   ..oL$@.......D$
 4024b0 20c5fd6f 442420c5 fd6f4c24 40c5f5db   ..oD$ ..oL$@...
 4024c0 c0c5fd7f 442420c5 fd6f4424 20c5fd6f  ....D$ ..oD$ ..o
 4024d0 4c2440c5 f5dbc0c5 fd7f4424 20c5fd6f  L$@.......D$ ..o
 4024e0 442420c5 fd6f4c24 40c5f5db c0c5fd7f  D$ ..oL$@.......
 4024f0 442420c5 fd6f4424 20c5fd6f 4c2440c5  D$ ..oD$ ..oL$@.
 402500 f5dbc0c5 fd7f4424 20c5fd6f 442420c5  ......D$ ..oD$ .
 402510 fd6f4c24 40c5f5db c0c5fd7f 442420c5  .oL$@.......D$ .
 402520 fd6f4424 20c5fd6f 4c2440c5 f5dbc0c5  .oD$ ..oL$@.....
 402530 fd7f4424 20c5fd6f 442420c5 fd6f4c24  ..D$ ..oD$ ..oL$
 402540 40c5f5db c0c5fd7f 442420c5 fd6f4424  @.......D$ ..oD$
 402550 20c5fd6f 4c2440c5 f5dbc0c5 fd7f4424   ..oL$@.......D$
 402560 20c5fd6f 442420c5 fd6f4c24 40c5f5db   ..oD$ ..oL$@...
 402570 c0c5fd7f 442420c5 fd6f4424 20c5fd6f  ....D$ ..oD$ ..o
 402580 4c2440c5 f5dbc0c5 fd7f4424 20c5fd6f  L$@.......D$ ..o
 402590 442420c5 fd6f4c24 40c5f5db c0c5fd7f  D$ ..oL$@.......
 4025a0 442420c5 fd6f4424 20c5fd6f 4c2440c5  D$ ..oD$ ..oL$@.
 4025b0 f5dbc0c5 fd7f4424 20c5fd6f 442420c5  ......D$ ..oD$ .
 4025c0 fd6f4c24 40c5f5db c0c5fd7f 442420c5  .oL$@.......D$ .
 4025d0 fd6f4424 20c5fd6f 4c2440c5 f5dbc0c5  .oD$ ..oL$@.....
 4025e0 fd7f4424 20c5fd6f 442420c5 fd6f4c24  ..D$ ..oD$ ..oL$
 4025f0 40c5f5db c0c5fd7f 442420c5 fd6f4424  @.......D$ ..oD$
 402600 20c5fd6f 4c2440c5 f5dbc0c5 fd7f4424   ..oL$@.......D$
 402610 20c5fd6f 442420c5 fd6f4c24 40c5f5db   ..oD$ ..oL$@...
 402620 c0c5fd7f 442420c5 fd6f4424 20c5fd6f  ....D$ ..oD$ ..o
 402630 4c2440c5 f5dbc0c5 fd7f4424 20c5fd6f  L$@.......D$ ..o
 402640 442420c5 fd6f4c24 40c5f5db c0c5fd7f  D$ ..oL$@.......
 402650 442420c5 fd6f4424 20c5fd6f 4c2440c5  D$ ..oD$ ..oL$@.
 402660 f5dbc0c5 fd7f4424 20c5fd6f 442420c5  ......D$ ..oD$ .
 402670 fd6f4c24 40c5f5db c0c5fd7f 442420c5  .oL$@.......D$ .
 402680 fd6f4424 20c5fd6f 4c2440c5 f5dbc0c5  .oD$ ..oL$@.....
 402690 fd7f4424 20c5fd6f 442420c5 fd6f4c24  ..D$ ..oD$ ..oL$
 4026a0 40c5f5db c0c5fd7f 442420c5 fd6f4424  @.......D$ ..oD$
 4026b0 20c5fd6f 4c2440c5 f5dbc0c5 fd7f4424   ..oL$@.......D$
 4026c0 20c5fd6f 442420c5 fd6f4c24 40c5f5db   ..oD$ ..oL$@...
 4026d0 c0c5fd7f 442420c5 fd6f4424 20c5fd6f  ....D$ ..oD$ ..o
 4026e0 4c2440c5 f5dbc0c5 fd7f4424 20c5fd6f  L$@.......D$ ..o
 4026f0 442420c5 fd6f4c24 40c5f5db c0c5fd7f  D$ ..oL$@.......
 402700 442420c5 fd6f4424 20c5fd6f 4c2440c5  D$ ..oD$ ..oL$@.
 402710 f5dbc0c5 fd7f4424 20c5fd6f 442420c5  ......D$ ..oD$ .
 402720 fd6f4c24 40c5f5db c0c5fd7f 442420c5  .oL$@.......D$ .
 402730 fd6f4424 20c5fd6f 4c2440c5 f5dbc0c5  .oD$ ..oL$@.....
 402740 fd7f4424 20c5fd6f 442420c5 fd6f4c24  ..D$ ..oD$ ..oL$
 402750 40c5f5db c0c5fd7f 442420c5 fd6f4424  @.......D$ ..oD$
 402760 20c5fd6f 4c2440c5 f5dbc0c5 fd7f4424   ..oL$@.......D$
 402770 20c5fd6f 442420c5 fd6f4c24 40c5f5db   ..oD$ ..oL$@...
 402780 c0c5fd7f 442420c5 fd6f4424 20c5fd6f  ....D$ ..oD$ ..o
 402790 4c2440c5 f5dbc0c5 fd7f4424 20c5fd6f  L$@.......D$ ..o
 4027a0 442420c5 fd6f4c24 40c5f5db c0c5fd7f  D$ ..oL$@.......
 4027b0 442420c5 fd6f4424 20c5fd6f 4c2440c5  D$ ..oD$ ..oL$@.
 4027c0 f5dbc0c5 fd7f4424 20c5fd6f 442420c5  ......D$ ..oD$ .
 4027d0 fd6f4c24 40c5f5db c0c5fd7f 442420c5  .oL$@.......D$ .
 4027e0 fd6f4424 20c5fd6f 4c2440c5 f5dbc0c5  .oD$ ..oL$@.....
 4027f0 fd7f4424 20c5fd6f 442420c5 fd6f4c24  ..D$ ..oD$ ..oL$
 402800 40c5f5db c0c5fd7f 442420c5 fd6f4424  @.......D$ ..oD$
 402810 20c5fd6f 4c2440c5 f5dbc0c5 fd7f4424   ..oL$@.......D$
 402820 20c5fd6f 442420c5 fd6f4c24 40c5f5db   ..oD$ ..oL$@...
 402830 c0c5fd7f 442420c5 fd6f4424 20c5fd6f  ....D$ ..oD$ ..o
 402840 4c2440c5 f5dbc0c5 fd7f4424 20c5fd6f  L$@.......D$ ..o
 402850 442420c5 fd6f4c24 40c5f5db c0c5fd7f  D$ ..oL$@.......
 402860 442420c5 fd6f4424 20c5fd6f 4c2440c5  D$ ..oD$ ..oL$@.
 402870 f5dbc0c5 fd7f4424 20c5fd6f 442420c5  ......D$ ..oD$ .
 402880 fd6f4c24 40c5f5db c0c5fd7f 442420c5  .oL$@.......D$ .
 402890 fd6f4424 20c5fd6f 4c2440c5 f5dbc0c5  .oD$ ..oL$@.....
 4028a0 fd7f4424 20c5fd6f 442420c5 fd6f4c24  ..D$ ..oD$ ..oL$
 4028b0 40c5f5db c0c5fd7f 442420c5 fd6f4424  @.......D$ ..oD$
 4028c0 20c5fd6f 4c2440c5 f5dbc0c5 fd7f4424   ..oL$@.......D$
 4028d0 20c5fd6f 442420c5 fd6f4c24 40c5f5db   ..oD$ ..oL$@...
 4028e0 c0c5fd7f 442420c5 fd6f4424 20c5fd6f  ....D$ ..oD$ ..o
 4028f0 4c2440c5 f5dbc0c5 fd7f4424 20c5fd6f  L$@.......D$ ..o
 402900 442420c5 fd6f4c24 40c5f5db c0c5fd7f  D$ ..oL$@.......
 402910 442420c5 fd6f4424 20c5fd6f 4c2440c5  D$ ..oD$ ..oL$@.
 402920 f5dbc0c5 fd7f4424 20c5fd6f 442420c5  ......D$ ..oD$ .
 402930 fd6f4c24 40c5f5db c0c5fd7f 442420c5  .oL$@.......D$ .
 402940 fd6f4424 20c5fd6f 4c2440c5 f5dbc0c5  .oD$ ..oL$@.....
 402950 fd7f4424 20c5fd6f 442420c5 fd6f4c24  ..D$ ..oD$ ..oL$
 402960 40c5f5db c0c5fd7f 442420c5 fd6f4424  @.......D$ ..oD$
 402970 20c5fd6f 4c2440c5 f5dbc0c5 fd7f4424   ..oL$@.......D$
 402980 20c5fd6f 442420c5 fd6f4c24 40c5f5db   ..oD$ ..oL$@...
 402990 c0c5fd7f 442420c5 fd6f4424 20c5fd6f  ....D$ ..oD$ ..o
 4029a0 4c2440c5 f5dbc0c5 fd7f4424 20c5fd6f  L$@.......D$ ..o
 4029b0 442420c5 fd6f4c24 40c5f5db c0c5fd7f  D$ ..oL$@.......
 4029c0 442420c5 fd6f4424 20c5fd6f 4c2440c5  D$ ..oD$ ..oL$@.
 4029d0 f5dbc0c5 fd7f4424 20c5fd6f 442420c5  ......D$ ..oD$ .
 4029e0 fd6f4c24 40c5f5db c0c5fd7f 442420c5  .oL$@.......D$ .
 4029f0 fd6f4424 20c5fd6f 4c2440c5 f5dbc0c5  .oD$ ..oL$@.....
 402a00 fd7f4424 20c5fd6f 442420c5 fd6f4c24  ..D$ ..oD$ ..oL$
 402a10 40c5f5db c0c5fd7f 442420c5 fd6f4424  @.......D$ ..oD$
 402a20 20c5fd6f 4c2440c5 f5dbc0c5 fd7f4424   ..oL$@.......D$
 402a30 20c5fd6f 442420c5 fd6f4c24 40c5f5db   ..oD$ ..oL$@...
 402a40 c0c5fd7f 442420c5 fd6f4424 20c5fd6f  ....D$ ..oD$ ..o
 402a50 4c2440c5 f5dbc0c5 fd7f4424 20c5fd6f  L$@.......D$ ..o
 402a60 442420c5 fd6f4c24 40c5f5db c0c5fd7f  D$ ..oL$@.......
 402a70 442420c5 fd6f4424 20c5fd6f 4c2440c5  D$ ..oD$ ..oL$@.
 402a80 f5dbc0c5 fd7f4424 20c5fd6f 442420c5  ......D$ ..oD$ .
 402a90 fd6f4c24 40c5f5db c0c5fd7f 442420c5  .oL$@.......D$ .
 402aa0 fd6f4424 20c5fd6f 4c2440c5 f5dbc0c5  .oD$ ..oL$@.....
 402ab0 fd7f4424 20c5fd6f 442420c5 fd6f4c24  ..D$ ..oD$ ..oL$
 402ac0 40c5f5db c0c5fd7f 442420c5 fd6f4424  @.......D$ ..oD$
 402ad0 20c5fd6f 4c2440c5 f5dbc0c5 fd7f4424   ..oL$@.......D$
 402ae0 20c5fd6f 442420c5 fd6f4c24 40c5f5db   ..oD$ ..oL$@...
 402af0 c0c5fd7f 442420c5 fd6f4424 20c5fd6f  ....D$ ..oD$ ..o
 402b00 4c2440c5 f5dbc0c5 fd7f4424 20c5fd6f  L$@.......D$ ..o
 402b10 442420c5 fd6f4c24 40c5f5db c0c5fd7f  D$ ..oL$@.......
 402b20 442420c5 fd6f4424 20c5fd6f 4c2440c5  D$ ..oD$ ..oL$@.
 402b30 f5dbc0c5 fd7f4424 20c5fd6f 442420c5  ......D$ ..oD$ .
 402b40 fd6f4c24 40c5f5db c0c5fd7f 442420c5  .oL$@.......D$ .
 402b50 fd6f4424 20c5fd6f 4c2440c5 f5dbc0c5  .oD$ ..oL$@.....
 402b60 fd7f4424 20c5fd6f 442420c5 fd6f4c24  ..D$ ..oD$ ..oL$
 402b70 40c5f5db c0c5fd7f 442420c5 fd6f4424  @.......D$ ..oD$
 402b80 20c5fd6f 4c2440c5 f5dbc0c5 fd7f4424   ..oL$@.......D$
 402b90 20c5fd6f 442420c5 fd6f4c24 40c5f5db   ..oD$ ..oL$@...
 402ba0 c0c5fd7f 442420c5 fd6f4424 20c5fd6f  ....D$ ..oD$ ..o
 402bb0 4c2440c5 f5dbc0c5 fd7f4424 20c5fd6f  L$@.......D$ ..o
 402bc0 442420c5 fd6f4c24 40c5f5db c0c5fd7f  D$ ..oL$@.......
 402bd0 442420c5 fd6f4424 20c5fd6f 4c2440c5  D$ ..oD$ ..oL$@.
 402be0 f5dbc0c5 fd7f4424 20c5fd6f 442420c5  ......D$ ..oD$ .
 402bf0 fd6f4c24 40c5f5db c0c5fd7f 442420c5  .oL$@.......D$ .
 402c00 fd6f4424 20c5fd6f 4c2440c5 f5dbc0c5  .oD$ ..oL$@.....
 402c10 fd7f4424 20c5fd6f 442420c5 fd6f4c24  ..D$ ..oD$ ..oL$
 402c20 40c5f5db c0c5fd7f 442420c5 fd6f4424  @.......D$ ..oD$
 402c30 20c5fd6f 4c2440c5 f5dbc0c5 fd7f4424   ..oL$@.......D$
 402c40 20c5fd6f 442420c5 fd6f4c24 40c5f5db   ..oD$ ..oL$@...
 402c50 c0c5fd7f 442420c5 fd6f4424 20c5fd6f  ....D$ ..oD$ ..o
 402c60 4c2440c5 f5dbc0c5 fd7f4424 20c5fd6f  L$@.......D$ ..o
 402c70 442420c5 fd6f4c24 40c5f5db c0c5fd7f  D$ ..oL$@.......
 402c80 442420c5 fd6f4424 20c5fd6f 4c2440c5  D$ ..oD$ ..oL$@.
 402c90 f5dbc0c5 fd7f4424 20c5fd6f 442420c5  ......D$ ..oD$ .
 402ca0 fd6f4c24 40c5f5db c0c5fd7f 442420c5  .oL$@.......D$ .
 402cb0 fd6f4424 20c5fd6f 4c2440c5 f5dbc0c5  .oD$ ..oL$@.....
 402cc0 fd7f4424 20c5fd6f 442420c5 fd6f4c24  ..D$ ..oD$ ..oL$
 402cd0 40c5f5db c0c5fd7f 442420c5 fd6f4424  @.......D$ ..oD$
 402ce0 20c5fd6f 4c2440c5 f5dbc0c5 fd7f4424   ..oL$@.......D$
 402cf0 20c5fd6f 442420c5 fd6f4c24 40c5f5db   ..oD$ ..oL$@...
 402d00 c0c5fd7f 442420c5 fd6f4424 20c5fd6f  ....D$ ..oD$ ..o
 402d10 4c2440c5 f5dbc0c5 fd7f4424 20c5fd6f  L$@.......D$ ..o
 402d20 442420c5 fd6f4c24 40c5f5db c0c5fd7f  D$ ..oL$@.......
 402d30 442420c5 fd6f4424 20c5fd6f 4c2440c5  D$ ..oD$ ..oL$@.
 402d40 f5dbc0c5 fd7f4424 20c5fd6f 442420c5  ......D$ ..oD$ .
 402d50 fd6f4c24 40c5f5db c0c5fd7f 442420c5  .oL$@.......D$ .
 402d60 fd6f4424 20c5fd6f 4c2440c5 f5dbc0c5  .oD$ ..oL$@.....
 402d70 fd7f4424 20c5fd6f 442420c5 fd6f4c24  ..D$ ..oD$ ..oL$
 402d80 40c5f5db c0c5fd7f 442420c5 fd6f4424  @.......D$ ..oD$
 402d90 20c5fd6f 4c2440c5 f5dbc0c5 fd7f4424   ..oL$@.......D$
 402da0 20c5fd6f 442420c5 fd6f4c24 40c5f5db   ..oD$ ..oL$@...
 402db0 c0c5fd7f 442420c5 fd6f4424 20c5fd6f  ....D$ ..oD$ ..o
 402dc0 4c2440c5 f5dbc0c5 fd7f4424 20c5fd6f  L$@.......D$ ..o
 402dd0 442420c5 fd6f4c24 40c5f5db c0c5fd7f  D$ ..oL$@.......
 402de0 442420c5 fd6f4424 20c5fd6f 4c2440c5  D$ ..oD$ ..oL$@.
 402df0 f5dbc0c5 fd7f4424 20c5fd6f 442420c5  ......D$ ..oD$ .
 402e00 fd6f4c24 40c5f5db c0c5fd7f 442420c5  .oL$@.......D$ .
 402e10 fd6f4424 20c5fd6f 4c2440c5 f5dbc0c5  .oD$ ..oL$@.....
 402e20 fd7f4424 20c5fd6f 442420c5 fd6f4c24  ..D$ ..oD$ ..oL$
 402e30 40c5f5db c0c5fd7f 442420c5 fd6f4424  @.......D$ ..oD$
 402e40 20c5fd6f 4c2440c5 f5dbc0c5 fd7f4424   ..oL$@.......D$
 402e50 20c5fd6f 442420c5 fd6f4c24 40c5f5db   ..oD$ ..oL$@...
 402e60 c0c5fd7f 442420c5 fd6f4424 20c5fd6f  ....D$ ..oD$ ..o
 402e70 4c2440c5 f5dbc0c5 fd7f4424 20c5fd6f  L$@.......D$ ..o
 402e80 442420c5 fd6f4c24 40c5f5db c0c5fd7f  D$ ..oL$@.......
 402e90 442420c5 fd6f4424 20c5fd6f 4c2440c5  D$ ..oD$ ..oL$@.
 402ea0 f5dbc0c5 fd7f4424 20c5fd6f 442420c5  ......D$ ..oD$ .
 402eb0 fd6f4c24 40c5f5db c0c5fd7f 442420c5  .oL$@.......D$ .
 402ec0 fd6f4424 20c5fd6f 4c2440c5 f5dbc0c5  .oD$ ..oL$@.....
 402ed0 fd7f4424 20c5fd6f 442420c5 fd6f4c24  ..D$ ..oD$ ..oL$
 402ee0 40c5f5db c0c5fd7f 442420c5 fd6f4424  @.......D$ ..oD$
 402ef0 20c5fd6f 4c2440c5 f5dbc0c5 fd7f4424   ..oL$@.......D$
 402f00 20c5fd6f 442420c5 fd6f4c24 40c5f5db   ..oD$ ..oL$@...
 402f10 c0c5fd7f 442420c5 fd6f4424 20c5fd6f  ....D$ ..oD$ ..o
 402f20 4c2440c5 f5dbc0c5 fd7f4424 20c5fd6f  L$@.......D$ ..o
 402f30 442420c5 fd6f4c24 40c5f5db c0c5fd7f  D$ ..oL$@.......
 402f40 442420c5 fd6f4424 20c5fd6f 4c2440c5  D$ ..oD$ ..oL$@.
 402f50 f5dbc0c5 fd7f4424 20c5fd6f 442420c5  ......D$ ..oD$ .
 402f60 fd6f4c24 40c5f5db c0c5fd7f 442420c5  .oL$@.......D$ .
 402f70 fd6f4424 20c5fd6f 4c2440c5 f5dbc0c5  .oD$ ..oL$@.....
 402f80 fd7f4424 20c5fd6f 442420c5 fd6f4c24  ..D$ ..oD$ ..oL$
 402f90 40c5f5db c0c5fd7f 442420c5 fd6f4424  @.......D$ ..oD$
 402fa0 20c5fd6f 4c2440c5 f5dbc0c5 fd7f4424   ..oL$@.......D$
 402fb0 20c5fd6f 442420c5 fd6f4c24 40c5f5db   ..oD$ ..oL$@...
 402fc0 c0c5fd7f 442420c5 fd6f4424 20c5fd6f  ....D$ ..oD$ ..o
 402fd0 4c2440c5 f5dbc0c5 fd7f4424 20c5fd6f  L$@.......D$ ..o
 402fe0 442420c5 fd6f4c24 40c5f5db c0c5fd7f  D$ ..oL$@.......
 402ff0 442420c5 fd6f4424 20c5fd6f 4c2440c5  D$ ..oD$ ..oL$@.
 403000 f5dbc0c5 fd7f4424 20c5fd6f 442420c5  ......D$ ..oD$ .
 403010 fd6f4c24 40c5f5db c0c5fd7f 442420c5  .oL$@.......D$ .
 403020 fd6f4424 20c5fd6f 4c2440c5 f5dbc0c5  .oD$ ..oL$@.....
 403030 fd7f4424 20c5fd6f 442420c5 fd6f4c24  ..D$ ..oD$ ..oL$
 403040 40c5f5db c0c5fd7f 442420c5 fd6f4424  @.......D$ ..oD$
 403050 20c5fd6f 4c2440c5 f5dbc0c5 fd7f4424   ..oL$@.......D$
 403060 20c5fd6f 442420c5 fd6f4c24 40c5f5db   ..oD$ ..oL$@...
 403070 c0c5fd7f 442420c5 fd6f4424 20c5fd6f  ....D$ ..oD$ ..o
 403080 4c2440c5 f5dbc0c5 fd7f4424 20c5fd6f  L$@.......D$ ..o
 403090 442420c5 fd6f4c24 40c5f5db c0c5fd7f  D$ ..oL$@.......
 4030a0 442420c5 fd6f4424 20c5fd6f 4c2440c5  D$ ..oD$ ..oL$@.
 4030b0 f5dbc0c5 fd7f4424 20c5fd6f 442420c5  ......D$ ..oD$ .
 4030c0 fd6f4c24 40c5f5db c0c5fd7f 442420c5  .oL$@.......D$ .
 4030d0 fd6f4424 20c5fd6f 4c2440c5 f5dbc0c5  .oD$ ..oL$@.....
 4030e0 fd7f4424 20c5fd6f 442420c5 fd6f4c24  ..D$ ..oD$ ..oL$
 4030f0 40c5f5db c0c5fd7f 442420c5 fd6f4424  @.......D$ ..oD$
 403100 20c5fd6f 4c2440c5 f5dbc0c5 fd7f4424   ..oL$@.......D$
 403110 20c5fd6f 442420c5 fd6f4c24 40c5f5db   ..oD$ ..oL$@...
 403120 c0c5fd7f 442420c5 fd6f4424 20c5fd6f  ....D$ ..oD$ ..o
 403130 4c2440c5 f5dbc0c5 fd7f4424 20c5fd6f  L$@.......D$ ..o
 403140 442420c5 fd6f4c24 40c5f5db c0c5fd7f  D$ ..oL$@.......
 403150 442420c5 fd6f4424 20c5fd6f 4c2440c5  D$ ..oD$ ..oL$@.
 403160 f5dbc0c5 fd7f4424 20c5fd6f 442420c5  ......D$ ..oD$ .
 403170 fd6f4c24 40c5f5db c0c5fd7f 442420c5  .oL$@.......D$ .
 403180 fd6f4424 20c5fd6f 4c2440c5 f5dbc0c5  .oD$ ..oL$@.....
 403190 fd7f4424 20c5fd6f 442420c5 fd6f4c24  ..D$ ..oD$ ..oL$
 4031a0 40c5f5db c0c5fd7f 442420c5 fd6f4424  @.......D$ ..oD$
 4031b0 20c5fd6f 4c2440c5 f5dbc0c5 fd7f4424   ..oL$@.......D$
 4031c0 20c5fd6f 442420c5 fd6f4c24 40c5f5db   ..oD$ ..oL$@...
 4031d0 c0c5fd7f 442420c5 fd6f4424 20c5fd6f  ....D$ ..oD$ ..o
 4031e0 4c2440c5 f5dbc0c5 fd7f4424 20c5fd6f  L$@.......D$ ..o
 4031f0 442420c5 fd6f4c24 40c5f5db c0c5fd7f  D$ ..oL$@.......
 403200 442420c5 fd6f4424 20c5fd6f 4c2440c5  D$ ..oD$ ..oL$@.
 403210 f5dbc0c5 fd7f4424 20c5fd6f 442420c5  ......D$ ..oD$ .
 403220 fd6f4c24 40c5f5db c0c5fd7f 442420c5  .oL$@.......D$ .
 403230 fd6f4424 20c5fd6f 4c2440c5 f5dbc0c5  .oD$ ..oL$@.....
 403240 fd7f4424 20c5fd6f 442420c5 fd6f4c24  ..D$ ..oD$ ..oL$
 403250 40c5f5db c0c5fd7f 442420c5 fd6f4424  @.......D$ ..oD$
 403260 20c5fd6f 4c2440c5 f5dbc0c5 fd7f4424   ..oL$@.......D$
 403270 20c5fd6f 442420c5 fd6f4c24 40c5f5db   ..oD$ ..oL$@...
 403280 c0c5fd7f 442420c5 fd6f4424 20c5fd6f  ....D$ ..oD$ ..o
 403290 4c2440c5 f5dbc0c5 fd7f4424 20c5fd6f  L$@.......D$ ..o
 4032a0 442420c5 fd6f4c24 40c5f5db c0c5fd7f  D$ ..oL$@.......
 4032b0 442420c5 fd6f4424 20c5fd6f 4c2440c5  D$ ..oD$ ..oL$@.
 4032c0 f5dbc0c5 fd7f4424 20c5fd6f 442420c5  ......D$ ..oD$ .
 4032d0 fd6f4c24 40c5f5db c0c5fd7f 442420c5  .oL$@.......D$ .
 4032e0 fd6f4424 20c5fd6f 4c2440c5 f5dbc0c5  .oD$ ..oL$@.....
 4032f0 fd7f4424 20c5fd6f 442420c5 fd6f4c24  ..D$ ..oD$ ..oL$
 403300 40c5f5db c0c5fd7f 442420c5 fd6f4424  @.......D$ ..oD$
 403310 20c5fd6f 4c2440c5 f5dbc0c5 fd7f4424   ..oL$@.......D$
 403320 20c5fd6f 442420c5 fd6f4c24 40c5f5db   ..oD$ ..oL$@...
 403330 c0c5fd7f 442420c5 fd6f4424 20c5fd6f  ....D$ ..oD$ ..o
 403340 4c2440c5 f5dbc0c5 fd7f4424 20c5fd6f  L$@.......D$ ..o
 403350 442420c5 fd6f4c24 40c5f5db c0c5fd7f  D$ ..oL$@.......
 403360 442420c5 fd6f4424 20c5fd6f 4c2440c5  D$ ..oD$ ..oL$@.
 403370 f5dbc0c5 fd7f4424 20c5fd6f 442420c5  ......D$ ..oD$ .
 403380 fd6f4c24 40c5f5db c0c5fd7f 442420c5  .oL$@.......D$ .
 403390 fd6f4424 20c5fd6f 4c2440c5 f5dbc0c5  .oD$ ..oL$@.....
 4033a0 fd7f4424 20c5fd6f 442420c5 fd6f4c24  ..D$ ..oD$ ..oL$
 4033b0 40c5f5db c0c5fd7f 442420c5 fd6f4424  @.......D$ ..oD$
 4033c0 20c5fd6f 4c2440c5 f5dbc0c5 fd7f4424   ..oL$@.......D$
 4033d0 20c5fd6f 442420c5 fd6f4c24 40c5f5db   ..oD$ ..oL$@...
 4033e0 c0c5fd7f 442420c5 fd6f4424 20c5fd6f  ....D$ ..oD$ ..o
 4033f0 4c2440c5 f5dbc0c5 fd7f4424 20c5fd6f  L$@.......D$ ..o
 403400 442420c5 fd6f4c24 40c5f5db c0c5fd7f  D$ ..oL$@.......
 403410 442420c5 fd6f4424 20c5fd6f 4c2440c5  D$ ..oD$ ..oL$@.
 403420 f5dbc0c5 fd7f4424 20c5fd6f 442420c5  ......D$ ..oD$ .
 403430 fd6f4c24 40c5f5db c0c5fd7f 442420c5  .oL$@.......D$ .
 403440 fd6f4424 20c5fd6f 4c2440c5 f5dbc0c5  .oD$ ..oL$@.....
 403450 fd7f4424 20c5fd6f 442420c5 fd6f4c24  ..D$ ..oD$ ..oL$
 403460 40c5f5db c0c5fd7f 442420c5 fd6f4424  @.......D$ ..oD$
 403470 20c5fd6f 4c2440c5 f5dbc0c5 fd7f4424   ..oL$@.......D$
 403480 20c5fd6f 442420c5 fd6f4c24 40c5f5db   ..oD$ ..oL$@...
 403490 c0c5fd7f 442420c5 fd6f4424 20c5fd6f  ....D$ ..oD$ ..o
 4034a0 4c2440c5 f5dbc0c5 fd7f4424 20c5fd6f  L$@.......D$ ..o
 4034b0 442420c5 fd6f4c24 40c5f5db c0c5fd7f  D$ ..oL$@.......
 4034c0 442420c5 fd6f4424 20c5fd6f 4c2440c5  D$ ..oD$ ..oL$@.
 4034d0 f5dbc0c5 fd7f4424 20c5fd6f 442420c5  ......D$ ..oD$ .
 4034e0 fd6f4c24 40c5f5db c0c5fd7f 442420c5  .oL$@.......D$ .
 4034f0 fd6f4424 20c5fd6f 4c2440c5 f5dbc0c5  .oD$ ..oL$@.....
 403500 fd7f4424 20c5fd6f 442420c5 fd6f4c24  ..D$ ..oD$ ..oL$
 403510 40c5f5db c0c5fd7f 442420c5 fd6f4424  @.......D$ ..oD$
 403520 20c5fd6f 4c2440c5 f5dbc0c5 fd7f4424   ..oL$@.......D$
 403530 20c5fd6f 442420c5 fd6f4c24 40c5f5db   ..oD$ ..oL$@...
 403540 c0c5fd7f 442420c5 fd6f4424 20c5fd6f  ....D$ ..oD$ ..o
 403550 4c2440c5 f5dbc0c5 fd7f4424 20c5fd6f  L$@.......D$ ..o
 403560 442420c5 fd6f4c24 40c5f5db c0c5fd7f  D$ ..oL$@.......
 403570 442420c5 fd6f4424 20c5fd6f 4c2440c5  D$ ..oD$ ..oL$@.
 403580 f5dbc0c5 fd7f4424 20c5fd6f 442420c5  ......D$ ..oD$ .
 403590 fd6f4c24 40c5f5db c0c5fd7f 442420c5  .oL$@.......D$ .
 4035a0 fd6f4424 20c5fd6f 4c2440c5 f5dbc0c5  .oD$ ..oL$@.....
 4035b0 fd7f4424 20c5fd6f 442420c5 fd6f4c24  ..D$ ..oD$ ..oL$
 4035c0 40c5f5db c0c5fd7f 442420c5 fd6f4424  @.......D$ ..oD$
 4035d0 20c5fd6f 4c2440c5 f5dbc0c5 fd7f4424   ..oL$@.......D$
 4035e0 20c5fd6f 442420c5 fd6f4c24 40c5f5db   ..oD$ ..oL$@...
 4035f0 c0c5fd7f 442420c5 fd6f4424 20c5fd6f  ....D$ ..oD$ ..o
 403600 4c2440c5 f5dbc0c5 fd7f4424 20c5fd6f  L$@.......D$ ..o
 403610 442420c5 fd6f4c24 40c5f5db c0c5fd7f  D$ ..oL$@.......
 403620 442420c5 fd6f4424 20c5fd6f 4c2440c5  D$ ..oD$ ..oL$@.
 403630 f5dbc0c5 fd7f4424 20c5fd6f 442420c5  ......D$ ..oD$ .
 403640 fd6f4c24 40c5f5db c0c5fd7f 442420c5  .oL$@.......D$ .
 403650 fd6f4424 20c5fd6f 4c2440c5 f5dbc0c5  .oD$ ..oL$@.....
 403660 fd7f4424 20c5fd6f 442420c5 fd6f4c24  ..D$ ..oD$ ..oL$
 403670 40c5f5db c0c5fd7f 442420c5 fd6f4424  @.......D$ ..oD$
 403680 20c5fd6f 4c2440c5 f5dbc0c5 fd7f4424   ..oL$@.......D$
 403690 20c5fd6f 442420c5 fd6f4c24 40c5f5db   ..oD$ ..oL$@...
 4036a0 c0c5fd7f 442420c5 fd6f4424 20c5fd6f  ....D$ ..oD$ ..o
 4036b0 4c2440c5 f5dbc0c5 fd7f4424 20c5fd6f  L$@.......D$ ..o
 4036c0 442420c5 fd6f4c24 40c5f5db c0c5fd7f  D$ ..oL$@.......
 4036d0 442420c5 fd6f4424 20c5fd6f 4c2440c5  D$ ..oD$ ..oL$@.
 4036e0 f5dbc0c5 fd7f4424 20c5fd6f 442420c5  ......D$ ..oD$ .
 4036f0 fd6f4c24 40c5f5db c0c5fd7f 442420c5  .oL$@.......D$ .
 403700 fd6f4424 20c5fd6f 4c2440c5 f5dbc0c5  .oD$ ..oL$@.....
 403710 fd7f4424 20c5fd6f 442420c5 fd6f4c24  ..D$ ..oD$ ..oL$
 403720 40c5f5db c0c5fd7f 442420c5 fd6f4424  @.......D$ ..oD$
 403730 20c5fd6f 4c2440c5 f5dbc0c5 fd7f4424   ..oL$@.......D$
 403740 20c5fd6f 442420c5 fd6f4c24 40c5f5db   ..oD$ ..oL$@...
 403750 c0c5fd7f 442420c5 fd6f4424 20c5fd6f  ....D$ ..oD$ ..o
 403760 4c2440c5 f5dbc0c5 fd7f4424 20c5fd6f  L$@.......D$ ..o
 403770 442420c5 fd6f4c24 40c5f5db c0c5fd7f  D$ ..oL$@.......
 403780 442420c5 fd6f4424 20c5fd6f 4c2440c5  D$ ..oD$ ..oL$@.
 403790 f5dbc0c5 fd7f4424 20c5fd6f 442420c5  ......D$ ..oD$ .
 4037a0 fd6f4c24 40c5f5db c0c5fd7f 442420c5  .oL$@.......D$ .
 4037b0 fd6f4424 20c5fd6f 4c2440c5 f5dbc0c5  .oD$ ..oL$@.....
 4037c0 fd7f4424 20c5fd6f 442420c5 fd6f4c24  ..D$ ..oD$ ..oL$
 4037d0 40c5f5db c0c5fd7f 442420c5 fd6f4424  @.......D$ ..oD$
 4037e0 20c5fd6f 4c2440c5 f5dbc0c5 fd7f4424   ..oL$@.......D$
 4037f0 20c5fd6f 442420c5 fd6f4c24 40c5f5db   ..oD$ ..oL$@...
 403800 c0c5fd7f 442420c5 fd6f4424 20c5fd6f  ....D$ ..oD$ ..o
 403810 4c2440c5 f5dbc0c5 fd7f4424 20c5fd6f  L$@.......D$ ..o
 403820 442420c5 fd6f4c24 40c5f5db c0c5fd7f  D$ ..oL$@.......
 403830 442420c5 fd6f4424 20c5fd6f 4c2440c5  D$ ..oD$ ..oL$@.
 403840 f5dbc0c5 fd7f4424 20c5fd6f 442420c5  ......D$ ..oD$ .
 403850 fd6f4c24 40c5f5db c0c5fd7f 442420c5  .oL$@.......D$ .
 403860 fd6f4424 20c5fd6f 4c2440c5 f5dbc0c5  .oD$ ..oL$@.....
 403870 fd7f4424 20c5fd6f 442420c5 fd6f4c24  ..D$ ..oD$ ..oL$
 403880 40c5f5db c0c5fd7f 442420c5 fd6f4424  @.......D$ ..oD$
 403890 20c5fd6f 4c2440c5 f5dbc0c5 fd7f4424   ..oL$@.......D$
 4038a0 20c5fd6f 442420c5 fd6f4c24 40c5f5db   ..oD$ ..oL$@...
 4038b0 c0c5fd7f 442420c5 fd6f4424 20c5fd6f  ....D$ ..oD$ ..o
 4038c0 4c2440c5 f5dbc0c5 fd7f4424 20c5fd6f  L$@.......D$ ..o
 4038d0 442420c5 fd6f4c24 40c5f5db c0c5fd7f  D$ ..oL$@.......
 4038e0 442420c5 fd6f4424 20c5fd6f 4c2440c5  D$ ..oD$ ..oL$@.
 4038f0 f5dbc0c5 fd7f4424 20c5fd6f 442420c5  ......D$ ..oD$ .
 403900 fd6f4c24 40c5f5db c0c5fd7f 442420c5  .oL$@.......D$ .
 403910 fd6f4424 20c5fd6f 4c2440c5 f5dbc0c5  .oD$ ..oL$@.....
 403920 fd7f4424 20c5fd6f 442420c5 fd6f4c24  ..D$ ..oD$ ..oL$
 403930 40c5f5db c0c5fd7f 442420c5 fd6f4424  @.......D$ ..oD$
 403940 20c5fd6f 4c2440c5 f5dbc0c5 fd7f4424   ..oL$@.......D$
 403950 20c5fd6f 442420c5 fd6f4c24 40c5f5db   ..oD$ ..oL$@...
 403960 c0c5fd7f 442420c5 fd6f4424 20c5fd6f  ....D$ ..oD$ ..o
 403970 4c2440c5 f5dbc0c5 fd7f4424 20c5fd6f  L$@.......D$ ..o
 403980 442420c5 fd6f4c24 40c5f5db c0c5fd7f  D$ ..oL$@.......
 403990 442420c5 fd6f4424 20c5fd6f 4c2440c5  D$ ..oD$ ..oL$@.
 4039a0 f5dbc0c5 fd7f4424 20c5fd6f 442420c5  ......D$ ..oD$ .
 4039b0 fd6f4c24 40c5f5db c0c5fd7f 442420c5  .oL$@.......D$ .
 4039c0 fd6f4424 20c5fd6f 4c2440c5 f5dbc0c5  .oD$ ..oL$@.....
 4039d0 fd7f4424 20c5fd6f 442420c5 fd6f4c24  ..D$ ..oD$ ..oL$
 4039e0 40c5f5db c0c5fd7f 442420c5 fd6f4424  @.......D$ ..oD$
 4039f0 20c5fd6f 4c2440c5 f5dbc0c5 fd7f4424   ..oL$@.......D$
 403a00 20c5fd6f 442420c5 fd6f4c24 40c5f5db   ..oD$ ..oL$@...
 403a10 c0c5fd7f 442420c5 fd6f4424 20c5fd6f  ....D$ ..oD$ ..o
 403a20 4c2440c5 f5dbc0c5 fd7f4424 20c5fd6f  L$@.......D$ ..o
 403a30 442420c5 fd6f4c24 40c5f5db c0c5fd7f  D$ ..oL$@.......
 403a40 442420c5 fd6f4424 20c5fd6f 4c2440c5  D$ ..oD$ ..oL$@.
 403a50 f5dbc0c5 fd7f4424 20c5fd6f 442420c5  ......D$ ..oD$ .
 403a60 fd6f4c24 40c5f5db c0c5fd7f 442420c5  .oL$@.......D$ .
 403a70 fd6f4424 20c5fd6f 4c2440c5 f5dbc0c5  .oD$ ..oL$@.....
 403a80 fd7f4424 20c5fd6f 442420c5 fd6f4c24  ..D$ ..oD$ ..oL$
 403a90 40c5f5db c0c5fd7f 442420c5 fd6f4424  @.......D$ ..oD$
 403aa0 20c5fd6f 4c2440c5 f5dbc0c5 fd7f4424   ..oL$@.......D$
 403ab0 20c5fd6f 442420c5 fd6f4c24 40c5f5db   ..oD$ ..oL$@...
 403ac0 c0c5fd7f 442420c5 fd6f4424 20c5fd6f  ....D$ ..oD$ ..o
 403ad0 4c2440c5 f5dbc0c5 fd7f4424 20c5fd6f  L$@.......D$ ..o
 403ae0 442420c5 fd6f4c24 40c5f5db c0c5fd7f  D$ ..oL$@.......
 403af0 442420c5 fd6f4424 20c5fd6f 4c2440c5  D$ ..oD$ ..oL$@.
 403b00 f5dbc0c5 fd7f4424 20c5fd6f 442420c5  ......D$ ..oD$ .
 403b10 fd6f4c24 40c5f5db c0c5fd7f 442420c5  .oL$@.......D$ .
 403b20 fd6f4424 20c5fd6f 4c2440c5 f5dbc0c5  .oD$ ..oL$@.....
 403b30 fd7f4424 20c5fd6f 442420c5 fd6f4c24  ..D$ ..oD$ ..oL$
 403b40 40c5f5db c0c5fd7f 442420c5 fd6f4424  @.......D$ ..oD$
 403b50 20c5fd6f 4c2440c5 f5dbc0c5 fd7f4424   ..oL$@.......D$
 403b60 20c5fd6f 442420c5 fd6f4c24 40c5f5db   ..oD$ ..oL$@...
 403b70 c0c5fd7f 442420c5 fd6f4424 20c5fd6f  ....D$ ..oD$ ..o
 403b80 4c2440c5 f5dbc0c5 fd7f4424 20c5fd6f  L$@.......D$ ..o
 403b90 442420c5 fd6f4c24 40c5f5db c0c5fd7f  D$ ..oL$@.......
 403ba0 442420c5 fd6f4424 20c5fd6f 4c2440c5  D$ ..oD$ ..oL$@.
 403bb0 f5dbc0c5 fd7f4424 20c5fd6f 442420c5  ......D$ ..oD$ .
 403bc0 fd6f4c24 40c5f5db c0c5fd7f 442420c5  .oL$@.......D$ .
 403bd0 fd6f4424 20c5fd6f 4c2440c5 f5dbc0c5  .oD$ ..oL$@.....
 403be0 fd7f4424 20c5fd6f 442420c5 fd6f4c24  ..D$ ..oD$ ..oL$
 403bf0 40c5f5db c0c5fd7f 442420c5 fd6f4424  @.......D$ ..oD$
 403c00 20c5fd6f 4c2440c5 f5dbc0c5 fd7f4424   ..oL$@.......D$
 403c10 20c5fd6f 442420c5 fd6f4c24 40c5f5db   ..oD$ ..oL$@...
 403c20 c0c5fd7f 442420c5 fd6f4424 20c5fd6f  ....D$ ..oD$ ..o
 403c30 4c2440c5 f5dbc0c5 fd7f4424 20c5fd6f  L$@.......D$ ..o
 403c40 442420c5 fd6f4c24 40c5f5db c0c5fd7f  D$ ..oL$@.......
 403c50 442420c5 fd6f4424 20c5fd6f 4c2440c5  D$ ..oD$ ..oL$@.
 403c60 f5dbc0c5 fd7f4424 20c5fd6f 442420c5  ......D$ ..oD$ .
 403c70 fd6f4c24 40c5f5db c0c5fd7f 442420c5  .oL$@.......D$ .
 403c80 fd6f4424 20c5fd6f 4c2440c5 f5dbc0c5  .oD$ ..oL$@.....
 403c90 fd7f4424 20c5fd6f 442420c5 fd6f4c24  ..D$ ..oD$ ..oL$
 403ca0 40c5f5db c0c5fd7f 442420c5 fd6f4424  @.......D$ ..oD$
 403cb0 20c5fd6f 4c2440c5 f5dbc0c5 fd7f4424   ..oL$@.......D$
 403cc0 20c5fd6f 442420c5 fd6f4c24 40c5f5db   ..oD$ ..oL$@...
 403cd0 c0c5fd7f 442420c5 fd6f4424 20c5fd6f  ....D$ ..oD$ ..o
 403ce0 4c2440c5 f5dbc0c5 fd7f4424 20c5fd6f  L$@.......D$ ..o
 403cf0 442420c5 fd6f4c24 40c5f5db c0c5fd7f  D$ ..oL$@.......
 403d00 442420c5 fd6f4424 20c5fd6f 4c2440c5  D$ ..oD$ ..oL$@.
 403d10 f5dbc0c5 fd7f4424 20c5fd6f 442420c5  ......D$ ..oD$ .
 403d20 fd6f4c24 40c5f5db c0c5fd7f 442420c5  .oL$@.......D$ .
 403d30 fd6f4424 20c5fd6f 4c2440c5 f5dbc0c5  .oD$ ..oL$@.....
 403d40 fd7f4424 20c5fd6f 442420c5 fd6f4c24  ..D$ ..oD$ ..oL$
 403d50 40c5f5db c0c5fd7f 442420c5 fd6f4424  @.......D$ ..oD$
 403d60 20c5fd6f 4c2440c5 f5dbc0c5 fd7f4424   ..oL$@.......D$
 403d70 20c5fd6f 442420c5 fd6f4c24 40c5f5db   ..oD$ ..oL$@...
 403d80 c0c5fd7f 442420c5 fd6f4424 20c5fd6f  ....D$ ..oD$ ..o
 403d90 4c2440c5 f5dbc0c5 fd7f4424 20c5fd6f  L$@.......D$ ..o
 403da0 442420c5 fd6f4c24 40c5f5db c0c5fd7f  D$ ..oL$@.......
 403db0 442420c5 fd6f4424 20c5fd6f 4c2440c5  D$ ..oD$ ..oL$@.
 403dc0 f5dbc0c5 fd7f4424 20c5fd6f 442420c5  ......D$ ..oD$ .
 403dd0 fd6f4c24 40c5f5db c0c5fd7f 442420c5  .oL$@.......D$ .
 403de0 fd6f4424 20c5fd6f 4c2440c5 f5dbc0c5  .oD$ ..oL$@.....
 403df0 fd7f4424 20c5fd6f 442420c5 fd6f4c24  ..D$ ..oD$ ..oL$
 403e00 40c5f5db c0c5fd7f 442420c5 fd6f4424  @.......D$ ..oD$
 403e10 20c5fd6f 4c2440c5 f5dbc0c5 fd7f4424   ..oL$@.......D$
 403e20 20c5fd6f 442420c5 fd6f4c24 40c5f5db   ..oD$ ..oL$@...
 403e30 c0c5fd7f 442420c5 fd6f4424 20c5fd6f  ....D$ ..oD$ ..o
 403e40 4c2440c5 f5dbc0c5 fd7f4424 20c5fd6f  L$@.......D$ ..o
 403e50 442420c5 fd6f4c24 40c5f5db c0c5fd7f  D$ ..oL$@.......
 403e60 442420c5 fd6f4424 20c5fd6f 4c2440c5  D$ ..oD$ ..oL$@.
 403e70 f5dbc0c5 fd7f4424 20c5fd6f 442420c5  ......D$ ..oD$ .
 403e80 fd6f4c24 40c5f5db c0c5fd7f 442420c5  .oL$@.......D$ .
 403e90 fd6f4424 20c5fd6f 4c2440c5 f5dbc0c5  .oD$ ..oL$@.....
 403ea0 fd7f4424 20c5fd6f 442420c5 fd6f4c24  ..D$ ..oD$ ..oL$
 403eb0 40c5f5db c0c5fd7f 442420c5 fd6f4424  @.......D$ ..oD$
 403ec0 20c5fd6f 4c2440c5 f5dbc0c5 fd7f4424   ..oL$@.......D$
 403ed0 20c5fd6f 442420c5 fd6f4c24 40c5f5db   ..oD$ ..oL$@...
 403ee0 c0c5fd7f 442420c5 fd6f4424 20c5fd6f  ....D$ ..oD$ ..o
 403ef0 4c2440c5 f5dbc0c5 fd7f4424 20c5fd6f  L$@.......D$ ..o
 403f00 442420c5 fd6f4c24 40c5f5db c0c5fd7f  D$ ..oL$@.......
 403f10 442420c5 fd6f4424 20c5fd6f 4c2440c5  D$ ..oD$ ..oL$@.
 403f20 f5dbc0c5 fd7f4424 20c5fd6f 442420c5  ......D$ ..oD$ .
 403f30 fd6f4c24 40c5f5db c0c5fd7f 442420c5  .oL$@.......D$ .
 403f40 fd6f4424 20c5fd6f 4c2440c5 f5dbc0c5  .oD$ ..oL$@.....
 403f50 fd7f4424 20c5fd6f 442420c5 fd6f4c24  ..D$ ..oD$ ..oL$
 403f60 40c5f5db c0c5fd7f 442420c5 fd6f4424  @.......D$ ..oD$
 403f70 20c5fd6f 4c2440c5 f5dbc0c5 fd7f4424   ..oL$@.......D$
 403f80 20c5fd6f 442420c5 fd6f4c24 40c5f5db   ..oD$ ..oL$@...
 403f90 c0c5fd7f 442420c5 fd6f4424 20c5fd6f  ....D$ ..oD$ ..o
 403fa0 4c2440c5 f5dbc0c5 fd7f4424 20c5fd6f  L$@.......D$ ..o
 403fb0 442420c5 fd6f4c24 40c5f5db c0c5fd7f  D$ ..oL$@.......
 403fc0 442420c5 fd6f4424 20c5fd6f 4c2440c5  D$ ..oD$ ..oL$@.
 403fd0 f5dbc0c5 fd7f4424 20c5fd6f 442420c5  ......D$ ..oD$ .
 403fe0 fd6f4c24 40c5f5db c0c5fd7f 442420c5  .oL$@.......D$ .
 403ff0 fd6f4424 20c5fd6f 4c2440c5 f5dbc0c5  .oD$ ..oL$@.....
 404000 fd7f4424 20c5fd6f 442420c5 fd6f4c24  ..D$ ..oD$ ..oL$
 404010 40c5f5db c0c5fd7f 442420c5 fd6f4424  @.......D$ ..oD$
 404020 20c5fd6f 4c2440c5 f5dbc0c5 fd7f4424   ..oL$@.......D$
 404030 20c5fd6f 442420c5 fd6f4c24 40c5f5db   ..oD$ ..oL$@...
 404040 c0c5fd7f 442420c5 fd6f4424 20c5fd6f  ....D$ ..oD$ ..o
 404050 4c2440c5 f5dbc0c5 fd7f4424 20c5fd6f  L$@.......D$ ..o
 404060 442420c5 fd6f4c24 40c5f5db c0c5fd7f  D$ ..oL$@.......
 404070 442420c5 fd6f4424 20c5fd6f 4c2440c5  D$ ..oD$ ..oL$@.
 404080 f5dbc0c5 fd7f4424 20c5fd6f 442420c5  ......D$ ..oD$ .
 404090 fd6f4c24 40c5f5db c0c5fd7f 442420c5  .oL$@.......D$ .
 4040a0 fd6f4424 20c5fd6f 4c2440c5 f5dbc0c5  .oD$ ..oL$@.....
 4040b0 fd7f4424 20c5fd6f 442420c5 fd6f4c24  ..D$ ..oD$ ..oL$
 4040c0 40c5f5db c0c5fd7f 442420c5 fd6f4424  @.......D$ ..oD$
 4040d0 20c5fd6f 4c2440c5 f5dbc0c5 fd7f4424   ..oL$@.......D$
 4040e0 20c5fd6f 442420c5 fd6f4c24 40c5f5db   ..oD$ ..oL$@...
 4040f0 c0c5fd7f 442420c5 fd6f4424 20c5fd6f  ....D$ ..oD$ ..o
 404100 4c2440c5 f5dbc0c5 fd7f4424 20c5fd6f  L$@.......D$ ..o
 404110 442420c5 fd6f4c24 40c5f5db c0c5fd7f  D$ ..oL$@.......
 404120 442420c5 fd6f4424 20c5fd6f 4c2440c5  D$ ..oD$ ..oL$@.
 404130 f5dbc0c5 fd7f4424 20c5fd6f 442420c5  ......D$ ..oD$ .
 404140 fd6f4c24 40c5f5db c0c5fd7f 442420c5  .oL$@.......D$ .
 404150 fd6f4424 20c5fd6f 4c2440c5 f5dbc0c5  .oD$ ..oL$@.....
 404160 fd7f4424 20c5fd6f 442420c5 fd6f4c24  ..D$ ..oD$ ..oL$
 404170 40c5f5db c0c5fd7f 442420c5 fd6f4424  @.......D$ ..oD$
 404180 20c5fd6f 4c2440c5 f5dbc0c5 fd7f4424   ..oL$@.......D$
 404190 20c5fd6f 442420c5 fd6f4c24 40c5f5db   ..oD$ ..oL$@...
 4041a0 c0c5fd7f 442420c5 fd6f4424 20c5fd6f  ....D$ ..oD$ ..o
 4041b0 4c2440c5 f5dbc0c5 fd7f4424 20c5fd6f  L$@.......D$ ..o
 4041c0 442420c5 fd6f4c24 40c5f5db c0c5fd7f  D$ ..oL$@.......
 4041d0 442420c5 fd6f4424 20c5fd6f 4c2440c5  D$ ..oD$ ..oL$@.
 4041e0 f5dbc0c5 fd7f4424 20c5fd6f 442420c5  ......D$ ..oD$ .
 4041f0 fd6f4c24 40c5f5db c0c5fd7f 442420c5  .oL$@.......D$ .
 404200 fd6f4424 20c5fd6f 4c2440c5 f5dbc0c5  .oD$ ..oL$@.....
 404210 fd7f4424 20c5fd6f 442420c5 fd6f4c24  ..D$ ..oD$ ..oL$
 404220 40c5f5db c0c5fd7f 442420c5 fd6f4424  @.......D$ ..oD$
 404230 20c5fd6f 4c2440c5 f5dbc0c5 fd7f4424   ..oL$@.......D$
 404240 20c5fd6f 442420c5 fd6f4c24 40c5f5db   ..oD$ ..oL$@...
 404250 c0c5fd7f 442420c5 fd6f4424 20c5fd6f  ....D$ ..oD$ ..o
 404260 4c2440c5 f5dbc0c5 fd7f4424 20c5fd6f  L$@.......D$ ..o
 404270 442420c5 fd6f4c24 40c5f5db c0c5fd7f  D$ ..oL$@.......
 404280 442420c5 fd6f4424 20c5fd6f 4c2440c5  D$ ..oD$ ..oL$@.
 404290 f5dbc0c5 fd7f4424 20c5fd6f 442420c5  ......D$ ..oD$ .
 4042a0 fd6f4c24 40c5f5db c0c5fd7f 442420c5  .oL$@.......D$ .
 4042b0 fd6f4424 20c5fd6f 4c2440c5 f5dbc0c5  .oD$ ..oL$@.....
 4042c0 fd7f4424 20c5fd6f 442420c5 fd6f4c24  ..D$ ..oD$ ..oL$
 4042d0 40c5f5db c0c5fd7f 442420c5 fd6f4424  @.......D$ ..oD$
 4042e0 20c5fd6f 4c2440c5 f5dbc0c5 fd7f4424   ..oL$@.......D$
 4042f0 20c5fd6f 442420c5 fd6f4c24 40c5f5db   ..oD$ ..oL$@...
 404300 c0c5fd7f 442420c5 fd6f4424 20c5fd6f  ....D$ ..oD$ ..o
 404310 4c2440c5 f5dbc0c5 fd7f4424 20c5fd6f  L$@.......D$ ..o
 404320 442420c5 fd6f4c24 40c5f5db c0c5fd7f  D$ ..oL$@.......
 404330 442420c5 fd6f4424 20c5fd6f 4c2440c5  D$ ..oD$ ..oL$@.
 404340 f5dbc0c5 fd7f4424 20c5fd6f 442420c5  ......D$ ..oD$ .
 404350 fd6f4c24 40c5f5db c0c5fd7f 442420c5  .oL$@.......D$ .
 404360 fd6f4424 20c5fd6f 4c2440c5 f5dbc0c5  .oD$ ..oL$@.....
 404370 fd7f4424 20c5fd6f 442420c5 fd6f4c24  ..D$ ..oD$ ..oL$
 404380 40c5f5db c0c5fd7f 442420c5 fd6f4424  @.......D$ ..oD$
 404390 20c5fd6f 4c2440c5 f5dbc0c5 fd7f4424   ..oL$@.......D$
 4043a0 20c5fd6f 442420c5 fd6f4c24 40c5f5db   ..oD$ ..oL$@...
 4043b0 c0c5fd7f 442420c5 fd6f4424 20c5fd6f  ....D$ ..oD$ ..o
 4043c0 4c2440c5 f5dbc0c5 fd7f4424 20c5fd6f  L$@.......D$ ..o
 4043d0 442420c5 fd6f4c24 40c5f5db c0c5fd7f  D$ ..oL$@.......
 4043e0 442420c5 fd6f4424 20c5fd6f 4c2440c5  D$ ..oD$ ..oL$@.
 4043f0 f5dbc0c5 fd7f4424 20c5fd6f 442420c5  ......D$ ..oD$ .
 404400 fd6f4c24 40c5f5db c0c5fd7f 442420c5  .oL$@.......D$ .
 404410 fd6f4424 20c5fd6f 4c2440c5 f5dbc0c5  .oD$ ..oL$@.....
 404420 fd7f4424 20c5fd6f 442420c5 fd6f4c24  ..D$ ..oD$ ..oL$
 404430 40c5f5db c0c5fd7f 442420c5 fd6f4424  @.......D$ ..oD$
 404440 20c5fd6f 4c2440c5 f5dbc0c5 fd7f4424   ..oL$@.......D$
 404450 20c5fd6f 442420c5 fd6f4c24 40c5f5db   ..oD$ ..oL$@...
 404460 c0c5fd7f 442420c5 fd6f4424 20c5fd6f  ....D$ ..oD$ ..o
 404470 4c2440c5 f5dbc0c5 fd7f4424 20c5fd6f  L$@.......D$ ..o
 404480 442420c5 fd6f4c24 40c5f5db c0c5fd7f  D$ ..oL$@.......
 404490 442420c5 fd6f4424 20c5fd6f 4c2440c5  D$ ..oD$ ..oL$@.
 4044a0 f5dbc0c5 fd7f4424 20c5fd6f 442420c5  ......D$ ..oD$ .
 4044b0 fd6f4c24 40c5f5db c0c5fd7f 442420c5  .oL$@.......D$ .
 4044c0 fd6f4424 20c5fd6f 4c2440c5 f5dbc0c5  .oD$ ..oL$@.....
 4044d0 fd7f4424 20c5fd6f 442420c5 fd6f4c24  ..D$ ..oD$ ..oL$
 4044e0 40c5f5db c0c5fd7f 442420c5 fd6f4424  @.......D$ ..oD$
 4044f0 20c5fd6f 4c2440c5 f5dbc0c5 fd7f4424   ..oL$@.......D$
 404500 20c5fd6f 442420c5 fd6f4c24 40c5f5db   ..oD$ ..oL$@...
 404510 c0c5fd7f 442420c5 fd6f4424 20c5fd6f  ....D$ ..oD$ ..o
 404520 4c2440c5 f5dbc0c5 fd7f4424 20c5fd6f  L$@.......D$ ..o
 404530 442420c5 fd6f4c24 40c5f5db c0c5fd7f  D$ ..oL$@.......
 404540 442420c5 fd6f4424 20c5fd6f 4c2440c5  D$ ..oD$ ..oL$@.
 404550 f5dbc0c5 fd7f4424 20c5fd6f 442420c5  ......D$ ..oD$ .
 404560 fd6f4c24 40c5f5db c0c5fd7f 442420c5  .oL$@.......D$ .
 404570 fd6f4424 20c5fd6f 4c2440c5 f5dbc0c5  .oD$ ..oL$@.....
 404580 fd7f4424 20c5fd6f 442420c5 fd6f4c24  ..D$ ..oD$ ..oL$
 404590 40c5f5db c0c5fd7f 442420c5 fd6f4424  @.......D$ ..oD$
 4045a0 20c5fd6f 4c2440c5 f5dbc0c5 fd7f4424   ..oL$@.......D$
 4045b0 20c5fd6f 442420c5 fd6f4c24 40c5f5db   ..oD$ ..oL$@...
 4045c0 c0c5fd7f 442420c5 fd6f4424 20c5fd6f  ....D$ ..oD$ ..o
 4045d0 4c2440c5 f5dbc0c5 fd7f4424 20c5fd6f  L$@.......D$ ..o
 4045e0 442420c5 fd6f4c24 40c5f5db c0c5fd7f  D$ ..oL$@.......
 4045f0 442420c5 fd6f4424 20c5fd6f 4c2440c5  D$ ..oD$ ..oL$@.
 404600 f5dbc0c5 fd7f4424 20c5fd6f 442420c5  ......D$ ..oD$ .
 404610 fd6f4c24 40c5f5db c0c5fd7f 442420c5  .oL$@.......D$ .
 404620 fd6f4424 20c5fd6f 4c2440c5 f5dbc0c5  .oD$ ..oL$@.....
 404630 fd7f4424 20c5fd6f 442420c5 fd6f4c24  ..D$ ..oD$ ..oL$
 404640 40c5f5db c0c5fd7f 442420c5 fd6f4424  @.......D$ ..oD$
 404650 20c5fd6f 4c2440c5 f5dbc0c5 fd7f4424   ..oL$@.......D$
 404660 20c5fd6f 442420c5 fd6f4c24 40c5f5db   ..oD$ ..oL$@...
 404670 c0c5fd7f 442420c5 fd6f4424 20c5fd6f  ....D$ ..oD$ ..o
 404680 4c2440c5 f5dbc0c5 fd7f4424 20c5fd6f  L$@.......D$ ..o
 404690 442420c5 fd6f4c24 40c5f5db c0c5fd7f  D$ ..oL$@.......
 4046a0 442420c5 fd6f4424 20c5fd6f 4c2440c5  D$ ..oD$ ..oL$@.
 4046b0 f5dbc0c5 fd7f4424 20c5fd6f 442420c5  ......D$ ..oD$ .
 4046c0 fd6f4c24 40c5f5db c0c5fd7f 442420c5  .oL$@.......D$ .
 4046d0 fd6f4424 20c5fd6f 4c2440c5 f5dbc0c5  .oD$ ..oL$@.....
 4046e0 fd7f4424 20c5fd6f 442420c5 fd6f4c24  ..D$ ..oD$ ..oL$
 4046f0 40c5f5db c0c5fd7f 442420c5 fd6f4424  @.......D$ ..oD$
 404700 20c5fd6f 4c2440c5 f5dbc0c5 fd7f4424   ..oL$@.......D$
 404710 20c5fd6f 442420c5 fd6f4c24 40c5f5db   ..oD$ ..oL$@...
 404720 c0c5fd7f 442420c5 fd6f4424 20c5fd6f  ....D$ ..oD$ ..o
 404730 4c2440c5 f5dbc0c5 fd7f4424 20c5fd6f  L$@.......D$ ..o
 404740 442420c5 fd6f4c24 40c5f5db c0c5fd7f  D$ ..oL$@.......
 404750 442420c5 fd6f4424 20c5fd6f 4c2440c5  D$ ..oD$ ..oL$@.
 404760 f5dbc0c5 fd7f4424 20c5fd6f 442420c5  ......D$ ..oD$ .
 404770 fd6f4c24 40c5f5db c0c5fd7f 442420c5  .oL$@.......D$ .
 404780 fd6f4424 20c5fd6f 4c2440c5 f5dbc0c5  .oD$ ..oL$@.....
 404790 fd7f4424 20c5fd6f 442420c5 fd6f4c24  ..D$ ..oD$ ..oL$
 4047a0 40c5f5db c0c5fd7f 442420c5 fd6f4424  @.......D$ ..oD$
 4047b0 20c5fd6f 4c2440c5 f5dbc0c5 fd7f4424   ..oL$@.......D$
 4047c0 20c5fd6f 442420c5 fd6f4c24 40c5f5db   ..oD$ ..oL$@...
 4047d0 c0c5fd7f 442420c5 fd6f4424 20c5fd6f  ....D$ ..oD$ ..o
 4047e0 4c2440c5 f5dbc0c5 fd7f4424 20c5fd6f  L$@.......D$ ..o
 4047f0 442420c5 fd6f4c24 40c5f5db c0c5fd7f  D$ ..oL$@.......
 404800 442420c5 fd6f4424 20c5fd6f 4c2440c5  D$ ..oD$ ..oL$@.
 404810 f5dbc0c5 fd7f4424 20c5fd6f 442420c5  ......D$ ..oD$ .
 404820 fd6f4c24 40c5f5db c0c5fd7f 442420c5  .oL$@.......D$ .
 404830 fd6f4424 20c5fd6f 4c2440c5 f5dbc0c5  .oD$ ..oL$@.....
 404840 fd7f4424 20c5fd6f 442420c5 fd6f4c24  ..D$ ..oD$ ..oL$
 404850 40c5f5db c0c5fd7f 442420c5 fd6f4424  @.......D$ ..oD$
 404860 20c5fd6f 4c2440c5 f5dbc0c5 fd7f4424   ..oL$@.......D$
 404870 20c5fd6f 442420c5 fd6f4c24 40c5f5db   ..oD$ ..oL$@...
 404880 c0c5fd7f 442420c5 fd6f4424 20c5fd6f  ....D$ ..oD$ ..o
 404890 4c2440c5 f5dbc0c5 fd7f4424 20c5fd6f  L$@.......D$ ..o
 4048a0 442420c5 fd6f4c24 40c5f5db c0c5fd7f  D$ ..oL$@.......
 4048b0 442420c5 fd6f4424 20c5fd6f 4c2440c5  D$ ..oD$ ..oL$@.
 4048c0 f5dbc0c5 fd7f4424 20c5fd6f 442420c5  ......D$ ..oD$ .
 4048d0 fd6f4c24 40c5f5db c0c5fd7f 442420c5  .oL$@.......D$ .
 4048e0 fd6f4424 20c5fd6f 4c2440c5 f5dbc0c5  .oD$ ..oL$@.....
 4048f0 fd7f4424 20c5fd6f 442420c5 fd6f4c24  ..D$ ..oD$ ..oL$
 404900 40c5f5db c0c5fd7f 442420c5 fd6f4424  @.......D$ ..oD$
 404910 20c5fd6f 4c2440c5 f5dbc0c5 fd7f4424   ..oL$@.......D$
 404920 20c5fd6f 442420c5 fd6f4c24 40c5f5db   ..oD$ ..oL$@...
 404930 c0c5fd7f 442420c5 fd6f4424 20c5fd6f  ....D$ ..oD$ ..o
 404940 4c2440c5 f5dbc0c5 fd7f4424 20c5fd6f  L$@.......D$ ..o
 404950 442420c5 fd6f4c24 40c5f5db c0c5fd7f  D$ ..oL$@.......
 404960 442420c5 fd6f4424 20c5fd6f 4c2440c5  D$ ..oD$ ..oL$@.
 404970 f5dbc0c5 fd7f4424 20c5fd6f 442420c5  ......D$ ..oD$ .
 404980 fd6f4c24 40c5f5db c0c5fd7f 442420c5  .oL$@.......D$ .
 404990 fd6f4424 20c5fd6f 4c2440c5 f5dbc0c5  .oD$ ..oL$@.....
 4049a0 fd7f4424 20c5fd6f 442420c5 fd6f4c24  ..D$ ..oD$ ..oL$
 4049b0 40c5f5db c0c5fd7f 442420c5 fd6f4424  @.......D$ ..oD$
 4049c0 20c5fd6f 4c2440c5 f5dbc0c5 fd7f4424   ..oL$@.......D$
 4049d0 20c5fd6f 442420c5 fd6f4c24 40c5f5db   ..oD$ ..oL$@...
 4049e0 c0c5fd7f 442420c5 fd6f4424 20c5fd6f  ....D$ ..oD$ ..o
 4049f0 4c2440c5 f5dbc0c5 fd7f4424 20c5fd6f  L$@.......D$ ..o
 404a00 442420c5 fd6f4c24 40c5f5db c0c5fd7f  D$ ..oL$@.......
 404a10 442420c5 fd6f4424 20c5fd6f 4c2440c5  D$ ..oD$ ..oL$@.
 404a20 f5dbc0c5 fd7f4424 20c5fd6f 442420c5  ......D$ ..oD$ .
 404a30 fd6f4c24 40c5f5db c0c5fd7f 442420c5  .oL$@.......D$ .
 404a40 fd6f4424 20c5fd6f 4c2440c5 f5dbc0c5  .oD$ ..oL$@.....
 404a50 fd7f4424 20c5fd6f 442420c5 fd6f4c24  ..D$ ..oD$ ..oL$
 404a60 40c5f5db c0c5fd7f 442420c5 fd6f4424  @.......D$ ..oD$
 404a70 20c5fd6f 4c2440c5 f5dbc0c5 fd7f4424   ..oL$@.......D$
 404a80 20c5fd6f 442420c5 fd6f4c24 40c5f5db   ..oD$ ..oL$@...
 404a90 c0c5fd7f 442420c5 fd6f4424 20c5fd6f  ....D$ ..oD$ ..o
 404aa0 4c2440c5 f5dbc0c5 fd7f4424 20c5fd6f  L$@.......D$ ..o
 404ab0 442420c5 fd6f4c24 40c5f5db c0c5fd7f  D$ ..oL$@.......
 404ac0 442420c5 fd6f4424 20c5fd6f 4c2440c5  D$ ..oD$ ..oL$@.
 404ad0 f5dbc0c5 fd7f4424 20c5fd6f 442420c5  ......D$ ..oD$ .
 404ae0 fd6f4c24 40c5f5db c0c5fd7f 442420c5  .oL$@.......D$ .
 404af0 fd6f4424 20c5fd6f 4c2440c5 f5dbc0c5  .oD$ ..oL$@.....
 404b00 fd7f4424 20c5fd6f 442420c5 fd6f4c24  ..D$ ..oD$ ..oL$
 404b10 40c5f5db c0c5fd7f 442420c5 fd6f4424  @.......D$ ..oD$
 404b20 20c5fd6f 4c2440c5 f5dbc0c5 fd7f4424   ..oL$@.......D$
 404b30 20c5fd6f 442420c5 fd6f4c24 40c5f5db   ..oD$ ..oL$@...
 404b40 c0c5fd7f 442420c5 fd6f4424 20c5fd6f  ....D$ ..oD$ ..o
 404b50 4c2440c5 f5dbc0c5 fd7f4424 20c5fd6f  L$@.......D$ ..o
 404b60 442420c5 fd6f4c24 40c5f5db c0c5fd7f  D$ ..oL$@.......
 404b70 442420c5 fd6f4424 20c5fd6f 4c2440c5  D$ ..oD$ ..oL$@.
 404b80 f5dbc0c5 fd7f4424 20c5fd6f 442420c5  ......D$ ..oD$ .
 404b90 fd6f4c24 40c5f5db c0c5fd7f 442420c5  .oL$@.......D$ .
 404ba0 fd6f4424 20c5fd6f 4c2440c5 f5dbc0c5  .oD$ ..oL$@.....
 404bb0 fd7f4424 20c5fd6f 442420c5 fd6f4c24  ..D$ ..oD$ ..oL$
 404bc0 40c5f5db c0c5fd7f 442420c5 fd6f4424  @.......D$ ..oD$
 404bd0 20c5fd6f 4c2440c5 f5dbc0c5 fd7f4424   ..oL$@.......D$
 404be0 20c5fd6f 442420c5 fd6f4c24 40c5f5db   ..oD$ ..oL$@...
 404bf0 c0c5fd7f 442420c5 fd6f4424 20c5fd6f  ....D$ ..oD$ ..o
 404c00 4c2440c5 f5dbc0c5 fd7f4424 20c5fd6f  L$@.......D$ ..o
 404c10 442420c5 fd6f4c24 40c5f5db c0c5fd7f  D$ ..oL$@.......
 404c20 442420c5 fd6f4424 20c5fd6f 4c2440c5  D$ ..oD$ ..oL$@.
 404c30 f5dbc0c5 fd7f4424 20c5fd6f 442420c5  ......D$ ..oD$ .
 404c40 fd6f4c24 40c5f5db c0c5fd7f 442420c5  .oL$@.......D$ .
 404c50 fd6f4424 20c5fd6f 4c2440c5 f5dbc0c5  .oD$ ..oL$@.....
 404c60 fd7f4424 20c5fd6f 442420c5 fd6f4c24  ..D$ ..oD$ ..oL$
 404c70 40c5f5db c0c5fd7f 442420c5 fd6f4424  @.......D$ ..oD$
 404c80 20c5fd6f 4c2440c5 f5dbc0c5 fd7f4424   ..oL$@.......D$
 404c90 20c5fd6f 442420c5 fd6f4c24 40c5f5db   ..oD$ ..oL$@...
 404ca0 c0c5fd7f 442420c5 fd6f4424 20c5fd6f  ....D$ ..oD$ ..o
 404cb0 4c2440c5 f5dbc0c5 fd7f4424 20c5fd6f  L$@.......D$ ..o
 404cc0 442420c5 fd6f4c24 40c5f5db c0c5fd7f  D$ ..oL$@.......
 404cd0 442420c5 fd6f4424 20c5fd6f 4c2440c5  D$ ..oD$ ..oL$@.
 404ce0 f5dbc0c5 fd7f4424 20c5fd6f 442420c5  ......D$ ..oD$ .
 404cf0 fd6f4c24 40c5f5db c0c5fd7f 442420c5  .oL$@.......D$ .
 404d00 fd6f4424 20c5fd6f 4c2440c5 f5dbc0c5  .oD$ ..oL$@.....
 404d10 fd7f4424 20c5fd6f 442420c5 fd6f4c24  ..D$ ..oD$ ..oL$
 404d20 40c5f5db c0c5fd7f 442420c5 fd6f4424  @.......D$ ..oD$
 404d30 20c5fd6f 4c2440c5 f5dbc0c5 fd7f4424   ..oL$@.......D$
 404d40 20c5fd6f 442420c5 fd6f4c24 40c5f5db   ..oD$ ..oL$@...
 404d50 c0c5fd7f 442420c5 fd6f4424 20c5fd6f  ....D$ ..oD$ ..o
 404d60 4c2440c5 f5dbc0c5 fd7f4424 20c5fd6f  L$@.......D$ ..o
 404d70 442420c5 fd6f4c24 40c5f5db c0c5fd7f  D$ ..oL$@.......
 404d80 442420c5 fd6f4424 20c5fd6f 4c2440c5  D$ ..oD$ ..oL$@.
 404d90 f5dbc0c5 fd7f4424 20c5fd6f 442420c5  ......D$ ..oD$ .
 404da0 fd6f4c24 40c5f5db c0c5fd7f 442420c5  .oL$@.......D$ .
 404db0 fd6f4424 20c5fd6f 4c2440c5 f5dbc0c5  .oD$ ..oL$@.....
 404dc0 fd7f4424 20c5fd6f 442420c5 fd6f4c24  ..D$ ..oD$ ..oL$
 404dd0 40c5f5db c0c5fd7f 442420c5 fd6f4424  @.......D$ ..oD$
 404de0 20c5fd6f 4c2440c5 f5dbc0c5 fd7f4424   ..oL$@.......D$
 404df0 20c5fd6f 442420c5 fd6f4c24 40c5f5db   ..oD$ ..oL$@...
 404e00 c0c5fd7f 442420c5 fd6f4424 20c5fd6f  ....D$ ..oD$ ..o
 404e10 4c2440c5 f5dbc0c5 fd7f4424 20c5fd6f  L$@.......D$ ..o
 404e20 442420c5 fd6f4c24 40c5f5db c0c5fd7f  D$ ..oL$@.......
 404e30 442420c5 fd6f4424 20c5fd6f 4c2440c5  D$ ..oD$ ..oL$@.
 404e40 f5dbc0c5 fd7f4424 20c5fd6f 442420c5  ......D$ ..oD$ .
 404e50 fd6f4c24 40c5f5db c0c5fd7f 442420c5  .oL$@.......D$ .
 404e60 fd6f4424 20c5fd6f 4c2440c5 f5dbc0c5  .oD$ ..oL$@.....
 404e70 fd7f4424 20c5fd6f 442420c5 fd6f4c24  ..D$ ..oD$ ..oL$
 404e80 40c5f5db c0c5fd7f 442420c5 fd6f4424  @.......D$ ..oD$
 404e90 20c5fd6f 4c2440c5 f5dbc0c5 fd7f4424   ..oL$@.......D$
 404ea0 20c5fd6f 442420c5 fd6f4c24 40c5f5db   ..oD$ ..oL$@...
 404eb0 c0c5fd7f 442420c5 fd6f4424 20c5fd6f  ....D$ ..oD$ ..o
 404ec0 4c2440c5 f5dbc0c5 fd7f4424 20c5fd6f  L$@.......D$ ..o
 404ed0 442420c5 fd6f4c24 40c5f5db c0c5fd7f  D$ ..oL$@.......
 404ee0 442420c5 fd6f4424 20c5fd6f 4c2440c5  D$ ..oD$ ..oL$@.
 404ef0 f5dbc0c5 fd7f4424 20c5fd6f 442420c5  ......D$ ..oD$ .
 404f00 fd6f4c24 40c5f5db c0c5fd7f 442420c5  .oL$@.......D$ .
 404f10 fd6f4424 20c5fd6f 4c2440c5 f5dbc0c5  .oD$ ..oL$@.....
 404f20 fd7f4424 20c5fd6f 442420c5 fd6f4c24  ..D$ ..oD$ ..oL$
 404f30 40c5f5db c0c5fd7f 442420c5 fd6f4424  @.......D$ ..oD$
 404f40 20c5fd6f 4c2440c5 f5dbc0c5 fd7f4424   ..oL$@.......D$
 404f50 20c5fd6f 442420c5 fd6f4c24 40c5f5db   ..oD$ ..oL$@...
 404f60 c0c5fd7f 442420c5 fd6f4424 20c5fd6f  ....D$ ..oD$ ..o
 404f70 4c2440c5 f5dbc0c5 fd7f4424 20c5fd6f  L$@.......D$ ..o
 404f80 442420c5 fd6f4c24 40c5f5db c0c5fd7f  D$ ..oL$@.......
 404f90 442420c5 fd6f4424 20c5fd6f 4c2440c5  D$ ..oD$ ..oL$@.
 404fa0 f5dbc0c5 fd7f4424 20c5fd6f 442420c5  ......D$ ..oD$ .
 404fb0 fd6f4c24 40c5f5db c0c5fd7f 442420c5  .oL$@.......D$ .
 404fc0 fd6f4424 20c5fd6f 4c2440c5 f5dbc0c5  .oD$ ..oL$@.....
 404fd0 fd7f4424 20c5fd6f 442420c5 fd6f4c24  ..D$ ..oD$ ..oL$
 404fe0 40c5f5db c0c5fd7f 442420c5 fd6f4424  @.......D$ ..oD$
 404ff0 20c5fd6f 4c2440c5 f5dbc0c5 fd7f4424   ..oL$@.......D$
 405000 20c5fd6f 442420c5 fd6f4c24 40c5f5db   ..oD$ ..oL$@...
 405010 c0c5fd7f 442420c5 fd6f4424 20c5fd6f  ....D$ ..oD$ ..o
 405020 4c2440c5 f5dbc0c5 fd7f4424 20c5fd6f  L$@.......D$ ..o
 405030 442420c5 fd6f4c24 40c5f5db c0c5fd7f  D$ ..oL$@.......
 405040 442420c5 fd6f4424 20c5fd6f 4c2440c5  D$ ..oD$ ..oL$@.
 405050 f5dbc0c5 fd7f4424 20c5fd6f 442420c5  ......D$ ..oD$ .
 405060 fd6f4c24 40c5f5db c0c5fd7f 442420c5  .oL$@.......D$ .
 405070 fd6f4424 20c5fd6f 4c2440c5 f5dbc0c5  .oD$ ..oL$@.....
 405080 fd7f4424 20c5fd6f 442420c5 fd6f4c24  ..D$ ..oD$ ..oL$
 405090 40c5f5db c0c5fd7f 442420c5 fd6f4424  @.......D$ ..oD$
 4050a0 20c5fd6f 4c2440c5 f5dbc0c5 fd7f4424   ..oL$@.......D$
 4050b0 20c5fd6f 442420c5 fd6f4c24 40c5f5db   ..oD$ ..oL$@...
 4050c0 c0c5fd7f 442420c5 fd6f4424 20c5fd6f  ....D$ ..oD$ ..o
 4050d0 4c2440c5 f5dbc0c5 fd7f4424 20c5fd6f  L$@.......D$ ..o
 4050e0 442420c5 fd6f4c24 40c5f5db c0c5fd7f  D$ ..oL$@.......
 4050f0 442420c5 fd6f4424 20c5fd6f 4c2440c5  D$ ..oD$ ..oL$@.
 405100 f5dbc0c5 fd7f4424 20c5fd6f 442420c5  ......D$ ..oD$ .
 405110 fd6f4c24 40c5f5db c0c5fd7f 442420c5  .oL$@.......D$ .
 405120 fd6f4424 20c5fd6f 4c2440c5 f5dbc0c5  .oD$ ..oL$@.....
 405130 fd7f4424 20c5fd6f 442420c5 fd6f4c24  ..D$ ..oD$ ..oL$
 405140 40c5f5db c0c5fd7f 442420c5 fd6f4424  @.......D$ ..oD$
 405150 20c5fd6f 4c2440c5 f5dbc0c5 fd7f4424   ..oL$@.......D$
 405160 20c5fd6f 442420c5 fd6f4c24 40c5f5db   ..oD$ ..oL$@...
 405170 c0c5fd7f 442420c5 fd6f4424 20c5fd6f  ....D$ ..oD$ ..o
 405180 4c2440c5 f5dbc0c5 fd7f4424 20c5fd6f  L$@.......D$ ..o
 405190 442420c5 fd6f4c24 40c5f5db c0c5fd7f  D$ ..oL$@.......
 4051a0 442420c5 fd6f4424 20c5fd6f 4c2440c5  D$ ..oD$ ..oL$@.
 4051b0 f5dbc0c5 fd7f4424 20c5fd6f 442420c5  ......D$ ..oD$ .
 4051c0 fd6f4c24 40c5f5db c0c5fd7f 442420c5  .oL$@.......D$ .
 4051d0 fd6f4424 20c5fd6f 4c2440c5 f5dbc0c5  .oD$ ..oL$@.....
 4051e0 fd7f4424 20c5fd6f 442420c5 fd6f4c24  ..D$ ..oD$ ..oL$
 4051f0 40c5f5db c0c5fd7f 442420c5 fd6f4424  @.......D$ ..oD$
 405200 20c5fd6f 4c2440c5 f5dbc0c5 fd7f4424   ..oL$@.......D$
 405210 20c5fd6f 442420c5 fd6f4c24 40c5f5db   ..oD$ ..oL$@...
 405220 c0c5fd7f 442420c5 fd6f4424 20c5fd6f  ....D$ ..oD$ ..o
 405230 4c2440c5 f5dbc0c5 fd7f4424 20c5fd6f  L$@.......D$ ..o
 405240 442420c5 fd6f4c24 40c5f5db c0c5fd7f  D$ ..oL$@.......
 405250 442420c5 fd6f4424 20c5fd6f 4c2440c5  D$ ..oD$ ..oL$@.
 405260 f5dbc0c5 fd7f4424 20c5fd6f 442420c5  ......D$ ..oD$ .
 405270 fd6f4c24 40c5f5db c0c5fd7f 442420c5  .oL$@.......D$ .
 405280 fd6f4424 20c5fd6f 4c2440c5 f5dbc0c5  .oD$ ..oL$@.....
 405290 fd7f4424 20c5fd6f 442420c5 fd6f4c24  ..D$ ..oD$ ..oL$
 4052a0 40c5f5db c0c5fd7f 442420c5 fd6f4424  @.......D$ ..oD$
 4052b0 20c5fd6f 4c2440c5 f5dbc0c5 fd7f4424   ..oL$@.......D$
 4052c0 20c5fd6f 442420c5 fd6f4c24 40c5f5db   ..oD$ ..oL$@...
 4052d0 c0c5fd7f 442420c5 fd6f4424 20c5fd6f  ....D$ ..oD$ ..o
 4052e0 4c2440c5 f5dbc0c5 fd7f4424 20c5fd6f  L$@.......D$ ..o
 4052f0 442420c5 fd6f4c24 40c5f5db c0c5fd7f  D$ ..oL$@.......
 405300 442420c5 fd6f4424 20c5fd6f 4c2440c5  D$ ..oD$ ..oL$@.
 405310 f5dbc0c5 fd7f4424 20c5fd6f 442420c5  ......D$ ..oD$ .
 405320 fd6f4c24 40c5f5db c0c5fd7f 442420c5  .oL$@.......D$ .
 405330 fd6f4424 20c5fd6f 4c2440c5 f5dbc0c5  .oD$ ..oL$@.....
 405340 fd7f4424 20c5fd6f 442420c5 fd6f4c24  ..D$ ..oD$ ..oL$
 405350 40c5f5db c0c5fd7f 442420c5 fd6f4424  @.......D$ ..oD$
 405360 20c5fd6f 4c2440c5 f5dbc0c5 fd7f4424   ..oL$@.......D$
 405370 20c5fd6f 442420c5 fd6f4c24 40c5f5db   ..oD$ ..oL$@...
 405380 c0c5fd7f 442420c5 fd6f4424 20c5fd6f  ....D$ ..oD$ ..o
 405390 4c2440c5 f5dbc0c5 fd7f4424 20c5fd6f  L$@.......D$ ..o
 4053a0 442420c5 fd6f4c24 40c5f5db c0c5fd7f  D$ ..oL$@.......
 4053b0 442420c5 fd6f4424 20c5fd6f 4c2440c5  D$ ..oD$ ..oL$@.
 4053c0 f5dbc0c5 fd7f4424 20c5fd6f 442420c5  ......D$ ..oD$ .
 4053d0 fd6f4c24 40c5f5db c0c5fd7f 442420c5  .oL$@.......D$ .
 4053e0 fd6f4424 20c5fd6f 4c2440c5 f5dbc0c5  .oD$ ..oL$@.....
 4053f0 fd7f4424 20c5fd6f 442420c5 fd6f4c24  ..D$ ..oD$ ..oL$
 405400 40c5f5db c0c5fd7f 442420c5 fd6f4424  @.......D$ ..oD$
 405410 20c5fd6f 4c2440c5 f5dbc0c5 fd7f4424   ..oL$@.......D$
 405420 20c5fd6f 442420c5 fd6f4c24 40c5f5db   ..oD$ ..oL$@...
 405430 c0c5fd7f 442420c5 fd6f4424 20c5fd6f  ....D$ ..oD$ ..o
 405440 4c2440c5 f5dbc0c5 fd7f4424 20c5fd6f  L$@.......D$ ..o
 405450 442420c5 fd6f4c24 40c5f5db c0c5fd7f  D$ ..oL$@.......
 405460 442420c5 fd6f4424 20c5fd6f 4c2440c5  D$ ..oD$ ..oL$@.
 405470 f5dbc0c5 fd7f4424 20c5fd6f 442420c5  ......D$ ..oD$ .
 405480 fd6f4c24 40c5f5db c0c5fd7f 442420c5  .oL$@.......D$ .
 405490 fd6f4424 20c5fd6f 4c2440c5 f5dbc0c5  .oD$ ..oL$@.....
 4054a0 fd7f4424 20c5fd6f 442420c5 fd6f4c24  ..D$ ..oD$ ..oL$
 4054b0 40c5f5db c0c5fd7f 442420c5 fd6f4424  @.......D$ ..oD$
 4054c0 20c5fd6f 4c2440c5 f5dbc0c5 fd7f4424   ..oL$@.......D$
 4054d0 20c5fd6f 442420c5 fd6f4c24 40c5f5db   ..oD$ ..oL$@...
 4054e0 c0c5fd7f 442420c5 fd6f4424 20c5fd6f  ....D$ ..oD$ ..o
 4054f0 4c2440c5 f5dbc0c5 fd7f4424 20c5fd6f  L$@.......D$ ..o
 405500 442420c5 fd6f4c24 40c5f5db c0c5fd7f  D$ ..oL$@.......
 405510 442420c5 fd6f4424 20c5fd6f 4c2440c5  D$ ..oD$ ..oL$@.
 405520 f5dbc0c5 fd7f4424 20c5fd6f 442420c5  ......D$ ..oD$ .
 405530 fd6f4c24 40c5f5db c0c5fd7f 442420c5  .oL$@.......D$ .
 405540 fd6f4424 20c5fd6f 4c2440c5 f5dbc0c5  .oD$ ..oL$@.....
 405550 fd7f4424 20c5fd6f 442420c5 fd6f4c24  ..D$ ..oD$ ..oL$
 405560 40c5f5db c0c5fd7f 442420c5 fd6f4424  @.......D$ ..oD$
 405570 20c5fd6f 4c2440c5 f5dbc0c5 fd7f4424   ..oL$@.......D$
 405580 20c5fd6f 442420c5 fd6f4c24 40c5f5db   ..oD$ ..oL$@...
 405590 c0c5fd7f 442420c5 fd6f4424 20c5fd6f  ....D$ ..oD$ ..o
 4055a0 4c2440c5 f5dbc0c5 fd7f4424 20c5fd6f  L$@.......D$ ..o
 4055b0 442420c5 fd6f4c24 40c5f5db c0c5fd7f  D$ ..oL$@.......
 4055c0 442420c5 fd6f4424 20c5fd6f 4c2440c5  D$ ..oD$ ..oL$@.
 4055d0 f5dbc0c5 fd7f4424 20c5fd6f 442420c5  ......D$ ..oD$ .
 4055e0 fd6f4c24 40c5f5db c0c5fd7f 442420c5  .oL$@.......D$ .
 4055f0 fd6f4424 20c5fd6f 4c2440c5 f5dbc0c5  .oD$ ..oL$@.....
 405600 fd7f4424 20c5fd6f 442420c5 fd6f4c24  ..D$ ..oD$ ..oL$
 405610 40c5f5db c0c5fd7f 442420c5 fd6f4424  @.......D$ ..oD$
 405620 20c5fd6f 4c2440c5 f5dbc0c5 fd7f4424   ..oL$@.......D$
 405630 20c5fd6f 442420c5 fd6f4c24 40c5f5db   ..oD$ ..oL$@...
 405640 c0c5fd7f 442420c5 fd6f4424 20c5fd6f  ....D$ ..oD$ ..o
 405650 4c2440c5 f5dbc0c5 fd7f4424 20c5fd6f  L$@.......D$ ..o
 405660 442420c5 fd6f4c24 40c5f5db c0c5fd7f  D$ ..oL$@.......
 405670 442420c5 fd6f4424 20c5fd6f 4c2440c5  D$ ..oD$ ..oL$@.
 405680 f5dbc0c5 fd7f4424 20c5fd6f 442420c5  ......D$ ..oD$ .
 405690 fd6f4c24 40c5f5db c0c5fd7f 442420c5  .oL$@.......D$ .
 4056a0 fd6f4424 20c5fd6f 4c2440c5 f5dbc0c5  .oD$ ..oL$@.....
 4056b0 fd7f4424 20c5fd6f 442420c5 fd6f4c24  ..D$ ..oD$ ..oL$
 4056c0 40c5f5db c0c5fd7f 442420c5 fd6f4424  @.......D$ ..oD$
 4056d0 20c5fd6f 4c2440c5 f5dbc0c5 fd7f4424   ..oL$@.......D$
 4056e0 20c5fd6f 442420c5 fd6f4c24 40c5f5db   ..oD$ ..oL$@...
 4056f0 c0c5fd7f 442420c5 fd6f4424 20c5fd6f  ....D$ ..oD$ ..o
 405700 4c2440c5 f5dbc0c5 fd7f4424 20c5fd6f  L$@.......D$ ..o
 405710 442420c5 fd6f4c24 40c5f5db c0c5fd7f  D$ ..oL$@.......
 405720 442420c5 fd6f4424 20c5fd6f 4c2440c5  D$ ..oD$ ..oL$@.
 405730 f5dbc0c5 fd7f4424 20c5fd6f 442420c5  ......D$ ..oD$ .
 405740 fd6f4c24 40c5f5db c0c5fd7f 442420c5  .oL$@.......D$ .
 405750 fd6f4424 20c5fd6f 4c2440c5 f5dbc0c5  .oD$ ..oL$@.....
 405760 fd7f4424 20c5fd6f 442420c5 fd6f4c24  ..D$ ..oD$ ..oL$
 405770 40c5f5db c0c5fd7f 442420c5 fd6f4424  @.......D$ ..oD$
 405780 20c5fd6f 4c2440c5 f5dbc0c5 fd7f4424   ..oL$@.......D$
 405790 20c5fd6f 442420c5 fd6f4c24 40c5f5db   ..oD$ ..oL$@...
 4057a0 c0c5fd7f 442420c5 fd6f4424 20c5fd6f  ....D$ ..oD$ ..o
 4057b0 4c2440c5 f5dbc0c5 fd7f4424 20c5fd6f  L$@.......D$ ..o
 4057c0 442420c5 fd6f4c24 40c5f5db c0c5fd7f  D$ ..oL$@.......
 4057d0 442420c5 fd6f4424 20c5fd6f 4c2440c5  D$ ..oD$ ..oL$@.
 4057e0 f5dbc0c5 fd7f4424 20c5fd6f 442420c5  ......D$ ..oD$ .
 4057f0 fd6f4c24 40c5f5db c0c5fd7f 442420c5  .oL$@.......D$ .
 405800 fd6f4424 20c5fd6f 4c2440c5 f5dbc0c5  .oD$ ..oL$@.....
 405810 fd7f4424 20c5fd6f 442420c5 fd6f4c24  ..D$ ..oD$ ..oL$
 405820 40c5f5db c0c5fd7f 442420c5 fd6f4424  @.......D$ ..oD$
 405830 20c5fd6f 4c2440c5 f5dbc0c5 fd7f4424   ..oL$@.......D$
 405840 20c5fd6f 442420c5 fd6f4c24 40c5f5db   ..oD$ ..oL$@...
 405850 c0c5fd7f 442420c5 fd6f4424 20c5fd6f  ....D$ ..oD$ ..o
 405860 4c2440c5 f5dbc0c5 fd7f4424 20c5fd6f  L$@.......D$ ..o
 405870 442420c5 fd6f4c24 40c5f5db c0c5fd7f  D$ ..oL$@.......
 405880 442420c5 fd6f4424 20c5fd6f 4c2440c5  D$ ..oD$ ..oL$@.
 405890 f5dbc0c5 fd7f4424 20c5fd6f 442420c5  ......D$ ..oD$ .
 4058a0 fd6f4c24 40c5f5db c0c5fd7f 442420c5  .oL$@.......D$ .
 4058b0 fd6f4424 20c5fd6f 4c2440c5 f5dbc0c5  .oD$ ..oL$@.....
 4058c0 fd7f4424 20c5fd6f 442420c5 fd6f4c24  ..D$ ..oD$ ..oL$
 4058d0 40c5f5db c0c5fd7f 442420c5 fd6f4424  @.......D$ ..oD$
 4058e0 20c5fd6f 4c2440c5 f5dbc0c5 fd7f4424   ..oL$@.......D$
 4058f0 20c5fd6f 442420c5 fd6f4c24 40c5f5db   ..oD$ ..oL$@...
 405900 c0c5fd7f 442420c5 fd6f4424 20c5fd6f  ....D$ ..oD$ ..o
 405910 4c2440c5 f5dbc0c5 fd7f4424 20c5fd6f  L$@.......D$ ..o
 405920 442420c5 fd6f4c24 40c5f5db c0c5fd7f  D$ ..oL$@.......
 405930 442420c5 fd6f4424 20c5fd6f 4c2440c5  D$ ..oD$ ..oL$@.
 405940 f5dbc0c5 fd7f4424 20c5fd6f 442420c5  ......D$ ..oD$ .
 405950 fd6f4c24 40c5f5db c0c5fd7f 442420c5  .oL$@.......D$ .
 405960 fd6f4424 20c5fd6f 4c2440c5 f5dbc0c5  .oD$ ..oL$@.....
 405970 fd7f4424 20c5fd6f 442420c5 fd6f4c24  ..D$ ..oD$ ..oL$
 405980 40c5f5db c0c5fd7f 442420c5 fd6f4424  @.......D$ ..oD$
 405990 20c5fd6f 4c2440c5 f5dbc0c5 fd7f4424   ..oL$@.......D$
 4059a0 20c5fd6f 442420c5 fd6f4c24 40c5f5db   ..oD$ ..oL$@...
 4059b0 c0c5fd7f 442420c5 fd6f4424 20c5fd6f  ....D$ ..oD$ ..o
 4059c0 4c2440c5 f5dbc0c5 fd7f4424 20c5fd6f  L$@.......D$ ..o
 4059d0 442420c5 fd6f4c24 40c5f5db c0c5fd7f  D$ ..oL$@.......
 4059e0 442420c5 fd6f4424 20c5fd6f 4c2440c5  D$ ..oD$ ..oL$@.
 4059f0 f5dbc0c5 fd7f4424 20c5fd6f 442420c5  ......D$ ..oD$ .
 405a00 fd6f4c24 40c5f5db c0c5fd7f 442420c5  .oL$@.......D$ .
 405a10 fd6f4424 20c5fd6f 4c2440c5 f5dbc0c5  .oD$ ..oL$@.....
 405a20 fd7f4424 20c5fd6f 442420c5 fd6f4c24  ..D$ ..oD$ ..oL$
 405a30 40c5f5db c0c5fd7f 442420c5 fd6f4424  @.......D$ ..oD$
 405a40 20c5fd6f 4c2440c5 f5dbc0c5 fd7f4424   ..oL$@.......D$
 405a50 20c5fd6f 442420c5 fd6f4c24 40c5f5db   ..oD$ ..oL$@...
 405a60 c0c5fd7f 442420c5 fd6f4424 20c5fd6f  ....D$ ..oD$ ..o
 405a70 4c2440c5 f5dbc0c5 fd7f4424 20c5fd6f  L$@.......D$ ..o
 405a80 442420c5 fd6f4c24 40c5f5db c0c5fd7f  D$ ..oL$@.......
 405a90 442420c5 fd6f4424 20c5fd6f 4c2440c5  D$ ..oD$ ..oL$@.
 405aa0 f5dbc0c5 fd7f4424 20c5fd6f 442420c5  ......D$ ..oD$ .
 405ab0 fd6f4c24 40c5f5db c0c5fd7f 442420c5  .oL$@.......D$ .
 405ac0 fd6f4424 20c5fd6f 4c2440c5 f5dbc0c5  .oD$ ..oL$@.....
 405ad0 fd7f4424 20c5fd6f 442420c5 fd6f4c24  ..D$ ..oD$ ..oL$
 405ae0 40c5f5db c0c5fd7f 442420c5 fd6f4424  @.......D$ ..oD$
 405af0 20c5fd6f 4c2440c5 f5dbc0c5 fd7f4424   ..oL$@.......D$
 405b00 20c5fd6f 442420c5 fd6f4c24 40c5f5db   ..oD$ ..oL$@...
 405b10 c0c5fd7f 442420c5 fd6f4424 20c5fd6f  ....D$ ..oD$ ..o
 405b20 4c2440c5 f5dbc0c5 fd7f4424 20c5fd6f  L$@.......D$ ..o
 405b30 442420c5 fd6f4c24 40c5f5db c0c5fd7f  D$ ..oL$@.......
 405b40 442420c5 fd6f4424 20c5fd6f 4c2440c5  D$ ..oD$ ..oL$@.
 405b50 f5dbc0c5 fd7f4424 20c5fd6f 442420c5  ......D$ ..oD$ .
 405b60 fd6f4c24 40c5f5db c0c5fd7f 442420c5  .oL$@.......D$ .
 405b70 fd6f4424 20c5fd6f 4c2440c5 f5dbc0c5  .oD$ ..oL$@.....
 405b80 fd7f4424 20c5fd6f 442420c5 fd6f4c24  ..D$ ..oD$ ..oL$
 405b90 40c5f5db c0c5fd7f 442420c5 fd6f4424  @.......D$ ..oD$
 405ba0 20c5fd6f 4c2440c5 f5dbc0c5 fd7f4424   ..oL$@.......D$
 405bb0 20c5fd6f 442420c5 fd6f4c24 40c5f5db   ..oD$ ..oL$@...
 405bc0 c0c5fd7f 4424200f 314889d1 4c89c289  ....D$ .1H..L...
 405bd0 c048c1e1 2048c1e2 204809c1 4809f248  .H.. H.. H..H..H
 405be0 29d14801 cb83ef01 0f85e2a9 ffff488b  ).H...........H.
 405bf0 0424c5fd 6f442420 4531e4c5 fd7f00c5  .$..oD$ E1......
 405c00 f877488b 0424bf90 5e40004a 8b342031  .wH..$..^@.J.4 1
 405c10 c04983c4 08e836a8 ffff4983 fc2075e2  .I....6...I.. u.
 405c20 31c04889 debfa85e 4000e821 a8ffff48  1.H....^@..!...H
 405c30 85db782f c4e1fb2a c3c5fb59 051f0300  ..x/...*...Y....
 405c40 00bf965e 4000b801 000000c5 fb5e0515  ...^@........^..
 405c50 030000e8 f8a7ffff 488d65f0 31c05b41  ........H.e.1.[A
 405c60 5c5dc348 89d883e3 0148d1e8 4809d8c4  \].H.....H..H...
 405c70 e1fb2ac0 c5fb58c0 ebbf488d 48404839  ..*...X...H.H@H9
 405c80 ca0f8369 a8ffff48 c7020000 000048c7  ...i...H......H.
 405c90 00000000 0048c742 080f0000 0048c740  .....H.B.....H.@
 405ca0 080e0000 0048c742 101e0000 0048c740  .....H.B.....H.@
 405cb0 101c0000 0048c742 182d0000 0048c740  .....H.B.-...H.@
 405cc0 182a0000 0048c742 203c0000 0048c740  .*...H.B <...H.@
 405cd0 20380000 0048c742 284b0000 0048c740   8...H.B(K...H.@
 405ce0 28460000 0048c742 305a0000 0048c740  (F...H.B0Z...H.@
 405cf0 30540000 0048c742 38690000 0048c740  0T...H.B8i...H.@
 405d00 38620000 00e934a8 ffff31ed 4989d15e  8b....4...1.I..^
 405d10 4889e248 83e4f050 5449c7c0 705e4000  H..H...PTI..p^@.
 405d20 48c7c100 5e400048 c7c79004 4000e82d  H...^@.H....@..-
 405d30 a7fffff4 662e0f1f 84000000 00006690  ....f.........f.
 405d40 b8477060 0055482d 40706000 4883f80e  .Gp`.UH-@p`.H...
 405d50 4889e577 025dc3b8 00000000 4885c074  H..w.]......H..t
 405d60 f45dbf40 706000ff e00f1f80 00000000  .].@p`..........
 405d70 b8407060 0055482d 40706000 48c1f803  .@p`.UH-@p`.H...
 405d80 4889e548 89c248c1 ea3f4801 d048d1f8  H..H..H..?H..H..
 405d90 75025dc3 ba000000 004885d2 74f45d48  u.]......H..t.]H
 405da0 89c6bf40 706000ff e20f1f80 00000000  ...@p`..........
 405db0 803d8512 20000075 11554889 e5e87eff  .=.. ..u.UH...~.
 405dc0 ffff5dc6 05721220 0001f3c3 0f1f4000  ..]..r. ......@.
 405dd0 48833d48 10200000 741eb800 00000048  H.=H. ..t......H
 405de0 85c07414 55bf206e 60004889 e5ffd05d  ..t.U. n`.H....]
 405df0 e97bffff ff0f1f00 e973ffff ff0f1f00  .{.......s......
 405e00 41574189 ff415649 89f64155 4989d541  AWA..AVI..AUI..A
 405e10 544c8d25 f80f2000 55488d2d f80f2000  TL.%.. .UH.-.. .
 405e20 534c29e5 31db48c1 fd034883 ec08e8ed  SL).1.H...H.....
 405e30 a5ffff48 85ed741e 0f1f8400 00000000  ...H..t.........
 405e40 4c89ea4c 89f64489 ff41ff14 dc4883c3  L..L..D..A...H..
 405e50 014839eb 75ea4883 c4085b5d 415c415d  .H9.u.H...[]A\A]
 405e60 415e415f c390662e 0f1f8400 00000000  A^A_..f.........
 405e70 f3c3                                 ..              
Contents of section .fini:
 405e74 4883ec08 4883c408 c3                 H...H....       
Contents of section .rodata:
 405e80 01000200 00000000 00000000 00000000  ................
 405e90 256c6c64 20004c61 74656e63 793a2025  %lld .Latency: %
 405ea0 6c660a0d 00000000 52445453 43204261  lf......RDTSC Ba
 405eb0 73652043 79636c65 73205461 6b656e20  se Cycles Taken 
 405ec0 666f7220 53494d44 5f414e44 3a20256c  for SIMD_AND: %l
 405ed0 6c750a0d 00000000 00000000 00000000  lu..............
 405ee0 00000000 00000000 0f000000 00000000  ................
 405ef0 1e000000 00000000 2d000000 00000000  ........-.......
 405f00 3c000000 00000000 4b000000 00000000  <.......K.......
 405f10 5a000000 00000000 69000000 00000000  Z.......i.......
 405f20 00000000 00000000 0e000000 00000000  ................
 405f30 1c000000 00000000 2a000000 00000000  ........*.......
 405f40 38000000 00000000 46000000 00000000  8.......F.......
 405f50 54000000 00000000 62000000 00000000  T.......b.......
 405f60 abaaaaaa aaaaf63f 00000000 006af840  .......?.....j.@
Contents of section .eh_frame_hdr:
 405f70 011b033b 34000000 05000000 d0a4ffff  ...;4...........
 405f80 80000000 20a5ffff a8000000 9afdffff  .... ...........
 405f90 50000000 90feffff d0000000 00ffffff  P...............
 405fa0 18010000                             ....            
Contents of section .eh_frame:
 405fa8 14000000 00000000 017a5200 01781001  .........zR..x..
 405fb8 1b0c0708 90010710 14000000 1c000000  ................
 405fc8 42fdffff 2a000000 00000000 00000000  B...*...........
 405fd8 14000000 00000000 017a5200 01781001  .........zR..x..
 405fe8 1b0c0708 90010000 24000000 1c000000  ........$.......
 405ff8 48a4ffff 50000000 000e1046 0e184a0f  H...P......F..J.
 406008 0b770880 003f1a3b 2a332422 00000000  .w...?.;*3$"....
 406018 24000000 44000000 70a4ffff 7a580000  $...D...p...zX..
 406028 00410e10 86024d0d 064b8c03 830403b9  .A....M..K......
 406038 570a0c07 08410b00 44000000 6c000000  W....A..D...l...
 406048 b8fdffff 65000000 00420e10 8f02450e  ....e....B....E.
 406058 188e0345 0e208d04 450e288c 05480e30  ...E. ..E.(..H.0
 406068 8606480e 3883074d 0e406c0e 38410e30  ..H.8..M.@l.8A.0
 406078 410e2842 0e20420e 18420e10 420e0800  A.(B. B..B..B...
 406088 14000000 b4000000 e0fdffff 02000000  ................
 406098 00000000 00000000 00000000           ............    
Contents of section .init_array:
 606e10 d05d4000 00000000                    .]@.....        
Contents of section .fini_array:
 606e18 b05d4000 00000000                    .]@.....        
Contents of section .jcr:
 606e20 00000000 00000000                    ........        
Contents of section .dynamic:
 606e28 01000000 00000000 01000000 00000000  ................
 606e38 0c000000 00000000 20044000 00000000  ........ .@.....
 606e48 0d000000 00000000 745e4000 00000000  ........t^@.....
 606e58 19000000 00000000 106e6000 00000000  .........n`.....
 606e68 1b000000 00000000 08000000 00000000  ................
 606e78 1a000000 00000000 186e6000 00000000  .........n`.....
 606e88 1c000000 00000000 08000000 00000000  ................
 606e98 f5feff6f 00000000 98024000 00000000  ...o......@.....
 606ea8 05000000 00000000 30034000 00000000  ........0.@.....
 606eb8 06000000 00000000 b8024000 00000000  ..........@.....
 606ec8 0a000000 00000000 4e000000 00000000  ........N.......
 606ed8 0b000000 00000000 18000000 00000000  ................
 606ee8 15000000 00000000 00000000 00000000  ................
 606ef8 03000000 00000000 00706000 00000000  .........p`.....
 606f08 02000000 00000000 60000000 00000000  ........`.......
 606f18 14000000 00000000 07000000 00000000  ................
 606f28 17000000 00000000 c0034000 00000000  ..........@.....
 606f38 07000000 00000000 a8034000 00000000  ..........@.....
 606f48 08000000 00000000 18000000 00000000  ................
 606f58 09000000 00000000 18000000 00000000  ................
 606f68 feffff6f 00000000 88034000 00000000  ...o......@.....
 606f78 ffffff6f 00000000 01000000 00000000  ...o............
 606f88 f0ffff6f 00000000 7e034000 00000000  ...o....~.@.....
 606f98 00000000 00000000 00000000 00000000  ................
 606fa8 00000000 00000000 00000000 00000000  ................
 606fb8 00000000 00000000 00000000 00000000  ................
 606fc8 00000000 00000000 00000000 00000000  ................
 606fd8 00000000 00000000 00000000 00000000  ................
 606fe8 00000000 00000000 00000000 00000000  ................
Contents of section .got:
 606ff8 00000000 00000000                    ........        
Contents of section .got.plt:
 607000 286e6000 00000000 00000000 00000000  (n`.............
 607010 00000000 00000000 56044000 00000000  ........V.@.....
 607020 66044000 00000000 76044000 00000000  f.@.....v.@.....
 607030 86044000 00000000                    ..@.....        
Contents of section .data:
 607038 00000000                             ....            
Contents of section .comment:
 0000 4743433a 2028474e 55292034 2e382e35  GCC: (GNU) 4.8.5
 0010 20323031 35303632 33202852 65642048   20150623 (Red H
 0020 61742034 2e382e35 2d343429 00        at 4.8.5-44).   

Disassembly of section .init:

0000000000400420 <_init>:
  400420:	48 83 ec 08          	sub    $0x8,%rsp
  400424:	48 8b 05 cd 6b 20 00 	mov    0x206bcd(%rip),%rax        # 606ff8 <__gmon_start__>
  40042b:	48 85 c0             	test   %rax,%rax
  40042e:	74 05                	je     400435 <_init+0x15>
  400430:	e8 3b 00 00 00       	callq  400470 <__gmon_start__@plt>
  400435:	48 83 c4 08          	add    $0x8,%rsp
  400439:	c3                   	retq   

Disassembly of section .plt:

0000000000400440 <.plt>:
  400440:	ff 35 c2 6b 20 00    	pushq  0x206bc2(%rip)        # 607008 <_GLOBAL_OFFSET_TABLE_+0x8>
  400446:	ff 25 c4 6b 20 00    	jmpq   *0x206bc4(%rip)        # 607010 <_GLOBAL_OFFSET_TABLE_+0x10>
  40044c:	0f 1f 40 00          	nopl   0x0(%rax)

0000000000400450 <printf@plt>:
  400450:	ff 25 c2 6b 20 00    	jmpq   *0x206bc2(%rip)        # 607018 <printf@GLIBC_2.2.5>
  400456:	68 00 00 00 00       	pushq  $0x0
  40045b:	e9 e0 ff ff ff       	jmpq   400440 <.plt>

0000000000400460 <__libc_start_main@plt>:
  400460:	ff 25 ba 6b 20 00    	jmpq   *0x206bba(%rip)        # 607020 <__libc_start_main@GLIBC_2.2.5>
  400466:	68 01 00 00 00       	pushq  $0x1
  40046b:	e9 d0 ff ff ff       	jmpq   400440 <.plt>

0000000000400470 <__gmon_start__@plt>:
  400470:	ff 25 b2 6b 20 00    	jmpq   *0x206bb2(%rip)        # 607028 <__gmon_start__>
  400476:	68 02 00 00 00       	pushq  $0x2
  40047b:	e9 c0 ff ff ff       	jmpq   400440 <.plt>

0000000000400480 <posix_memalign@plt>:
  400480:	ff 25 aa 6b 20 00    	jmpq   *0x206baa(%rip)        # 607030 <posix_memalign@GLIBC_2.2.5>
  400486:	68 03 00 00 00       	pushq  $0x3
  40048b:	e9 b0 ff ff ff       	jmpq   400440 <.plt>

Disassembly of section .text:

0000000000400490 <main>:
  400490:	55                   	push   %rbp
  400491:	ba 20 00 00 00       	mov    $0x20,%edx
  400496:	be 40 00 00 00       	mov    $0x40,%esi
  40049b:	48 89 e5             	mov    %rsp,%rbp
  40049e:	41 54                	push   %r12
  4004a0:	53                   	push   %rbx
  4004a1:	48 83 e4 e0          	and    $0xffffffffffffffe0,%rsp
  4004a5:	48 83 ec 60          	sub    $0x60,%rsp
  4004a9:	48 8d 7c 24 10       	lea    0x10(%rsp),%rdi
  4004ae:	e8 cd ff ff ff       	callq  400480 <posix_memalign@plt>
  4004b3:	48 8d 7c 24 18       	lea    0x18(%rsp),%rdi
  4004b8:	ba 20 00 00 00       	mov    $0x20,%edx
  4004bd:	be 40 00 00 00       	mov    $0x40,%esi
  4004c2:	e8 b9 ff ff ff       	callq  400480 <posix_memalign@plt>
  4004c7:	ba 20 00 00 00       	mov    $0x20,%edx
  4004cc:	be 40 00 00 00       	mov    $0x40,%esi
  4004d1:	48 89 e7             	mov    %rsp,%rdi
  4004d4:	e8 a7 ff ff ff       	callq  400480 <posix_memalign@plt>
  4004d9:	48 8b 54 24 10       	mov    0x10(%rsp),%rdx
  4004de:	48 8b 44 24 18       	mov    0x18(%rsp),%rax
  4004e3:	48 8d 4a 40          	lea    0x40(%rdx),%rcx
  4004e7:	48 39 c8             	cmp    %rcx,%rax
  4004ea:	0f 82 8a 57 00 00    	jb     405c7a <main+0x57ea>
  4004f0:	c5 fd 6f 05 e8 59 00 	vmovdqa 0x59e8(%rip),%ymm0        # 405ee0 <__dso_handle+0x58>
  4004f7:	00 
  4004f8:	c5 fa 7f 02          	vmovdqu %xmm0,(%rdx)
  4004fc:	c4 e3 7d 39 42 10 01 	vextracti128 $0x1,%ymm0,0x10(%rdx)
  400503:	c5 fd 6f 05 f5 59 00 	vmovdqa 0x59f5(%rip),%ymm0        # 405f00 <__dso_handle+0x78>
  40050a:	00 
  40050b:	c5 fa 7f 42 20       	vmovdqu %xmm0,0x20(%rdx)
  400510:	c4 e3 7d 39 42 30 01 	vextracti128 $0x1,%ymm0,0x30(%rdx)
  400517:	c5 fd 6f 05 01 5a 00 	vmovdqa 0x5a01(%rip),%ymm0        # 405f20 <__dso_handle+0x98>
  40051e:	00 
  40051f:	c5 fa 7f 00          	vmovdqu %xmm0,(%rax)
  400523:	c4 e3 7d 39 40 10 01 	vextracti128 $0x1,%ymm0,0x10(%rax)
  40052a:	c5 fd 6f 05 0e 5a 00 	vmovdqa 0x5a0e(%rip),%ymm0        # 405f40 <__dso_handle+0xb8>
  400531:	00 
  400532:	c5 fa 7f 40 20       	vmovdqu %xmm0,0x20(%rax)
  400537:	c4 e3 7d 39 40 30 01 	vextracti128 $0x1,%ymm0,0x30(%rax)
  40053e:	bf 64 00 00 00       	mov    $0x64,%edi
  400543:	31 db                	xor    %ebx,%ebx
  400545:	c5 f9 6e 62 08       	vmovd  0x8(%rdx),%xmm4
  40054a:	c5 f9 6e 6a 18       	vmovd  0x18(%rdx),%xmm5
  40054f:	c5 f9 6e 72 28       	vmovd  0x28(%rdx),%xmm6
  400554:	c5 f9 6e 7a 38       	vmovd  0x38(%rdx),%xmm7
  400559:	c4 e3 51 22 52 10 01 	vpinsrd $0x1,0x10(%rdx),%xmm5,%xmm2
  400560:	c5 f9 6e 68 18       	vmovd  0x18(%rax),%xmm5
  400565:	c4 e3 41 22 5a 30 01 	vpinsrd $0x1,0x30(%rdx),%xmm7,%xmm3
  40056c:	c5 f9 6e 78 38       	vmovd  0x38(%rax),%xmm7
  400571:	c4 e3 59 22 02 01    	vpinsrd $0x1,(%rdx),%xmm4,%xmm0
  400577:	c5 f9 6e 60 08       	vmovd  0x8(%rax),%xmm4
  40057c:	c4 e3 49 22 4a 20 01 	vpinsrd $0x1,0x20(%rdx),%xmm6,%xmm1
  400583:	c5 f9 6e 70 28       	vmovd  0x28(%rax),%xmm6
  400588:	c5 e9 6c c0          	vpunpcklqdq %xmm0,%xmm2,%xmm0
  40058c:	c4 e3 51 22 50 10 01 	vpinsrd $0x1,0x10(%rax),%xmm5,%xmm2
  400593:	c5 e1 6c c9          	vpunpcklqdq %xmm1,%xmm3,%xmm1
  400597:	c4 e3 41 22 58 30 01 	vpinsrd $0x1,0x30(%rax),%xmm7,%xmm3
  40059e:	c4 e3 75 38 c0 01    	vinserti128 $0x1,%xmm0,%ymm1,%ymm0
  4005a4:	c4 e3 49 22 48 20 01 	vpinsrd $0x1,0x20(%rax),%xmm6,%xmm1
  4005ab:	c5 fd 7f 44 24 20    	vmovdqa %ymm0,0x20(%rsp)
  4005b1:	c4 e3 59 22 00 01    	vpinsrd $0x1,(%rax),%xmm4,%xmm0
  4005b7:	c5 e1 6c c9          	vpunpcklqdq %xmm1,%xmm3,%xmm1
  4005bb:	c5 e9 6c c0          	vpunpcklqdq %xmm0,%xmm2,%xmm0
  4005bf:	c4 e3 75 38 c0 01    	vinserti128 $0x1,%xmm0,%ymm1,%ymm0
  4005c5:	c5 fd 7f 44 24 40    	vmovdqa %ymm0,0x40(%rsp)
  4005cb:	0f 1f 44 00 00       	nopl   0x0(%rax,%rax,1)
  4005d0:	0f 31                	rdtsc  
  4005d2:	c5 fd 6f 44 24 20    	vmovdqa 0x20(%rsp),%ymm0
  4005d8:	41 89 d0             	mov    %edx,%r8d
  4005db:	89 c6                	mov    %eax,%esi
  4005dd:	c5 fd 6f 4c 24 40    	vmovdqa 0x40(%rsp),%ymm1
  4005e3:	c5 f5 db c0          	vpand  %ymm0,%ymm1,%ymm0
  4005e7:	c5 fd 7f 44 24 20    	vmovdqa %ymm0,0x20(%rsp)
  4005ed:	c5 fd 6f 44 24 20    	vmovdqa 0x20(%rsp),%ymm0
  4005f3:	c5 fd 6f 4c 24 40    	vmovdqa 0x40(%rsp),%ymm1
  4005f9:	c5 f5 db c0          	vpand  %ymm0,%ymm1,%ymm0
  4005fd:	c5 fd 7f 44 24 20    	vmovdqa %ymm0,0x20(%rsp)
  400603:	c5 fd 6f 44 24 20    	vmovdqa 0x20(%rsp),%ymm0
  400609:	c5 fd 6f 4c 24 40    	vmovdqa 0x40(%rsp),%ymm1
  40060f:	c5 f5 db c0          	vpand  %ymm0,%ymm1,%ymm0
  400613:	c5 fd 7f 44 24 20    	vmovdqa %ymm0,0x20(%rsp)
  400619:	c5 fd 6f 44 24 20    	vmovdqa 0x20(%rsp),%ymm0
  40061f:	c5 fd 6f 4c 24 40    	vmovdqa 0x40(%rsp),%ymm1
  400625:	c5 f5 db c0          	vpand  %ymm0,%ymm1,%ymm0
  400629:	c5 fd 7f 44 24 20    	vmovdqa %ymm0,0x20(%rsp)
  40062f:	c5 fd 6f 44 24 20    	vmovdqa 0x20(%rsp),%ymm0
  400635:	c5 fd 6f 4c 24 40    	vmovdqa 0x40(%rsp),%ymm1
  40063b:	c5 f5 db c0          	vpand  %ymm0,%ymm1,%ymm0
  40063f:	c5 fd 7f 44 24 20    	vmovdqa %ymm0,0x20(%rsp)
  400645:	c5 fd 6f 44 24 20    	vmovdqa 0x20(%rsp),%ymm0
  40064b:	c5 fd 6f 4c 24 40    	vmovdqa 0x40(%rsp),%ymm1
  400651:	c5 f5 db c0          	vpand  %ymm0,%ymm1,%ymm0
  400655:	c5 fd 7f 44 24 20    	vmovdqa %ymm0,0x20(%rsp)
  40065b:	c5 fd 6f 44 24 20    	vmovdqa 0x20(%rsp),%ymm0
  400661:	c5 fd 6f 4c 24 40    	vmovdqa 0x40(%rsp),%ymm1
  400667:	c5 f5 db c0          	vpand  %ymm0,%ymm1,%ymm0
  40066b:	c5 fd 7f 44 24 20    	vmovdqa %ymm0,0x20(%rsp)
  400671:	c5 fd 6f 44 24 20    	vmovdqa 0x20(%rsp),%ymm0
  400677:	c5 fd 6f 4c 24 40    	vmovdqa 0x40(%rsp),%ymm1
  40067d:	c5 f5 db c0          	vpand  %ymm0,%ymm1,%ymm0
  400681:	c5 fd 7f 44 24 20    	vmovdqa %ymm0,0x20(%rsp)
  400687:	c5 fd 6f 44 24 20    	vmovdqa 0x20(%rsp),%ymm0
  40068d:	c5 fd 6f 4c 24 40    	vmovdqa 0x40(%rsp),%ymm1
  400693:	c5 f5 db c0          	vpand  %ymm0,%ymm1,%ymm0
  400697:	c5 fd 7f 44 24 20    	vmovdqa %ymm0,0x20(%rsp)
  40069d:	c5 fd 6f 44 24 20    	vmovdqa 0x20(%rsp),%ymm0
  4006a3:	c5 fd 6f 4c 24 40    	vmovdqa 0x40(%rsp),%ymm1
  4006a9:	c5 f5 db c0          	vpand  %ymm0,%ymm1,%ymm0
  4006ad:	c5 fd 7f 44 24 20    	vmovdqa %ymm0,0x20(%rsp)
  4006b3:	c5 fd 6f 44 24 20    	vmovdqa 0x20(%rsp),%ymm0
  4006b9:	c5 fd 6f 4c 24 40    	vmovdqa 0x40(%rsp),%ymm1
  4006bf:	c5 f5 db c0          	vpand  %ymm0,%ymm1,%ymm0
  4006c3:	c5 fd 7f 44 24 20    	vmovdqa %ymm0,0x20(%rsp)
  4006c9:	c5 fd 6f 44 24 20    	vmovdqa 0x20(%rsp),%ymm0
  4006cf:	c5 fd 6f 4c 24 40    	vmovdqa 0x40(%rsp),%ymm1
  4006d5:	c5 f5 db c0          	vpand  %ymm0,%ymm1,%ymm0
  4006d9:	c5 fd 7f 44 24 20    	vmovdqa %ymm0,0x20(%rsp)
  4006df:	c5 fd 6f 44 24 20    	vmovdqa 0x20(%rsp),%ymm0
  4006e5:	c5 fd 6f 4c 24 40    	vmovdqa 0x40(%rsp),%ymm1
  4006eb:	c5 f5 db c0          	vpand  %ymm0,%ymm1,%ymm0
  4006ef:	c5 fd 7f 44 24 20    	vmovdqa %ymm0,0x20(%rsp)
  4006f5:	c5 fd 6f 44 24 20    	vmovdqa 0x20(%rsp),%ymm0
  4006fb:	c5 fd 6f 4c 24 40    	vmovdqa 0x40(%rsp),%ymm1
  400701:	c5 f5 db c0          	vpand  %ymm0,%ymm1,%ymm0
  400705:	c5 fd 7f 44 24 20    	vmovdqa %ymm0,0x20(%rsp)
  40070b:	c5 fd 6f 44 24 20    	vmovdqa 0x20(%rsp),%ymm0
  400711:	c5 fd 6f 4c 24 40    	vmovdqa 0x40(%rsp),%ymm1
  400717:	c5 f5 db c0          	vpand  %ymm0,%ymm1,%ymm0
  40071b:	c5 fd 7f 44 24 20    	vmovdqa %ymm0,0x20(%rsp)
  400721:	c5 fd 6f 44 24 20    	vmovdqa 0x20(%rsp),%ymm0
  400727:	c5 fd 6f 4c 24 40    	vmovdqa 0x40(%rsp),%ymm1
  40072d:	c5 f5 db c0          	vpand  %ymm0,%ymm1,%ymm0
  400731:	c5 fd 7f 44 24 20    	vmovdqa %ymm0,0x20(%rsp)
  400737:	c5 fd 6f 44 24 20    	vmovdqa 0x20(%rsp),%ymm0
  40073d:	c5 fd 6f 4c 24 40    	vmovdqa 0x40(%rsp),%ymm1
  400743:	c5 f5 db c0          	vpand  %ymm0,%ymm1,%ymm0
  400747:	c5 fd 7f 44 24 20    	vmovdqa %ymm0,0x20(%rsp)
  40074d:	c5 fd 6f 44 24 20    	vmovdqa 0x20(%rsp),%ymm0
  400753:	c5 fd 6f 4c 24 40    	vmovdqa 0x40(%rsp),%ymm1
  400759:	c5 f5 db c0          	vpand  %ymm0,%ymm1,%ymm0
  40075d:	c5 fd 7f 44 24 20    	vmovdqa %ymm0,0x20(%rsp)
  400763:	c5 fd 6f 44 24 20    	vmovdqa 0x20(%rsp),%ymm0
  400769:	c5 fd 6f 4c 24 40    	vmovdqa 0x40(%rsp),%ymm1
  40076f:	c5 f5 db c0          	vpand  %ymm0,%ymm1,%ymm0
  400773:	c5 fd 7f 44 24 20    	vmovdqa %ymm0,0x20(%rsp)
  400779:	c5 fd 6f 44 24 20    	vmovdqa 0x20(%rsp),%ymm0
  40077f:	c5 fd 6f 4c 24 40    	vmovdqa 0x40(%rsp),%ymm1
  400785:	c5 f5 db c0          	vpand  %ymm0,%ymm1,%ymm0
  400789:	c5 fd 7f 44 24 20    	vmovdqa %ymm0,0x20(%rsp)
  40078f:	c5 fd 6f 44 24 20    	vmovdqa 0x20(%rsp),%ymm0
  400795:	c5 fd 6f 4c 24 40    	vmovdqa 0x40(%rsp),%ymm1
  40079b:	c5 f5 db c0          	vpand  %ymm0,%ymm1,%ymm0
  40079f:	c5 fd 7f 44 24 20    	vmovdqa %ymm0,0x20(%rsp)
  4007a5:	c5 fd 6f 44 24 20    	vmovdqa 0x20(%rsp),%ymm0
  4007ab:	c5 fd 6f 4c 24 40    	vmovdqa 0x40(%rsp),%ymm1
  4007b1:	c5 f5 db c0          	vpand  %ymm0,%ymm1,%ymm0
  4007b5:	c5 fd 7f 44 24 20    	vmovdqa %ymm0,0x20(%rsp)
  4007bb:	c5 fd 6f 44 24 20    	vmovdqa 0x20(%rsp),%ymm0
  4007c1:	c5 fd 6f 4c 24 40    	vmovdqa 0x40(%rsp),%ymm1
  4007c7:	c5 f5 db c0          	vpand  %ymm0,%ymm1,%ymm0
  4007cb:	c5 fd 7f 44 24 20    	vmovdqa %ymm0,0x20(%rsp)
  4007d1:	c5 fd 6f 44 24 20    	vmovdqa 0x20(%rsp),%ymm0
  4007d7:	c5 fd 6f 4c 24 40    	vmovdqa 0x40(%rsp),%ymm1
  4007dd:	c5 f5 db c0          	vpand  %ymm0,%ymm1,%ymm0
  4007e1:	c5 fd 7f 44 24 20    	vmovdqa %ymm0,0x20(%rsp)
  4007e7:	c5 fd 6f 44 24 20    	vmovdqa 0x20(%rsp),%ymm0
  4007ed:	c5 fd 6f 4c 24 40    	vmovdqa 0x40(%rsp),%ymm1
  4007f3:	c5 f5 db c0          	vpand  %ymm0,%ymm1,%ymm0
  4007f7:	c5 fd 7f 44 24 20    	vmovdqa %ymm0,0x20(%rsp)
  4007fd:	c5 fd 6f 44 24 20    	vmovdqa 0x20(%rsp),%ymm0
  400803:	c5 fd 6f 4c 24 40    	vmovdqa 0x40(%rsp),%ymm1
  400809:	c5 f5 db c0          	vpand  %ymm0,%ymm1,%ymm0
  40080d:	c5 fd 7f 44 24 20    	vmovdqa %ymm0,0x20(%rsp)
  400813:	c5 fd 6f 44 24 20    	vmovdqa 0x20(%rsp),%ymm0
  400819:	c5 fd 6f 4c 24 40    	vmovdqa 0x40(%rsp),%ymm1
  40081f:	c5 f5 db c0          	vpand  %ymm0,%ymm1,%ymm0
  400823:	c5 fd 7f 44 24 20    	vmovdqa %ymm0,0x20(%rsp)
  400829:	c5 fd 6f 44 24 20    	vmovdqa 0x20(%rsp),%ymm0
  40082f:	c5 fd 6f 4c 24 40    	vmovdqa 0x40(%rsp),%ymm1
  400835:	c5 f5 db c0          	vpand  %ymm0,%ymm1,%ymm0
  400839:	c5 fd 7f 44 24 20    	vmovdqa %ymm0,0x20(%rsp)
  40083f:	c5 fd 6f 44 24 20    	vmovdqa 0x20(%rsp),%ymm0
  400845:	c5 fd 6f 4c 24 40    	vmovdqa 0x40(%rsp),%ymm1
  40084b:	c5 f5 db c0          	vpand  %ymm0,%ymm1,%ymm0
  40084f:	c5 fd 7f 44 24 20    	vmovdqa %ymm0,0x20(%rsp)
  400855:	c5 fd 6f 44 24 20    	vmovdqa 0x20(%rsp),%ymm0
  40085b:	c5 fd 6f 4c 24 40    	vmovdqa 0x40(%rsp),%ymm1
  400861:	c5 f5 db c0          	vpand  %ymm0,%ymm1,%ymm0
  400865:	c5 fd 7f 44 24 20    	vmovdqa %ymm0,0x20(%rsp)
  40086b:	c5 fd 6f 44 24 20    	vmovdqa 0x20(%rsp),%ymm0
  400871:	c5 fd 6f 4c 24 40    	vmovdqa 0x40(%rsp),%ymm1
  400877:	c5 f5 db c0          	vpand  %ymm0,%ymm1,%ymm0
  40087b:	c5 fd 7f 44 24 20    	vmovdqa %ymm0,0x20(%rsp)
  400881:	c5 fd 6f 44 24 20    	vmovdqa 0x20(%rsp),%ymm0
  400887:	c5 fd 6f 4c 24 40    	vmovdqa 0x40(%rsp),%ymm1
  40088d:	c5 f5 db c0          	vpand  %ymm0,%ymm1,%ymm0
  400891:	c5 fd 7f 44 24 20    	vmovdqa %ymm0,0x20(%rsp)
  400897:	c5 fd 6f 44 24 20    	vmovdqa 0x20(%rsp),%ymm0
  40089d:	c5 fd 6f 4c 24 40    	vmovdqa 0x40(%rsp),%ymm1
  4008a3:	c5 f5 db c0          	vpand  %ymm0,%ymm1,%ymm0
  4008a7:	c5 fd 7f 44 24 20    	vmovdqa %ymm0,0x20(%rsp)
  4008ad:	c5 fd 6f 44 24 20    	vmovdqa 0x20(%rsp),%ymm0
  4008b3:	c5 fd 6f 4c 24 40    	vmovdqa 0x40(%rsp),%ymm1
  4008b9:	c5 f5 db c0          	vpand  %ymm0,%ymm1,%ymm0
  4008bd:	c5 fd 7f 44 24 20    	vmovdqa %ymm0,0x20(%rsp)
  4008c3:	c5 fd 6f 44 24 20    	vmovdqa 0x20(%rsp),%ymm0
  4008c9:	c5 fd 6f 4c 24 40    	vmovdqa 0x40(%rsp),%ymm1
  4008cf:	c5 f5 db c0          	vpand  %ymm0,%ymm1,%ymm0
  4008d3:	c5 fd 7f 44 24 20    	vmovdqa %ymm0,0x20(%rsp)
  4008d9:	c5 fd 6f 44 24 20    	vmovdqa 0x20(%rsp),%ymm0
  4008df:	c5 fd 6f 4c 24 40    	vmovdqa 0x40(%rsp),%ymm1
  4008e5:	c5 f5 db c0          	vpand  %ymm0,%ymm1,%ymm0
  4008e9:	c5 fd 7f 44 24 20    	vmovdqa %ymm0,0x20(%rsp)
  4008ef:	c5 fd 6f 44 24 20    	vmovdqa 0x20(%rsp),%ymm0
  4008f5:	c5 fd 6f 4c 24 40    	vmovdqa 0x40(%rsp),%ymm1
  4008fb:	c5 f5 db c0          	vpand  %ymm0,%ymm1,%ymm0
  4008ff:	c5 fd 7f 44 24 20    	vmovdqa %ymm0,0x20(%rsp)
  400905:	c5 fd 6f 44 24 20    	vmovdqa 0x20(%rsp),%ymm0
  40090b:	c5 fd 6f 4c 24 40    	vmovdqa 0x40(%rsp),%ymm1
  400911:	c5 f5 db c0          	vpand  %ymm0,%ymm1,%ymm0
  400915:	c5 fd 7f 44 24 20    	vmovdqa %ymm0,0x20(%rsp)
  40091b:	c5 fd 6f 44 24 20    	vmovdqa 0x20(%rsp),%ymm0
  400921:	c5 fd 6f 4c 24 40    	vmovdqa 0x40(%rsp),%ymm1
  400927:	c5 f5 db c0          	vpand  %ymm0,%ymm1,%ymm0
  40092b:	c5 fd 7f 44 24 20    	vmovdqa %ymm0,0x20(%rsp)
  400931:	c5 fd 6f 44 24 20    	vmovdqa 0x20(%rsp),%ymm0
  400937:	c5 fd 6f 4c 24 40    	vmovdqa 0x40(%rsp),%ymm1
  40093d:	c5 f5 db c0          	vpand  %ymm0,%ymm1,%ymm0
  400941:	c5 fd 7f 44 24 20    	vmovdqa %ymm0,0x20(%rsp)
  400947:	c5 fd 6f 44 24 20    	vmovdqa 0x20(%rsp),%ymm0
  40094d:	c5 fd 6f 4c 24 40    	vmovdqa 0x40(%rsp),%ymm1
  400953:	c5 f5 db c0          	vpand  %ymm0,%ymm1,%ymm0
  400957:	c5 fd 7f 44 24 20    	vmovdqa %ymm0,0x20(%rsp)
  40095d:	c5 fd 6f 44 24 20    	vmovdqa 0x20(%rsp),%ymm0
  400963:	c5 fd 6f 4c 24 40    	vmovdqa 0x40(%rsp),%ymm1
  400969:	c5 f5 db c0          	vpand  %ymm0,%ymm1,%ymm0
  40096d:	c5 fd 7f 44 24 20    	vmovdqa %ymm0,0x20(%rsp)
  400973:	c5 fd 6f 44 24 20    	vmovdqa 0x20(%rsp),%ymm0
  400979:	c5 fd 6f 4c 24 40    	vmovdqa 0x40(%rsp),%ymm1
  40097f:	c5 f5 db c0          	vpand  %ymm0,%ymm1,%ymm0
  400983:	c5 fd 7f 44 24 20    	vmovdqa %ymm0,0x20(%rsp)
  400989:	c5 fd 6f 44 24 20    	vmovdqa 0x20(%rsp),%ymm0
  40098f:	c5 fd 6f 4c 24 40    	vmovdqa 0x40(%rsp),%ymm1
  400995:	c5 f5 db c0          	vpand  %ymm0,%ymm1,%ymm0
  400999:	c5 fd 7f 44 24 20    	vmovdqa %ymm0,0x20(%rsp)
  40099f:	c5 fd 6f 44 24 20    	vmovdqa 0x20(%rsp),%ymm0
  4009a5:	c5 fd 6f 4c 24 40    	vmovdqa 0x40(%rsp),%ymm1
  4009ab:	c5 f5 db c0          	vpand  %ymm0,%ymm1,%ymm0
  4009af:	c5 fd 7f 44 24 20    	vmovdqa %ymm0,0x20(%rsp)
  4009b5:	c5 fd 6f 44 24 20    	vmovdqa 0x20(%rsp),%ymm0
  4009bb:	c5 fd 6f 4c 24 40    	vmovdqa 0x40(%rsp),%ymm1
  4009c1:	c5 f5 db c0          	vpand  %ymm0,%ymm1,%ymm0
  4009c5:	c5 fd 7f 44 24 20    	vmovdqa %ymm0,0x20(%rsp)
  4009cb:	c5 fd 6f 44 24 20    	vmovdqa 0x20(%rsp),%ymm0
  4009d1:	c5 fd 6f 4c 24 40    	vmovdqa 0x40(%rsp),%ymm1
  4009d7:	c5 f5 db c0          	vpand  %ymm0,%ymm1,%ymm0
  4009db:	c5 fd 7f 44 24 20    	vmovdqa %ymm0,0x20(%rsp)
  4009e1:	c5 fd 6f 44 24 20    	vmovdqa 0x20(%rsp),%ymm0
  4009e7:	c5 fd 6f 4c 24 40    	vmovdqa 0x40(%rsp),%ymm1
  4009ed:	c5 f5 db c0          	vpand  %ymm0,%ymm1,%ymm0
  4009f1:	c5 fd 7f 44 24 20    	vmovdqa %ymm0,0x20(%rsp)
  4009f7:	c5 fd 6f 44 24 20    	vmovdqa 0x20(%rsp),%ymm0
  4009fd:	c5 fd 6f 4c 24 40    	vmovdqa 0x40(%rsp),%ymm1
  400a03:	c5 f5 db c0          	vpand  %ymm0,%ymm1,%ymm0
  400a07:	c5 fd 7f 44 24 20    	vmovdqa %ymm0,0x20(%rsp)
  400a0d:	c5 fd 6f 44 24 20    	vmovdqa 0x20(%rsp),%ymm0
  400a13:	c5 fd 6f 4c 24 40    	vmovdqa 0x40(%rsp),%ymm1
  400a19:	c5 f5 db c0          	vpand  %ymm0,%ymm1,%ymm0
  400a1d:	c5 fd 7f 44 24 20    	vmovdqa %ymm0,0x20(%rsp)
  400a23:	c5 fd 6f 44 24 20    	vmovdqa 0x20(%rsp),%ymm0
  400a29:	c5 fd 6f 4c 24 40    	vmovdqa 0x40(%rsp),%ymm1
  400a2f:	c5 f5 db c0          	vpand  %ymm0,%ymm1,%ymm0
  400a33:	c5 fd 7f 44 24 20    	vmovdqa %ymm0,0x20(%rsp)
  400a39:	c5 fd 6f 44 24 20    	vmovdqa 0x20(%rsp),%ymm0
  400a3f:	c5 fd 6f 4c 24 40    	vmovdqa 0x40(%rsp),%ymm1
  400a45:	c5 f5 db c0          	vpand  %ymm0,%ymm1,%ymm0
  400a49:	c5 fd 7f 44 24 20    	vmovdqa %ymm0,0x20(%rsp)
  400a4f:	c5 fd 6f 44 24 20    	vmovdqa 0x20(%rsp),%ymm0
  400a55:	c5 fd 6f 4c 24 40    	vmovdqa 0x40(%rsp),%ymm1
  400a5b:	c5 f5 db c0          	vpand  %ymm0,%ymm1,%ymm0
  400a5f:	c5 fd 7f 44 24 20    	vmovdqa %ymm0,0x20(%rsp)
  400a65:	c5 fd 6f 44 24 20    	vmovdqa 0x20(%rsp),%ymm0
  400a6b:	c5 fd 6f 4c 24 40    	vmovdqa 0x40(%rsp),%ymm1
  400a71:	c5 f5 db c0          	vpand  %ymm0,%ymm1,%ymm0
  400a75:	c5 fd 7f 44 24 20    	vmovdqa %ymm0,0x20(%rsp)
  400a7b:	c5 fd 6f 44 24 20    	vmovdqa 0x20(%rsp),%ymm0
  400a81:	c5 fd 6f 4c 24 40    	vmovdqa 0x40(%rsp),%ymm1
  400a87:	c5 f5 db c0          	vpand  %ymm0,%ymm1,%ymm0
  400a8b:	c5 fd 7f 44 24 20    	vmovdqa %ymm0,0x20(%rsp)
  400a91:	c5 fd 6f 44 24 20    	vmovdqa 0x20(%rsp),%ymm0
  400a97:	c5 fd 6f 4c 24 40    	vmovdqa 0x40(%rsp),%ymm1
  400a9d:	c5 f5 db c0          	vpand  %ymm0,%ymm1,%ymm0
  400aa1:	c5 fd 7f 44 24 20    	vmovdqa %ymm0,0x20(%rsp)
  400aa7:	c5 fd 6f 44 24 20    	vmovdqa 0x20(%rsp),%ymm0
  400aad:	c5 fd 6f 4c 24 40    	vmovdqa 0x40(%rsp),%ymm1
  400ab3:	c5 f5 db c0          	vpand  %ymm0,%ymm1,%ymm0
  400ab7:	c5 fd 7f 44 24 20    	vmovdqa %ymm0,0x20(%rsp)
  400abd:	c5 fd 6f 44 24 20    	vmovdqa 0x20(%rsp),%ymm0
  400ac3:	c5 fd 6f 4c 24 40    	vmovdqa 0x40(%rsp),%ymm1
  400ac9:	c5 f5 db c0          	vpand  %ymm0,%ymm1,%ymm0
  400acd:	c5 fd 7f 44 24 20    	vmovdqa %ymm0,0x20(%rsp)
  400ad3:	c5 fd 6f 44 24 20    	vmovdqa 0x20(%rsp),%ymm0
  400ad9:	c5 fd 6f 4c 24 40    	vmovdqa 0x40(%rsp),%ymm1
  400adf:	c5 f5 db c0          	vpand  %ymm0,%ymm1,%ymm0
  400ae3:	c5 fd 7f 44 24 20    	vmovdqa %ymm0,0x20(%rsp)
  400ae9:	c5 fd 6f 44 24 20    	vmovdqa 0x20(%rsp),%ymm0
  400aef:	c5 fd 6f 4c 24 40    	vmovdqa 0x40(%rsp),%ymm1
  400af5:	c5 f5 db c0          	vpand  %ymm0,%ymm1,%ymm0
  400af9:	c5 fd 7f 44 24 20    	vmovdqa %ymm0,0x20(%rsp)
  400aff:	c5 fd 6f 44 24 20    	vmovdqa 0x20(%rsp),%ymm0
  400b05:	c5 fd 6f 4c 24 40    	vmovdqa 0x40(%rsp),%ymm1
  400b0b:	c5 f5 db c0          	vpand  %ymm0,%ymm1,%ymm0
  400b0f:	c5 fd 7f 44 24 20    	vmovdqa %ymm0,0x20(%rsp)
  400b15:	c5 fd 6f 44 24 20    	vmovdqa 0x20(%rsp),%ymm0
  400b1b:	c5 fd 6f 4c 24 40    	vmovdqa 0x40(%rsp),%ymm1
  400b21:	c5 f5 db c0          	vpand  %ymm0,%ymm1,%ymm0
  400b25:	c5 fd 7f 44 24 20    	vmovdqa %ymm0,0x20(%rsp)
  400b2b:	c5 fd 6f 44 24 20    	vmovdqa 0x20(%rsp),%ymm0
  400b31:	c5 fd 6f 4c 24 40    	vmovdqa 0x40(%rsp),%ymm1
  400b37:	c5 f5 db c0          	vpand  %ymm0,%ymm1,%ymm0
  400b3b:	c5 fd 7f 44 24 20    	vmovdqa %ymm0,0x20(%rsp)
  400b41:	c5 fd 6f 44 24 20    	vmovdqa 0x20(%rsp),%ymm0
  400b47:	c5 fd 6f 4c 24 40    	vmovdqa 0x40(%rsp),%ymm1
  400b4d:	c5 f5 db c0          	vpand  %ymm0,%ymm1,%ymm0
  400b51:	c5 fd 7f 44 24 20    	vmovdqa %ymm0,0x20(%rsp)
  400b57:	c5 fd 6f 44 24 20    	vmovdqa 0x20(%rsp),%ymm0
  400b5d:	c5 fd 6f 4c 24 40    	vmovdqa 0x40(%rsp),%ymm1
  400b63:	c5 f5 db c0          	vpand  %ymm0,%ymm1,%ymm0
  400b67:	c5 fd 7f 44 24 20    	vmovdqa %ymm0,0x20(%rsp)
  400b6d:	c5 fd 6f 44 24 20    	vmovdqa 0x20(%rsp),%ymm0
  400b73:	c5 fd 6f 4c 24 40    	vmovdqa 0x40(%rsp),%ymm1
  400b79:	c5 f5 db c0          	vpand  %ymm0,%ymm1,%ymm0
  400b7d:	c5 fd 7f 44 24 20    	vmovdqa %ymm0,0x20(%rsp)
  400b83:	c5 fd 6f 44 24 20    	vmovdqa 0x20(%rsp),%ymm0
  400b89:	c5 fd 6f 4c 24 40    	vmovdqa 0x40(%rsp),%ymm1
  400b8f:	c5 f5 db c0          	vpand  %ymm0,%ymm1,%ymm0
  400b93:	c5 fd 7f 44 24 20    	vmovdqa %ymm0,0x20(%rsp)
  400b99:	c5 fd 6f 44 24 20    	vmovdqa 0x20(%rsp),%ymm0
  400b9f:	c5 fd 6f 4c 24 40    	vmovdqa 0x40(%rsp),%ymm1
  400ba5:	c5 f5 db c0          	vpand  %ymm0,%ymm1,%ymm0
  400ba9:	c5 fd 7f 44 24 20    	vmovdqa %ymm0,0x20(%rsp)
  400baf:	c5 fd 6f 44 24 20    	vmovdqa 0x20(%rsp),%ymm0
  400bb5:	c5 fd 6f 4c 24 40    	vmovdqa 0x40(%rsp),%ymm1
  400bbb:	c5 f5 db c0          	vpand  %ymm0,%ymm1,%ymm0
  400bbf:	c5 fd 7f 44 24 20    	vmovdqa %ymm0,0x20(%rsp)
  400bc5:	c5 fd 6f 44 24 20    	vmovdqa 0x20(%rsp),%ymm0
  400bcb:	c5 fd 6f 4c 24 40    	vmovdqa 0x40(%rsp),%ymm1
  400bd1:	c5 f5 db c0          	vpand  %ymm0,%ymm1,%ymm0
  400bd5:	c5 fd 7f 44 24 20    	vmovdqa %ymm0,0x20(%rsp)
  400bdb:	c5 fd 6f 44 24 20    	vmovdqa 0x20(%rsp),%ymm0
  400be1:	c5 fd 6f 4c 24 40    	vmovdqa 0x40(%rsp),%ymm1
  400be7:	c5 f5 db c0          	vpand  %ymm0,%ymm1,%ymm0
  400beb:	c5 fd 7f 44 24 20    	vmovdqa %ymm0,0x20(%rsp)
  400bf1:	c5 fd 6f 44 24 20    	vmovdqa 0x20(%rsp),%ymm0
  400bf7:	c5 fd 6f 4c 24 40    	vmovdqa 0x40(%rsp),%ymm1
  400bfd:	c5 f5 db c0          	vpand  %ymm0,%ymm1,%ymm0
  400c01:	c5 fd 7f 44 24 20    	vmovdqa %ymm0,0x20(%rsp)
  400c07:	c5 fd 6f 44 24 20    	vmovdqa 0x20(%rsp),%ymm0
  400c0d:	c5 fd 6f 4c 24 40    	vmovdqa 0x40(%rsp),%ymm1
  400c13:	c5 f5 db c0          	vpand  %ymm0,%ymm1,%ymm0
  400c17:	c5 fd 7f 44 24 20    	vmovdqa %ymm0,0x20(%rsp)
  400c1d:	c5 fd 6f 44 24 20    	vmovdqa 0x20(%rsp),%ymm0
  400c23:	c5 fd 6f 4c 24 40    	vmovdqa 0x40(%rsp),%ymm1
  400c29:	c5 f5 db c0          	vpand  %ymm0,%ymm1,%ymm0
  400c2d:	c5 fd 7f 44 24 20    	vmovdqa %ymm0,0x20(%rsp)
  400c33:	c5 fd 6f 44 24 20    	vmovdqa 0x20(%rsp),%ymm0
  400c39:	c5 fd 6f 4c 24 40    	vmovdqa 0x40(%rsp),%ymm1
  400c3f:	c5 f5 db c0          	vpand  %ymm0,%ymm1,%ymm0
  400c43:	c5 fd 7f 44 24 20    	vmovdqa %ymm0,0x20(%rsp)
  400c49:	c5 fd 6f 44 24 20    	vmovdqa 0x20(%rsp),%ymm0
  400c4f:	c5 fd 6f 4c 24 40    	vmovdqa 0x40(%rsp),%ymm1
  400c55:	c5 f5 db c0          	vpand  %ymm0,%ymm1,%ymm0
  400c59:	c5 fd 7f 44 24 20    	vmovdqa %ymm0,0x20(%rsp)
  400c5f:	c5 fd 6f 44 24 20    	vmovdqa 0x20(%rsp),%ymm0
  400c65:	c5 fd 6f 4c 24 40    	vmovdqa 0x40(%rsp),%ymm1
  400c6b:	c5 f5 db c0          	vpand  %ymm0,%ymm1,%ymm0
  400c6f:	c5 fd 7f 44 24 20    	vmovdqa %ymm0,0x20(%rsp)
  400c75:	c5 fd 6f 44 24 20    	vmovdqa 0x20(%rsp),%ymm0
  400c7b:	c5 fd 6f 4c 24 40    	vmovdqa 0x40(%rsp),%ymm1
  400c81:	c5 f5 db c0          	vpand  %ymm0,%ymm1,%ymm0
  400c85:	c5 fd 7f 44 24 20    	vmovdqa %ymm0,0x20(%rsp)
  400c8b:	c5 fd 6f 44 24 20    	vmovdqa 0x20(%rsp),%ymm0
  400c91:	c5 fd 6f 4c 24 40    	vmovdqa 0x40(%rsp),%ymm1
  400c97:	c5 f5 db c0          	vpand  %ymm0,%ymm1,%ymm0
  400c9b:	c5 fd 7f 44 24 20    	vmovdqa %ymm0,0x20(%rsp)
  400ca1:	c5 fd 6f 44 24 20    	vmovdqa 0x20(%rsp),%ymm0
  400ca7:	c5 fd 6f 4c 24 40    	vmovdqa 0x40(%rsp),%ymm1
  400cad:	c5 f5 db c0          	vpand  %ymm0,%ymm1,%ymm0
  400cb1:	c5 fd 7f 44 24 20    	vmovdqa %ymm0,0x20(%rsp)
  400cb7:	c5 fd 6f 44 24 20    	vmovdqa 0x20(%rsp),%ymm0
  400cbd:	c5 fd 6f 4c 24 40    	vmovdqa 0x40(%rsp),%ymm1
  400cc3:	c5 f5 db c0          	vpand  %ymm0,%ymm1,%ymm0
  400cc7:	c5 fd 7f 44 24 20    	vmovdqa %ymm0,0x20(%rsp)
  400ccd:	c5 fd 6f 44 24 20    	vmovdqa 0x20(%rsp),%ymm0
  400cd3:	c5 fd 6f 4c 24 40    	vmovdqa 0x40(%rsp),%ymm1
  400cd9:	c5 f5 db c0          	vpand  %ymm0,%ymm1,%ymm0
  400cdd:	c5 fd 7f 44 24 20    	vmovdqa %ymm0,0x20(%rsp)
  400ce3:	c5 fd 6f 44 24 20    	vmovdqa 0x20(%rsp),%ymm0
  400ce9:	c5 fd 6f 4c 24 40    	vmovdqa 0x40(%rsp),%ymm1
  400cef:	c5 f5 db c0          	vpand  %ymm0,%ymm1,%ymm0
  400cf3:	c5 fd 7f 44 24 20    	vmovdqa %ymm0,0x20(%rsp)
  400cf9:	c5 fd 6f 44 24 20    	vmovdqa 0x20(%rsp),%ymm0
  400cff:	c5 fd 6f 4c 24 40    	vmovdqa 0x40(%rsp),%ymm1
  400d05:	c5 f5 db c0          	vpand  %ymm0,%ymm1,%ymm0
  400d09:	c5 fd 7f 44 24 20    	vmovdqa %ymm0,0x20(%rsp)
  400d0f:	c5 fd 6f 44 24 20    	vmovdqa 0x20(%rsp),%ymm0
  400d15:	c5 fd 6f 4c 24 40    	vmovdqa 0x40(%rsp),%ymm1
  400d1b:	c5 f5 db c0          	vpand  %ymm0,%ymm1,%ymm0
  400d1f:	c5 fd 7f 44 24 20    	vmovdqa %ymm0,0x20(%rsp)
  400d25:	c5 fd 6f 44 24 20    	vmovdqa 0x20(%rsp),%ymm0
  400d2b:	c5 fd 6f 4c 24 40    	vmovdqa 0x40(%rsp),%ymm1
  400d31:	c5 f5 db c0          	vpand  %ymm0,%ymm1,%ymm0
  400d35:	c5 fd 7f 44 24 20    	vmovdqa %ymm0,0x20(%rsp)
  400d3b:	c5 fd 6f 44 24 20    	vmovdqa 0x20(%rsp),%ymm0
  400d41:	c5 fd 6f 4c 24 40    	vmovdqa 0x40(%rsp),%ymm1
  400d47:	c5 f5 db c0          	vpand  %ymm0,%ymm1,%ymm0
  400d4b:	c5 fd 7f 44 24 20    	vmovdqa %ymm0,0x20(%rsp)
  400d51:	c5 fd 6f 44 24 20    	vmovdqa 0x20(%rsp),%ymm0
  400d57:	c5 fd 6f 4c 24 40    	vmovdqa 0x40(%rsp),%ymm1
  400d5d:	c5 f5 db c0          	vpand  %ymm0,%ymm1,%ymm0
  400d61:	c5 fd 7f 44 24 20    	vmovdqa %ymm0,0x20(%rsp)
  400d67:	c5 fd 6f 44 24 20    	vmovdqa 0x20(%rsp),%ymm0
  400d6d:	c5 fd 6f 4c 24 40    	vmovdqa 0x40(%rsp),%ymm1
  400d73:	c5 f5 db c0          	vpand  %ymm0,%ymm1,%ymm0
  400d77:	c5 fd 7f 44 24 20    	vmovdqa %ymm0,0x20(%rsp)
  400d7d:	c5 fd 6f 44 24 20    	vmovdqa 0x20(%rsp),%ymm0
  400d83:	c5 fd 6f 4c 24 40    	vmovdqa 0x40(%rsp),%ymm1
  400d89:	c5 f5 db c0          	vpand  %ymm0,%ymm1,%ymm0
  400d8d:	c5 fd 7f 44 24 20    	vmovdqa %ymm0,0x20(%rsp)
  400d93:	c5 fd 6f 44 24 20    	vmovdqa 0x20(%rsp),%ymm0
  400d99:	c5 fd 6f 4c 24 40    	vmovdqa 0x40(%rsp),%ymm1
  400d9f:	c5 f5 db c0          	vpand  %ymm0,%ymm1,%ymm0
  400da3:	c5 fd 7f 44 24 20    	vmovdqa %ymm0,0x20(%rsp)
  400da9:	c5 fd 6f 44 24 20    	vmovdqa 0x20(%rsp),%ymm0
  400daf:	c5 fd 6f 4c 24 40    	vmovdqa 0x40(%rsp),%ymm1
  400db5:	c5 f5 db c0          	vpand  %ymm0,%ymm1,%ymm0
  400db9:	c5 fd 7f 44 24 20    	vmovdqa %ymm0,0x20(%rsp)
  400dbf:	c5 fd 6f 44 24 20    	vmovdqa 0x20(%rsp),%ymm0
  400dc5:	c5 fd 6f 4c 24 40    	vmovdqa 0x40(%rsp),%ymm1
  400dcb:	c5 f5 db c0          	vpand  %ymm0,%ymm1,%ymm0
  400dcf:	c5 fd 7f 44 24 20    	vmovdqa %ymm0,0x20(%rsp)
  400dd5:	c5 fd 6f 44 24 20    	vmovdqa 0x20(%rsp),%ymm0
  400ddb:	c5 fd 6f 4c 24 40    	vmovdqa 0x40(%rsp),%ymm1
  400de1:	c5 f5 db c0          	vpand  %ymm0,%ymm1,%ymm0
  400de5:	c5 fd 7f 44 24 20    	vmovdqa %ymm0,0x20(%rsp)
  400deb:	c5 fd 6f 44 24 20    	vmovdqa 0x20(%rsp),%ymm0
  400df1:	c5 fd 6f 4c 24 40    	vmovdqa 0x40(%rsp),%ymm1
  400df7:	c5 f5 db c0          	vpand  %ymm0,%ymm1,%ymm0
  400dfb:	c5 fd 7f 44 24 20    	vmovdqa %ymm0,0x20(%rsp)
  400e01:	c5 fd 6f 44 24 20    	vmovdqa 0x20(%rsp),%ymm0
  400e07:	c5 fd 6f 4c 24 40    	vmovdqa 0x40(%rsp),%ymm1
  400e0d:	c5 f5 db c0          	vpand  %ymm0,%ymm1,%ymm0
  400e11:	c5 fd 7f 44 24 20    	vmovdqa %ymm0,0x20(%rsp)
  400e17:	c5 fd 6f 44 24 20    	vmovdqa 0x20(%rsp),%ymm0
  400e1d:	c5 fd 6f 4c 24 40    	vmovdqa 0x40(%rsp),%ymm1
  400e23:	c5 f5 db c0          	vpand  %ymm0,%ymm1,%ymm0
  400e27:	c5 fd 7f 44 24 20    	vmovdqa %ymm0,0x20(%rsp)
  400e2d:	c5 fd 6f 44 24 20    	vmovdqa 0x20(%rsp),%ymm0
  400e33:	c5 fd 6f 4c 24 40    	vmovdqa 0x40(%rsp),%ymm1
  400e39:	c5 f5 db c0          	vpand  %ymm0,%ymm1,%ymm0
  400e3d:	c5 fd 7f 44 24 20    	vmovdqa %ymm0,0x20(%rsp)
  400e43:	c5 fd 6f 44 24 20    	vmovdqa 0x20(%rsp),%ymm0
  400e49:	c5 fd 6f 4c 24 40    	vmovdqa 0x40(%rsp),%ymm1
  400e4f:	c5 f5 db c0          	vpand  %ymm0,%ymm1,%ymm0
  400e53:	c5 fd 7f 44 24 20    	vmovdqa %ymm0,0x20(%rsp)
  400e59:	c5 fd 6f 44 24 20    	vmovdqa 0x20(%rsp),%ymm0
  400e5f:	c5 fd 6f 4c 24 40    	vmovdqa 0x40(%rsp),%ymm1
  400e65:	c5 f5 db c0          	vpand  %ymm0,%ymm1,%ymm0
  400e69:	c5 fd 7f 44 24 20    	vmovdqa %ymm0,0x20(%rsp)
  400e6f:	c5 fd 6f 44 24 20    	vmovdqa 0x20(%rsp),%ymm0
  400e75:	c5 fd 6f 4c 24 40    	vmovdqa 0x40(%rsp),%ymm1
  400e7b:	c5 f5 db c0          	vpand  %ymm0,%ymm1,%ymm0
  400e7f:	c5 fd 7f 44 24 20    	vmovdqa %ymm0,0x20(%rsp)
  400e85:	c5 fd 6f 44 24 20    	vmovdqa 0x20(%rsp),%ymm0
  400e8b:	c5 fd 6f 4c 24 40    	vmovdqa 0x40(%rsp),%ymm1
  400e91:	c5 f5 db c0          	vpand  %ymm0,%ymm1,%ymm0
  400e95:	c5 fd 7f 44 24 20    	vmovdqa %ymm0,0x20(%rsp)
  400e9b:	c5 fd 6f 44 24 20    	vmovdqa 0x20(%rsp),%ymm0
  400ea1:	c5 fd 6f 4c 24 40    	vmovdqa 0x40(%rsp),%ymm1
  400ea7:	c5 f5 db c0          	vpand  %ymm0,%ymm1,%ymm0
  400eab:	c5 fd 7f 44 24 20    	vmovdqa %ymm0,0x20(%rsp)
  400eb1:	c5 fd 6f 44 24 20    	vmovdqa 0x20(%rsp),%ymm0
  400eb7:	c5 fd 6f 4c 24 40    	vmovdqa 0x40(%rsp),%ymm1
  400ebd:	c5 f5 db c0          	vpand  %ymm0,%ymm1,%ymm0
  400ec1:	c5 fd 7f 44 24 20    	vmovdqa %ymm0,0x20(%rsp)
  400ec7:	c5 fd 6f 44 24 20    	vmovdqa 0x20(%rsp),%ymm0
  400ecd:	c5 fd 6f 4c 24 40    	vmovdqa 0x40(%rsp),%ymm1
  400ed3:	c5 f5 db c0          	vpand  %ymm0,%ymm1,%ymm0
  400ed7:	c5 fd 7f 44 24 20    	vmovdqa %ymm0,0x20(%rsp)
  400edd:	c5 fd 6f 44 24 20    	vmovdqa 0x20(%rsp),%ymm0
  400ee3:	c5 fd 6f 4c 24 40    	vmovdqa 0x40(%rsp),%ymm1
  400ee9:	c5 f5 db c0          	vpand  %ymm0,%ymm1,%ymm0
  400eed:	c5 fd 7f 44 24 20    	vmovdqa %ymm0,0x20(%rsp)
  400ef3:	c5 fd 6f 44 24 20    	vmovdqa 0x20(%rsp),%ymm0
  400ef9:	c5 fd 6f 4c 24 40    	vmovdqa 0x40(%rsp),%ymm1
  400eff:	c5 f5 db c0          	vpand  %ymm0,%ymm1,%ymm0
  400f03:	c5 fd 7f 44 24 20    	vmovdqa %ymm0,0x20(%rsp)
  400f09:	c5 fd 6f 44 24 20    	vmovdqa 0x20(%rsp),%ymm0
  400f0f:	c5 fd 6f 4c 24 40    	vmovdqa 0x40(%rsp),%ymm1
  400f15:	c5 f5 db c0          	vpand  %ymm0,%ymm1,%ymm0
  400f19:	c5 fd 7f 44 24 20    	vmovdqa %ymm0,0x20(%rsp)
  400f1f:	c5 fd 6f 44 24 20    	vmovdqa 0x20(%rsp),%ymm0
  400f25:	c5 fd 6f 4c 24 40    	vmovdqa 0x40(%rsp),%ymm1
  400f2b:	c5 f5 db c0          	vpand  %ymm0,%ymm1,%ymm0
  400f2f:	c5 fd 7f 44 24 20    	vmovdqa %ymm0,0x20(%rsp)
  400f35:	c5 fd 6f 44 24 20    	vmovdqa 0x20(%rsp),%ymm0
  400f3b:	c5 fd 6f 4c 24 40    	vmovdqa 0x40(%rsp),%ymm1
  400f41:	c5 f5 db c0          	vpand  %ymm0,%ymm1,%ymm0
  400f45:	c5 fd 7f 44 24 20    	vmovdqa %ymm0,0x20(%rsp)
  400f4b:	c5 fd 6f 44 24 20    	vmovdqa 0x20(%rsp),%ymm0
  400f51:	c5 fd 6f 4c 24 40    	vmovdqa 0x40(%rsp),%ymm1
  400f57:	c5 f5 db c0          	vpand  %ymm0,%ymm1,%ymm0
  400f5b:	c5 fd 7f 44 24 20    	vmovdqa %ymm0,0x20(%rsp)
  400f61:	c5 fd 6f 44 24 20    	vmovdqa 0x20(%rsp),%ymm0
  400f67:	c5 fd 6f 4c 24 40    	vmovdqa 0x40(%rsp),%ymm1
  400f6d:	c5 f5 db c0          	vpand  %ymm0,%ymm1,%ymm0
  400f71:	c5 fd 7f 44 24 20    	vmovdqa %ymm0,0x20(%rsp)
  400f77:	c5 fd 6f 44 24 20    	vmovdqa 0x20(%rsp),%ymm0
  400f7d:	c5 fd 6f 4c 24 40    	vmovdqa 0x40(%rsp),%ymm1
  400f83:	c5 f5 db c0          	vpand  %ymm0,%ymm1,%ymm0
  400f87:	c5 fd 7f 44 24 20    	vmovdqa %ymm0,0x20(%rsp)
  400f8d:	c5 fd 6f 44 24 20    	vmovdqa 0x20(%rsp),%ymm0
  400f93:	c5 fd 6f 4c 24 40    	vmovdqa 0x40(%rsp),%ymm1
  400f99:	c5 f5 db c0          	vpand  %ymm0,%ymm1,%ymm0
  400f9d:	c5 fd 7f 44 24 20    	vmovdqa %ymm0,0x20(%rsp)
  400fa3:	c5 fd 6f 44 24 20    	vmovdqa 0x20(%rsp),%ymm0
  400fa9:	c5 fd 6f 4c 24 40    	vmovdqa 0x40(%rsp),%ymm1
  400faf:	c5 f5 db c0          	vpand  %ymm0,%ymm1,%ymm0
  400fb3:	c5 fd 7f 44 24 20    	vmovdqa %ymm0,0x20(%rsp)
  400fb9:	c5 fd 6f 44 24 20    	vmovdqa 0x20(%rsp),%ymm0
  400fbf:	c5 fd 6f 4c 24 40    	vmovdqa 0x40(%rsp),%ymm1
  400fc5:	c5 f5 db c0          	vpand  %ymm0,%ymm1,%ymm0
  400fc9:	c5 fd 7f 44 24 20    	vmovdqa %ymm0,0x20(%rsp)
  400fcf:	c5 fd 6f 44 24 20    	vmovdqa 0x20(%rsp),%ymm0
  400fd5:	c5 fd 6f 4c 24 40    	vmovdqa 0x40(%rsp),%ymm1
  400fdb:	c5 f5 db c0          	vpand  %ymm0,%ymm1,%ymm0
  400fdf:	c5 fd 7f 44 24 20    	vmovdqa %ymm0,0x20(%rsp)
  400fe5:	c5 fd 6f 44 24 20    	vmovdqa 0x20(%rsp),%ymm0
  400feb:	c5 fd 6f 4c 24 40    	vmovdqa 0x40(%rsp),%ymm1
  400ff1:	c5 f5 db c0          	vpand  %ymm0,%ymm1,%ymm0
  400ff5:	c5 fd 7f 44 24 20    	vmovdqa %ymm0,0x20(%rsp)
  400ffb:	c5 fd 6f 44 24 20    	vmovdqa 0x20(%rsp),%ymm0
  401001:	c5 fd 6f 4c 24 40    	vmovdqa 0x40(%rsp),%ymm1
  401007:	c5 f5 db c0          	vpand  %ymm0,%ymm1,%ymm0
  40100b:	c5 fd 7f 44 24 20    	vmovdqa %ymm0,0x20(%rsp)
  401011:	c5 fd 6f 44 24 20    	vmovdqa 0x20(%rsp),%ymm0
  401017:	c5 fd 6f 4c 24 40    	vmovdqa 0x40(%rsp),%ymm1
  40101d:	c5 f5 db c0          	vpand  %ymm0,%ymm1,%ymm0
  401021:	c5 fd 7f 44 24 20    	vmovdqa %ymm0,0x20(%rsp)
  401027:	c5 fd 6f 44 24 20    	vmovdqa 0x20(%rsp),%ymm0
  40102d:	c5 fd 6f 4c 24 40    	vmovdqa 0x40(%rsp),%ymm1
  401033:	c5 f5 db c0          	vpand  %ymm0,%ymm1,%ymm0
  401037:	c5 fd 7f 44 24 20    	vmovdqa %ymm0,0x20(%rsp)
  40103d:	c5 fd 6f 44 24 20    	vmovdqa 0x20(%rsp),%ymm0
  401043:	c5 fd 6f 4c 24 40    	vmovdqa 0x40(%rsp),%ymm1
  401049:	c5 f5 db c0          	vpand  %ymm0,%ymm1,%ymm0
  40104d:	c5 fd 7f 44 24 20    	vmovdqa %ymm0,0x20(%rsp)
  401053:	c5 fd 6f 44 24 20    	vmovdqa 0x20(%rsp),%ymm0
  401059:	c5 fd 6f 4c 24 40    	vmovdqa 0x40(%rsp),%ymm1
  40105f:	c5 f5 db c0          	vpand  %ymm0,%ymm1,%ymm0
  401063:	c5 fd 7f 44 24 20    	vmovdqa %ymm0,0x20(%rsp)
  401069:	c5 fd 6f 44 24 20    	vmovdqa 0x20(%rsp),%ymm0
  40106f:	c5 fd 6f 4c 24 40    	vmovdqa 0x40(%rsp),%ymm1
  401075:	c5 f5 db c0          	vpand  %ymm0,%ymm1,%ymm0
  401079:	c5 fd 7f 44 24 20    	vmovdqa %ymm0,0x20(%rsp)
  40107f:	c5 fd 6f 44 24 20    	vmovdqa 0x20(%rsp),%ymm0
  401085:	c5 fd 6f 4c 24 40    	vmovdqa 0x40(%rsp),%ymm1
  40108b:	c5 f5 db c0          	vpand  %ymm0,%ymm1,%ymm0
  40108f:	c5 fd 7f 44 24 20    	vmovdqa %ymm0,0x20(%rsp)
  401095:	c5 fd 6f 44 24 20    	vmovdqa 0x20(%rsp),%ymm0
  40109b:	c5 fd 6f 4c 24 40    	vmovdqa 0x40(%rsp),%ymm1
  4010a1:	c5 f5 db c0          	vpand  %ymm0,%ymm1,%ymm0
  4010a5:	c5 fd 7f 44 24 20    	vmovdqa %ymm0,0x20(%rsp)
  4010ab:	c5 fd 6f 44 24 20    	vmovdqa 0x20(%rsp),%ymm0
  4010b1:	c5 fd 6f 4c 24 40    	vmovdqa 0x40(%rsp),%ymm1
  4010b7:	c5 f5 db c0          	vpand  %ymm0,%ymm1,%ymm0
  4010bb:	c5 fd 7f 44 24 20    	vmovdqa %ymm0,0x20(%rsp)
  4010c1:	c5 fd 6f 44 24 20    	vmovdqa 0x20(%rsp),%ymm0
  4010c7:	c5 fd 6f 4c 24 40    	vmovdqa 0x40(%rsp),%ymm1
  4010cd:	c5 f5 db c0          	vpand  %ymm0,%ymm1,%ymm0
  4010d1:	c5 fd 7f 44 24 20    	vmovdqa %ymm0,0x20(%rsp)
  4010d7:	c5 fd 6f 44 24 20    	vmovdqa 0x20(%rsp),%ymm0
  4010dd:	c5 fd 6f 4c 24 40    	vmovdqa 0x40(%rsp),%ymm1
  4010e3:	c5 f5 db c0          	vpand  %ymm0,%ymm1,%ymm0
  4010e7:	c5 fd 7f 44 24 20    	vmovdqa %ymm0,0x20(%rsp)
  4010ed:	c5 fd 6f 44 24 20    	vmovdqa 0x20(%rsp),%ymm0
  4010f3:	c5 fd 6f 4c 24 40    	vmovdqa 0x40(%rsp),%ymm1
  4010f9:	c5 f5 db c0          	vpand  %ymm0,%ymm1,%ymm0
  4010fd:	c5 fd 7f 44 24 20    	vmovdqa %ymm0,0x20(%rsp)
  401103:	c5 fd 6f 44 24 20    	vmovdqa 0x20(%rsp),%ymm0
  401109:	c5 fd 6f 4c 24 40    	vmovdqa 0x40(%rsp),%ymm1
  40110f:	c5 f5 db c0          	vpand  %ymm0,%ymm1,%ymm0
  401113:	c5 fd 7f 44 24 20    	vmovdqa %ymm0,0x20(%rsp)
  401119:	c5 fd 6f 44 24 20    	vmovdqa 0x20(%rsp),%ymm0
  40111f:	c5 fd 6f 4c 24 40    	vmovdqa 0x40(%rsp),%ymm1
  401125:	c5 f5 db c0          	vpand  %ymm0,%ymm1,%ymm0
  401129:	c5 fd 7f 44 24 20    	vmovdqa %ymm0,0x20(%rsp)
  40112f:	c5 fd 6f 44 24 20    	vmovdqa 0x20(%rsp),%ymm0
  401135:	c5 fd 6f 4c 24 40    	vmovdqa 0x40(%rsp),%ymm1
  40113b:	c5 f5 db c0          	vpand  %ymm0,%ymm1,%ymm0
  40113f:	c5 fd 7f 44 24 20    	vmovdqa %ymm0,0x20(%rsp)
  401145:	c5 fd 6f 44 24 20    	vmovdqa 0x20(%rsp),%ymm0
  40114b:	c5 fd 6f 4c 24 40    	vmovdqa 0x40(%rsp),%ymm1
  401151:	c5 f5 db c0          	vpand  %ymm0,%ymm1,%ymm0
  401155:	c5 fd 7f 44 24 20    	vmovdqa %ymm0,0x20(%rsp)
  40115b:	c5 fd 6f 44 24 20    	vmovdqa 0x20(%rsp),%ymm0
  401161:	c5 fd 6f 4c 24 40    	vmovdqa 0x40(%rsp),%ymm1
  401167:	c5 f5 db c0          	vpand  %ymm0,%ymm1,%ymm0
  40116b:	c5 fd 7f 44 24 20    	vmovdqa %ymm0,0x20(%rsp)
  401171:	c5 fd 6f 44 24 20    	vmovdqa 0x20(%rsp),%ymm0
  401177:	c5 fd 6f 4c 24 40    	vmovdqa 0x40(%rsp),%ymm1
  40117d:	c5 f5 db c0          	vpand  %ymm0,%ymm1,%ymm0
  401181:	c5 fd 7f 44 24 20    	vmovdqa %ymm0,0x20(%rsp)
  401187:	c5 fd 6f 44 24 20    	vmovdqa 0x20(%rsp),%ymm0
  40118d:	c5 fd 6f 4c 24 40    	vmovdqa 0x40(%rsp),%ymm1
  401193:	c5 f5 db c0          	vpand  %ymm0,%ymm1,%ymm0
  401197:	c5 fd 7f 44 24 20    	vmovdqa %ymm0,0x20(%rsp)
  40119d:	c5 fd 6f 44 24 20    	vmovdqa 0x20(%rsp),%ymm0
  4011a3:	c5 fd 6f 4c 24 40    	vmovdqa 0x40(%rsp),%ymm1
  4011a9:	c5 f5 db c0          	vpand  %ymm0,%ymm1,%ymm0
  4011ad:	c5 fd 7f 44 24 20    	vmovdqa %ymm0,0x20(%rsp)
  4011b3:	c5 fd 6f 44 24 20    	vmovdqa 0x20(%rsp),%ymm0
  4011b9:	c5 fd 6f 4c 24 40    	vmovdqa 0x40(%rsp),%ymm1
  4011bf:	c5 f5 db c0          	vpand  %ymm0,%ymm1,%ymm0
  4011c3:	c5 fd 7f 44 24 20    	vmovdqa %ymm0,0x20(%rsp)
  4011c9:	c5 fd 6f 44 24 20    	vmovdqa 0x20(%rsp),%ymm0
  4011cf:	c5 fd 6f 4c 24 40    	vmovdqa 0x40(%rsp),%ymm1
  4011d5:	c5 f5 db c0          	vpand  %ymm0,%ymm1,%ymm0
  4011d9:	c5 fd 7f 44 24 20    	vmovdqa %ymm0,0x20(%rsp)
  4011df:	c5 fd 6f 44 24 20    	vmovdqa 0x20(%rsp),%ymm0
  4011e5:	c5 fd 6f 4c 24 40    	vmovdqa 0x40(%rsp),%ymm1
  4011eb:	c5 f5 db c0          	vpand  %ymm0,%ymm1,%ymm0
  4011ef:	c5 fd 7f 44 24 20    	vmovdqa %ymm0,0x20(%rsp)
  4011f5:	c5 fd 6f 44 24 20    	vmovdqa 0x20(%rsp),%ymm0
  4011fb:	c5 fd 6f 4c 24 40    	vmovdqa 0x40(%rsp),%ymm1
  401201:	c5 f5 db c0          	vpand  %ymm0,%ymm1,%ymm0
  401205:	c5 fd 7f 44 24 20    	vmovdqa %ymm0,0x20(%rsp)
  40120b:	c5 fd 6f 44 24 20    	vmovdqa 0x20(%rsp),%ymm0
  401211:	c5 fd 6f 4c 24 40    	vmovdqa 0x40(%rsp),%ymm1
  401217:	c5 f5 db c0          	vpand  %ymm0,%ymm1,%ymm0
  40121b:	c5 fd 7f 44 24 20    	vmovdqa %ymm0,0x20(%rsp)
  401221:	c5 fd 6f 44 24 20    	vmovdqa 0x20(%rsp),%ymm0
  401227:	c5 fd 6f 4c 24 40    	vmovdqa 0x40(%rsp),%ymm1
  40122d:	c5 f5 db c0          	vpand  %ymm0,%ymm1,%ymm0
  401231:	c5 fd 7f 44 24 20    	vmovdqa %ymm0,0x20(%rsp)
  401237:	c5 fd 6f 44 24 20    	vmovdqa 0x20(%rsp),%ymm0
  40123d:	c5 fd 6f 4c 24 40    	vmovdqa 0x40(%rsp),%ymm1
  401243:	c5 f5 db c0          	vpand  %ymm0,%ymm1,%ymm0
  401247:	c5 fd 7f 44 24 20    	vmovdqa %ymm0,0x20(%rsp)
  40124d:	c5 fd 6f 44 24 20    	vmovdqa 0x20(%rsp),%ymm0
  401253:	c5 fd 6f 4c 24 40    	vmovdqa 0x40(%rsp),%ymm1
  401259:	c5 f5 db c0          	vpand  %ymm0,%ymm1,%ymm0
  40125d:	c5 fd 7f 44 24 20    	vmovdqa %ymm0,0x20(%rsp)
  401263:	c5 fd 6f 44 24 20    	vmovdqa 0x20(%rsp),%ymm0
  401269:	c5 fd 6f 4c 24 40    	vmovdqa 0x40(%rsp),%ymm1
  40126f:	c5 f5 db c0          	vpand  %ymm0,%ymm1,%ymm0
  401273:	c5 fd 7f 44 24 20    	vmovdqa %ymm0,0x20(%rsp)
  401279:	c5 fd 6f 44 24 20    	vmovdqa 0x20(%rsp),%ymm0
  40127f:	c5 fd 6f 4c 24 40    	vmovdqa 0x40(%rsp),%ymm1
  401285:	c5 f5 db c0          	vpand  %ymm0,%ymm1,%ymm0
  401289:	c5 fd 7f 44 24 20    	vmovdqa %ymm0,0x20(%rsp)
  40128f:	c5 fd 6f 44 24 20    	vmovdqa 0x20(%rsp),%ymm0
  401295:	c5 fd 6f 4c 24 40    	vmovdqa 0x40(%rsp),%ymm1
  40129b:	c5 f5 db c0          	vpand  %ymm0,%ymm1,%ymm0
  40129f:	c5 fd 7f 44 24 20    	vmovdqa %ymm0,0x20(%rsp)
  4012a5:	c5 fd 6f 44 24 20    	vmovdqa 0x20(%rsp),%ymm0
  4012ab:	c5 fd 6f 4c 24 40    	vmovdqa 0x40(%rsp),%ymm1
  4012b1:	c5 f5 db c0          	vpand  %ymm0,%ymm1,%ymm0
  4012b5:	c5 fd 7f 44 24 20    	vmovdqa %ymm0,0x20(%rsp)
  4012bb:	c5 fd 6f 44 24 20    	vmovdqa 0x20(%rsp),%ymm0
  4012c1:	c5 fd 6f 4c 24 40    	vmovdqa 0x40(%rsp),%ymm1
  4012c7:	c5 f5 db c0          	vpand  %ymm0,%ymm1,%ymm0
  4012cb:	c5 fd 7f 44 24 20    	vmovdqa %ymm0,0x20(%rsp)
  4012d1:	c5 fd 6f 44 24 20    	vmovdqa 0x20(%rsp),%ymm0
  4012d7:	c5 fd 6f 4c 24 40    	vmovdqa 0x40(%rsp),%ymm1
  4012dd:	c5 f5 db c0          	vpand  %ymm0,%ymm1,%ymm0
  4012e1:	c5 fd 7f 44 24 20    	vmovdqa %ymm0,0x20(%rsp)
  4012e7:	c5 fd 6f 44 24 20    	vmovdqa 0x20(%rsp),%ymm0
  4012ed:	c5 fd 6f 4c 24 40    	vmovdqa 0x40(%rsp),%ymm1
  4012f3:	c5 f5 db c0          	vpand  %ymm0,%ymm1,%ymm0
  4012f7:	c5 fd 7f 44 24 20    	vmovdqa %ymm0,0x20(%rsp)
  4012fd:	c5 fd 6f 44 24 20    	vmovdqa 0x20(%rsp),%ymm0
  401303:	c5 fd 6f 4c 24 40    	vmovdqa 0x40(%rsp),%ymm1
  401309:	c5 f5 db c0          	vpand  %ymm0,%ymm1,%ymm0
  40130d:	c5 fd 7f 44 24 20    	vmovdqa %ymm0,0x20(%rsp)
  401313:	c5 fd 6f 44 24 20    	vmovdqa 0x20(%rsp),%ymm0
  401319:	c5 fd 6f 4c 24 40    	vmovdqa 0x40(%rsp),%ymm1
  40131f:	c5 f5 db c0          	vpand  %ymm0,%ymm1,%ymm0
  401323:	c5 fd 7f 44 24 20    	vmovdqa %ymm0,0x20(%rsp)
  401329:	c5 fd 6f 44 24 20    	vmovdqa 0x20(%rsp),%ymm0
  40132f:	c5 fd 6f 4c 24 40    	vmovdqa 0x40(%rsp),%ymm1
  401335:	c5 f5 db c0          	vpand  %ymm0,%ymm1,%ymm0
  401339:	c5 fd 7f 44 24 20    	vmovdqa %ymm0,0x20(%rsp)
  40133f:	c5 fd 6f 44 24 20    	vmovdqa 0x20(%rsp),%ymm0
  401345:	c5 fd 6f 4c 24 40    	vmovdqa 0x40(%rsp),%ymm1
  40134b:	c5 f5 db c0          	vpand  %ymm0,%ymm1,%ymm0
  40134f:	c5 fd 7f 44 24 20    	vmovdqa %ymm0,0x20(%rsp)
  401355:	c5 fd 6f 44 24 20    	vmovdqa 0x20(%rsp),%ymm0
  40135b:	c5 fd 6f 4c 24 40    	vmovdqa 0x40(%rsp),%ymm1
  401361:	c5 f5 db c0          	vpand  %ymm0,%ymm1,%ymm0
  401365:	c5 fd 7f 44 24 20    	vmovdqa %ymm0,0x20(%rsp)
  40136b:	c5 fd 6f 44 24 20    	vmovdqa 0x20(%rsp),%ymm0
  401371:	c5 fd 6f 4c 24 40    	vmovdqa 0x40(%rsp),%ymm1
  401377:	c5 f5 db c0          	vpand  %ymm0,%ymm1,%ymm0
  40137b:	c5 fd 7f 44 24 20    	vmovdqa %ymm0,0x20(%rsp)
  401381:	c5 fd 6f 44 24 20    	vmovdqa 0x20(%rsp),%ymm0
  401387:	c5 fd 6f 4c 24 40    	vmovdqa 0x40(%rsp),%ymm1
  40138d:	c5 f5 db c0          	vpand  %ymm0,%ymm1,%ymm0
  401391:	c5 fd 7f 44 24 20    	vmovdqa %ymm0,0x20(%rsp)
  401397:	c5 fd 6f 44 24 20    	vmovdqa 0x20(%rsp),%ymm0
  40139d:	c5 fd 6f 4c 24 40    	vmovdqa 0x40(%rsp),%ymm1
  4013a3:	c5 f5 db c0          	vpand  %ymm0,%ymm1,%ymm0
  4013a7:	c5 fd 7f 44 24 20    	vmovdqa %ymm0,0x20(%rsp)
  4013ad:	c5 fd 6f 44 24 20    	vmovdqa 0x20(%rsp),%ymm0
  4013b3:	c5 fd 6f 4c 24 40    	vmovdqa 0x40(%rsp),%ymm1
  4013b9:	c5 f5 db c0          	vpand  %ymm0,%ymm1,%ymm0
  4013bd:	c5 fd 7f 44 24 20    	vmovdqa %ymm0,0x20(%rsp)
  4013c3:	c5 fd 6f 44 24 20    	vmovdqa 0x20(%rsp),%ymm0
  4013c9:	c5 fd 6f 4c 24 40    	vmovdqa 0x40(%rsp),%ymm1
  4013cf:	c5 f5 db c0          	vpand  %ymm0,%ymm1,%ymm0
  4013d3:	c5 fd 7f 44 24 20    	vmovdqa %ymm0,0x20(%rsp)
  4013d9:	c5 fd 6f 44 24 20    	vmovdqa 0x20(%rsp),%ymm0
  4013df:	c5 fd 6f 4c 24 40    	vmovdqa 0x40(%rsp),%ymm1
  4013e5:	c5 f5 db c0          	vpand  %ymm0,%ymm1,%ymm0
  4013e9:	c5 fd 7f 44 24 20    	vmovdqa %ymm0,0x20(%rsp)
  4013ef:	c5 fd 6f 44 24 20    	vmovdqa 0x20(%rsp),%ymm0
  4013f5:	c5 fd 6f 4c 24 40    	vmovdqa 0x40(%rsp),%ymm1
  4013fb:	c5 f5 db c0          	vpand  %ymm0,%ymm1,%ymm0
  4013ff:	c5 fd 7f 44 24 20    	vmovdqa %ymm0,0x20(%rsp)
  401405:	c5 fd 6f 44 24 20    	vmovdqa 0x20(%rsp),%ymm0
  40140b:	c5 fd 6f 4c 24 40    	vmovdqa 0x40(%rsp),%ymm1
  401411:	c5 f5 db c0          	vpand  %ymm0,%ymm1,%ymm0
  401415:	c5 fd 7f 44 24 20    	vmovdqa %ymm0,0x20(%rsp)
  40141b:	c5 fd 6f 44 24 20    	vmovdqa 0x20(%rsp),%ymm0
  401421:	c5 fd 6f 4c 24 40    	vmovdqa 0x40(%rsp),%ymm1
  401427:	c5 f5 db c0          	vpand  %ymm0,%ymm1,%ymm0
  40142b:	c5 fd 7f 44 24 20    	vmovdqa %ymm0,0x20(%rsp)
  401431:	c5 fd 6f 44 24 20    	vmovdqa 0x20(%rsp),%ymm0
  401437:	c5 fd 6f 4c 24 40    	vmovdqa 0x40(%rsp),%ymm1
  40143d:	c5 f5 db c0          	vpand  %ymm0,%ymm1,%ymm0
  401441:	c5 fd 7f 44 24 20    	vmovdqa %ymm0,0x20(%rsp)
  401447:	c5 fd 6f 44 24 20    	vmovdqa 0x20(%rsp),%ymm0
  40144d:	c5 fd 6f 4c 24 40    	vmovdqa 0x40(%rsp),%ymm1
  401453:	c5 f5 db c0          	vpand  %ymm0,%ymm1,%ymm0
  401457:	c5 fd 7f 44 24 20    	vmovdqa %ymm0,0x20(%rsp)
  40145d:	c5 fd 6f 44 24 20    	vmovdqa 0x20(%rsp),%ymm0
  401463:	c5 fd 6f 4c 24 40    	vmovdqa 0x40(%rsp),%ymm1
  401469:	c5 f5 db c0          	vpand  %ymm0,%ymm1,%ymm0
  40146d:	c5 fd 7f 44 24 20    	vmovdqa %ymm0,0x20(%rsp)
  401473:	c5 fd 6f 44 24 20    	vmovdqa 0x20(%rsp),%ymm0
  401479:	c5 fd 6f 4c 24 40    	vmovdqa 0x40(%rsp),%ymm1
  40147f:	c5 f5 db c0          	vpand  %ymm0,%ymm1,%ymm0
  401483:	c5 fd 7f 44 24 20    	vmovdqa %ymm0,0x20(%rsp)
  401489:	c5 fd 6f 44 24 20    	vmovdqa 0x20(%rsp),%ymm0
  40148f:	c5 fd 6f 4c 24 40    	vmovdqa 0x40(%rsp),%ymm1
  401495:	c5 f5 db c0          	vpand  %ymm0,%ymm1,%ymm0
  401499:	c5 fd 7f 44 24 20    	vmovdqa %ymm0,0x20(%rsp)
  40149f:	c5 fd 6f 44 24 20    	vmovdqa 0x20(%rsp),%ymm0
  4014a5:	c5 fd 6f 4c 24 40    	vmovdqa 0x40(%rsp),%ymm1
  4014ab:	c5 f5 db c0          	vpand  %ymm0,%ymm1,%ymm0
  4014af:	c5 fd 7f 44 24 20    	vmovdqa %ymm0,0x20(%rsp)
  4014b5:	c5 fd 6f 44 24 20    	vmovdqa 0x20(%rsp),%ymm0
  4014bb:	c5 fd 6f 4c 24 40    	vmovdqa 0x40(%rsp),%ymm1
  4014c1:	c5 f5 db c0          	vpand  %ymm0,%ymm1,%ymm0
  4014c5:	c5 fd 7f 44 24 20    	vmovdqa %ymm0,0x20(%rsp)
  4014cb:	c5 fd 6f 44 24 20    	vmovdqa 0x20(%rsp),%ymm0
  4014d1:	c5 fd 6f 4c 24 40    	vmovdqa 0x40(%rsp),%ymm1
  4014d7:	c5 f5 db c0          	vpand  %ymm0,%ymm1,%ymm0
  4014db:	c5 fd 7f 44 24 20    	vmovdqa %ymm0,0x20(%rsp)
  4014e1:	c5 fd 6f 44 24 20    	vmovdqa 0x20(%rsp),%ymm0
  4014e7:	c5 fd 6f 4c 24 40    	vmovdqa 0x40(%rsp),%ymm1
  4014ed:	c5 f5 db c0          	vpand  %ymm0,%ymm1,%ymm0
  4014f1:	c5 fd 7f 44 24 20    	vmovdqa %ymm0,0x20(%rsp)
  4014f7:	c5 fd 6f 44 24 20    	vmovdqa 0x20(%rsp),%ymm0
  4014fd:	c5 fd 6f 4c 24 40    	vmovdqa 0x40(%rsp),%ymm1
  401503:	c5 f5 db c0          	vpand  %ymm0,%ymm1,%ymm0
  401507:	c5 fd 7f 44 24 20    	vmovdqa %ymm0,0x20(%rsp)
  40150d:	c5 fd 6f 44 24 20    	vmovdqa 0x20(%rsp),%ymm0
  401513:	c5 fd 6f 4c 24 40    	vmovdqa 0x40(%rsp),%ymm1
  401519:	c5 f5 db c0          	vpand  %ymm0,%ymm1,%ymm0
  40151d:	c5 fd 7f 44 24 20    	vmovdqa %ymm0,0x20(%rsp)
  401523:	c5 fd 6f 44 24 20    	vmovdqa 0x20(%rsp),%ymm0
  401529:	c5 fd 6f 4c 24 40    	vmovdqa 0x40(%rsp),%ymm1
  40152f:	c5 f5 db c0          	vpand  %ymm0,%ymm1,%ymm0
  401533:	c5 fd 7f 44 24 20    	vmovdqa %ymm0,0x20(%rsp)
  401539:	c5 fd 6f 44 24 20    	vmovdqa 0x20(%rsp),%ymm0
  40153f:	c5 fd 6f 4c 24 40    	vmovdqa 0x40(%rsp),%ymm1
  401545:	c5 f5 db c0          	vpand  %ymm0,%ymm1,%ymm0
  401549:	c5 fd 7f 44 24 20    	vmovdqa %ymm0,0x20(%rsp)
  40154f:	c5 fd 6f 44 24 20    	vmovdqa 0x20(%rsp),%ymm0
  401555:	c5 fd 6f 4c 24 40    	vmovdqa 0x40(%rsp),%ymm1
  40155b:	c5 f5 db c0          	vpand  %ymm0,%ymm1,%ymm0
  40155f:	c5 fd 7f 44 24 20    	vmovdqa %ymm0,0x20(%rsp)
  401565:	c5 fd 6f 44 24 20    	vmovdqa 0x20(%rsp),%ymm0
  40156b:	c5 fd 6f 4c 24 40    	vmovdqa 0x40(%rsp),%ymm1
  401571:	c5 f5 db c0          	vpand  %ymm0,%ymm1,%ymm0
  401575:	c5 fd 7f 44 24 20    	vmovdqa %ymm0,0x20(%rsp)
  40157b:	c5 fd 6f 44 24 20    	vmovdqa 0x20(%rsp),%ymm0
  401581:	c5 fd 6f 4c 24 40    	vmovdqa 0x40(%rsp),%ymm1
  401587:	c5 f5 db c0          	vpand  %ymm0,%ymm1,%ymm0
  40158b:	c5 fd 7f 44 24 20    	vmovdqa %ymm0,0x20(%rsp)
  401591:	c5 fd 6f 44 24 20    	vmovdqa 0x20(%rsp),%ymm0
  401597:	c5 fd 6f 4c 24 40    	vmovdqa 0x40(%rsp),%ymm1
  40159d:	c5 f5 db c0          	vpand  %ymm0,%ymm1,%ymm0
  4015a1:	c5 fd 7f 44 24 20    	vmovdqa %ymm0,0x20(%rsp)
  4015a7:	c5 fd 6f 44 24 20    	vmovdqa 0x20(%rsp),%ymm0
  4015ad:	c5 fd 6f 4c 24 40    	vmovdqa 0x40(%rsp),%ymm1
  4015b3:	c5 f5 db c0          	vpand  %ymm0,%ymm1,%ymm0
  4015b7:	c5 fd 7f 44 24 20    	vmovdqa %ymm0,0x20(%rsp)
  4015bd:	c5 fd 6f 44 24 20    	vmovdqa 0x20(%rsp),%ymm0
  4015c3:	c5 fd 6f 4c 24 40    	vmovdqa 0x40(%rsp),%ymm1
  4015c9:	c5 f5 db c0          	vpand  %ymm0,%ymm1,%ymm0
  4015cd:	c5 fd 7f 44 24 20    	vmovdqa %ymm0,0x20(%rsp)
  4015d3:	c5 fd 6f 44 24 20    	vmovdqa 0x20(%rsp),%ymm0
  4015d9:	c5 fd 6f 4c 24 40    	vmovdqa 0x40(%rsp),%ymm1
  4015df:	c5 f5 db c0          	vpand  %ymm0,%ymm1,%ymm0
  4015e3:	c5 fd 7f 44 24 20    	vmovdqa %ymm0,0x20(%rsp)
  4015e9:	c5 fd 6f 44 24 20    	vmovdqa 0x20(%rsp),%ymm0
  4015ef:	c5 fd 6f 4c 24 40    	vmovdqa 0x40(%rsp),%ymm1
  4015f5:	c5 f5 db c0          	vpand  %ymm0,%ymm1,%ymm0
  4015f9:	c5 fd 7f 44 24 20    	vmovdqa %ymm0,0x20(%rsp)
  4015ff:	c5 fd 6f 44 24 20    	vmovdqa 0x20(%rsp),%ymm0
  401605:	c5 fd 6f 4c 24 40    	vmovdqa 0x40(%rsp),%ymm1
  40160b:	c5 f5 db c0          	vpand  %ymm0,%ymm1,%ymm0
  40160f:	c5 fd 7f 44 24 20    	vmovdqa %ymm0,0x20(%rsp)
  401615:	c5 fd 6f 44 24 20    	vmovdqa 0x20(%rsp),%ymm0
  40161b:	c5 fd 6f 4c 24 40    	vmovdqa 0x40(%rsp),%ymm1
  401621:	c5 f5 db c0          	vpand  %ymm0,%ymm1,%ymm0
  401625:	c5 fd 7f 44 24 20    	vmovdqa %ymm0,0x20(%rsp)
  40162b:	c5 fd 6f 44 24 20    	vmovdqa 0x20(%rsp),%ymm0
  401631:	c5 fd 6f 4c 24 40    	vmovdqa 0x40(%rsp),%ymm1
  401637:	c5 f5 db c0          	vpand  %ymm0,%ymm1,%ymm0
  40163b:	c5 fd 7f 44 24 20    	vmovdqa %ymm0,0x20(%rsp)
  401641:	c5 fd 6f 44 24 20    	vmovdqa 0x20(%rsp),%ymm0
  401647:	c5 fd 6f 4c 24 40    	vmovdqa 0x40(%rsp),%ymm1
  40164d:	c5 f5 db c0          	vpand  %ymm0,%ymm1,%ymm0
  401651:	c5 fd 7f 44 24 20    	vmovdqa %ymm0,0x20(%rsp)
  401657:	c5 fd 6f 44 24 20    	vmovdqa 0x20(%rsp),%ymm0
  40165d:	c5 fd 6f 4c 24 40    	vmovdqa 0x40(%rsp),%ymm1
  401663:	c5 f5 db c0          	vpand  %ymm0,%ymm1,%ymm0
  401667:	c5 fd 7f 44 24 20    	vmovdqa %ymm0,0x20(%rsp)
  40166d:	c5 fd 6f 44 24 20    	vmovdqa 0x20(%rsp),%ymm0
  401673:	c5 fd 6f 4c 24 40    	vmovdqa 0x40(%rsp),%ymm1
  401679:	c5 f5 db c0          	vpand  %ymm0,%ymm1,%ymm0
  40167d:	c5 fd 7f 44 24 20    	vmovdqa %ymm0,0x20(%rsp)
  401683:	c5 fd 6f 44 24 20    	vmovdqa 0x20(%rsp),%ymm0
  401689:	c5 fd 6f 4c 24 40    	vmovdqa 0x40(%rsp),%ymm1
  40168f:	c5 f5 db c0          	vpand  %ymm0,%ymm1,%ymm0
  401693:	c5 fd 7f 44 24 20    	vmovdqa %ymm0,0x20(%rsp)
  401699:	c5 fd 6f 44 24 20    	vmovdqa 0x20(%rsp),%ymm0
  40169f:	c5 fd 6f 4c 24 40    	vmovdqa 0x40(%rsp),%ymm1
  4016a5:	c5 f5 db c0          	vpand  %ymm0,%ymm1,%ymm0
  4016a9:	c5 fd 7f 44 24 20    	vmovdqa %ymm0,0x20(%rsp)
  4016af:	c5 fd 6f 44 24 20    	vmovdqa 0x20(%rsp),%ymm0
  4016b5:	c5 fd 6f 4c 24 40    	vmovdqa 0x40(%rsp),%ymm1
  4016bb:	c5 f5 db c0          	vpand  %ymm0,%ymm1,%ymm0
  4016bf:	c5 fd 7f 44 24 20    	vmovdqa %ymm0,0x20(%rsp)
  4016c5:	c5 fd 6f 44 24 20    	vmovdqa 0x20(%rsp),%ymm0
  4016cb:	c5 fd 6f 4c 24 40    	vmovdqa 0x40(%rsp),%ymm1
  4016d1:	c5 f5 db c0          	vpand  %ymm0,%ymm1,%ymm0
  4016d5:	c5 fd 7f 44 24 20    	vmovdqa %ymm0,0x20(%rsp)
  4016db:	c5 fd 6f 44 24 20    	vmovdqa 0x20(%rsp),%ymm0
  4016e1:	c5 fd 6f 4c 24 40    	vmovdqa 0x40(%rsp),%ymm1
  4016e7:	c5 f5 db c0          	vpand  %ymm0,%ymm1,%ymm0
  4016eb:	c5 fd 7f 44 24 20    	vmovdqa %ymm0,0x20(%rsp)
  4016f1:	c5 fd 6f 44 24 20    	vmovdqa 0x20(%rsp),%ymm0
  4016f7:	c5 fd 6f 4c 24 40    	vmovdqa 0x40(%rsp),%ymm1
  4016fd:	c5 f5 db c0          	vpand  %ymm0,%ymm1,%ymm0
  401701:	c5 fd 7f 44 24 20    	vmovdqa %ymm0,0x20(%rsp)
  401707:	c5 fd 6f 44 24 20    	vmovdqa 0x20(%rsp),%ymm0
  40170d:	c5 fd 6f 4c 24 40    	vmovdqa 0x40(%rsp),%ymm1
  401713:	c5 f5 db c0          	vpand  %ymm0,%ymm1,%ymm0
  401717:	c5 fd 7f 44 24 20    	vmovdqa %ymm0,0x20(%rsp)
  40171d:	c5 fd 6f 44 24 20    	vmovdqa 0x20(%rsp),%ymm0
  401723:	c5 fd 6f 4c 24 40    	vmovdqa 0x40(%rsp),%ymm1
  401729:	c5 f5 db c0          	vpand  %ymm0,%ymm1,%ymm0
  40172d:	c5 fd 7f 44 24 20    	vmovdqa %ymm0,0x20(%rsp)
  401733:	c5 fd 6f 44 24 20    	vmovdqa 0x20(%rsp),%ymm0
  401739:	c5 fd 6f 4c 24 40    	vmovdqa 0x40(%rsp),%ymm1
  40173f:	c5 f5 db c0          	vpand  %ymm0,%ymm1,%ymm0
  401743:	c5 fd 7f 44 24 20    	vmovdqa %ymm0,0x20(%rsp)
  401749:	c5 fd 6f 44 24 20    	vmovdqa 0x20(%rsp),%ymm0
  40174f:	c5 fd 6f 4c 24 40    	vmovdqa 0x40(%rsp),%ymm1
  401755:	c5 f5 db c0          	vpand  %ymm0,%ymm1,%ymm0
  401759:	c5 fd 7f 44 24 20    	vmovdqa %ymm0,0x20(%rsp)
  40175f:	c5 fd 6f 44 24 20    	vmovdqa 0x20(%rsp),%ymm0
  401765:	c5 fd 6f 4c 24 40    	vmovdqa 0x40(%rsp),%ymm1
  40176b:	c5 f5 db c0          	vpand  %ymm0,%ymm1,%ymm0
  40176f:	c5 fd 7f 44 24 20    	vmovdqa %ymm0,0x20(%rsp)
  401775:	c5 fd 6f 44 24 20    	vmovdqa 0x20(%rsp),%ymm0
  40177b:	c5 fd 6f 4c 24 40    	vmovdqa 0x40(%rsp),%ymm1
  401781:	c5 f5 db c0          	vpand  %ymm0,%ymm1,%ymm0
  401785:	c5 fd 7f 44 24 20    	vmovdqa %ymm0,0x20(%rsp)
  40178b:	c5 fd 6f 44 24 20    	vmovdqa 0x20(%rsp),%ymm0
  401791:	c5 fd 6f 4c 24 40    	vmovdqa 0x40(%rsp),%ymm1
  401797:	c5 f5 db c0          	vpand  %ymm0,%ymm1,%ymm0
  40179b:	c5 fd 7f 44 24 20    	vmovdqa %ymm0,0x20(%rsp)
  4017a1:	c5 fd 6f 44 24 20    	vmovdqa 0x20(%rsp),%ymm0
  4017a7:	c5 fd 6f 4c 24 40    	vmovdqa 0x40(%rsp),%ymm1
  4017ad:	c5 f5 db c0          	vpand  %ymm0,%ymm1,%ymm0
  4017b1:	c5 fd 7f 44 24 20    	vmovdqa %ymm0,0x20(%rsp)
  4017b7:	c5 fd 6f 44 24 20    	vmovdqa 0x20(%rsp),%ymm0
  4017bd:	c5 fd 6f 4c 24 40    	vmovdqa 0x40(%rsp),%ymm1
  4017c3:	c5 f5 db c0          	vpand  %ymm0,%ymm1,%ymm0
  4017c7:	c5 fd 7f 44 24 20    	vmovdqa %ymm0,0x20(%rsp)
  4017cd:	c5 fd 6f 44 24 20    	vmovdqa 0x20(%rsp),%ymm0
  4017d3:	c5 fd 6f 4c 24 40    	vmovdqa 0x40(%rsp),%ymm1
  4017d9:	c5 f5 db c0          	vpand  %ymm0,%ymm1,%ymm0
  4017dd:	c5 fd 7f 44 24 20    	vmovdqa %ymm0,0x20(%rsp)
  4017e3:	c5 fd 6f 44 24 20    	vmovdqa 0x20(%rsp),%ymm0
  4017e9:	c5 fd 6f 4c 24 40    	vmovdqa 0x40(%rsp),%ymm1
  4017ef:	c5 f5 db c0          	vpand  %ymm0,%ymm1,%ymm0
  4017f3:	c5 fd 7f 44 24 20    	vmovdqa %ymm0,0x20(%rsp)
  4017f9:	c5 fd 6f 44 24 20    	vmovdqa 0x20(%rsp),%ymm0
  4017ff:	c5 fd 6f 4c 24 40    	vmovdqa 0x40(%rsp),%ymm1
  401805:	c5 f5 db c0          	vpand  %ymm0,%ymm1,%ymm0
  401809:	c5 fd 7f 44 24 20    	vmovdqa %ymm0,0x20(%rsp)
  40180f:	c5 fd 6f 44 24 20    	vmovdqa 0x20(%rsp),%ymm0
  401815:	c5 fd 6f 4c 24 40    	vmovdqa 0x40(%rsp),%ymm1
  40181b:	c5 f5 db c0          	vpand  %ymm0,%ymm1,%ymm0
  40181f:	c5 fd 7f 44 24 20    	vmovdqa %ymm0,0x20(%rsp)
  401825:	c5 fd 6f 44 24 20    	vmovdqa 0x20(%rsp),%ymm0
  40182b:	c5 fd 6f 4c 24 40    	vmovdqa 0x40(%rsp),%ymm1
  401831:	c5 f5 db c0          	vpand  %ymm0,%ymm1,%ymm0
  401835:	c5 fd 7f 44 24 20    	vmovdqa %ymm0,0x20(%rsp)
  40183b:	c5 fd 6f 44 24 20    	vmovdqa 0x20(%rsp),%ymm0
  401841:	c5 fd 6f 4c 24 40    	vmovdqa 0x40(%rsp),%ymm1
  401847:	c5 f5 db c0          	vpand  %ymm0,%ymm1,%ymm0
  40184b:	c5 fd 7f 44 24 20    	vmovdqa %ymm0,0x20(%rsp)
  401851:	c5 fd 6f 44 24 20    	vmovdqa 0x20(%rsp),%ymm0
  401857:	c5 fd 6f 4c 24 40    	vmovdqa 0x40(%rsp),%ymm1
  40185d:	c5 f5 db c0          	vpand  %ymm0,%ymm1,%ymm0
  401861:	c5 fd 7f 44 24 20    	vmovdqa %ymm0,0x20(%rsp)
  401867:	c5 fd 6f 44 24 20    	vmovdqa 0x20(%rsp),%ymm0
  40186d:	c5 fd 6f 4c 24 40    	vmovdqa 0x40(%rsp),%ymm1
  401873:	c5 f5 db c0          	vpand  %ymm0,%ymm1,%ymm0
  401877:	c5 fd 7f 44 24 20    	vmovdqa %ymm0,0x20(%rsp)
  40187d:	c5 fd 6f 44 24 20    	vmovdqa 0x20(%rsp),%ymm0
  401883:	c5 fd 6f 4c 24 40    	vmovdqa 0x40(%rsp),%ymm1
  401889:	c5 f5 db c0          	vpand  %ymm0,%ymm1,%ymm0
  40188d:	c5 fd 7f 44 24 20    	vmovdqa %ymm0,0x20(%rsp)
  401893:	c5 fd 6f 44 24 20    	vmovdqa 0x20(%rsp),%ymm0
  401899:	c5 fd 6f 4c 24 40    	vmovdqa 0x40(%rsp),%ymm1
  40189f:	c5 f5 db c0          	vpand  %ymm0,%ymm1,%ymm0
  4018a3:	c5 fd 7f 44 24 20    	vmovdqa %ymm0,0x20(%rsp)
  4018a9:	c5 fd 6f 44 24 20    	vmovdqa 0x20(%rsp),%ymm0
  4018af:	c5 fd 6f 4c 24 40    	vmovdqa 0x40(%rsp),%ymm1
  4018b5:	c5 f5 db c0          	vpand  %ymm0,%ymm1,%ymm0
  4018b9:	c5 fd 7f 44 24 20    	vmovdqa %ymm0,0x20(%rsp)
  4018bf:	c5 fd 6f 44 24 20    	vmovdqa 0x20(%rsp),%ymm0
  4018c5:	c5 fd 6f 4c 24 40    	vmovdqa 0x40(%rsp),%ymm1
  4018cb:	c5 f5 db c0          	vpand  %ymm0,%ymm1,%ymm0
  4018cf:	c5 fd 7f 44 24 20    	vmovdqa %ymm0,0x20(%rsp)
  4018d5:	c5 fd 6f 44 24 20    	vmovdqa 0x20(%rsp),%ymm0
  4018db:	c5 fd 6f 4c 24 40    	vmovdqa 0x40(%rsp),%ymm1
  4018e1:	c5 f5 db c0          	vpand  %ymm0,%ymm1,%ymm0
  4018e5:	c5 fd 7f 44 24 20    	vmovdqa %ymm0,0x20(%rsp)
  4018eb:	c5 fd 6f 44 24 20    	vmovdqa 0x20(%rsp),%ymm0
  4018f1:	c5 fd 6f 4c 24 40    	vmovdqa 0x40(%rsp),%ymm1
  4018f7:	c5 f5 db c0          	vpand  %ymm0,%ymm1,%ymm0
  4018fb:	c5 fd 7f 44 24 20    	vmovdqa %ymm0,0x20(%rsp)
  401901:	c5 fd 6f 44 24 20    	vmovdqa 0x20(%rsp),%ymm0
  401907:	c5 fd 6f 4c 24 40    	vmovdqa 0x40(%rsp),%ymm1
  40190d:	c5 f5 db c0          	vpand  %ymm0,%ymm1,%ymm0
  401911:	c5 fd 7f 44 24 20    	vmovdqa %ymm0,0x20(%rsp)
  401917:	c5 fd 6f 44 24 20    	vmovdqa 0x20(%rsp),%ymm0
  40191d:	c5 fd 6f 4c 24 40    	vmovdqa 0x40(%rsp),%ymm1
  401923:	c5 f5 db c0          	vpand  %ymm0,%ymm1,%ymm0
  401927:	c5 fd 7f 44 24 20    	vmovdqa %ymm0,0x20(%rsp)
  40192d:	c5 fd 6f 44 24 20    	vmovdqa 0x20(%rsp),%ymm0
  401933:	c5 fd 6f 4c 24 40    	vmovdqa 0x40(%rsp),%ymm1
  401939:	c5 f5 db c0          	vpand  %ymm0,%ymm1,%ymm0
  40193d:	c5 fd 7f 44 24 20    	vmovdqa %ymm0,0x20(%rsp)
  401943:	c5 fd 6f 44 24 20    	vmovdqa 0x20(%rsp),%ymm0
  401949:	c5 fd 6f 4c 24 40    	vmovdqa 0x40(%rsp),%ymm1
  40194f:	c5 f5 db c0          	vpand  %ymm0,%ymm1,%ymm0
  401953:	c5 fd 7f 44 24 20    	vmovdqa %ymm0,0x20(%rsp)
  401959:	c5 fd 6f 44 24 20    	vmovdqa 0x20(%rsp),%ymm0
  40195f:	c5 fd 6f 4c 24 40    	vmovdqa 0x40(%rsp),%ymm1
  401965:	c5 f5 db c0          	vpand  %ymm0,%ymm1,%ymm0
  401969:	c5 fd 7f 44 24 20    	vmovdqa %ymm0,0x20(%rsp)
  40196f:	c5 fd 6f 44 24 20    	vmovdqa 0x20(%rsp),%ymm0
  401975:	c5 fd 6f 4c 24 40    	vmovdqa 0x40(%rsp),%ymm1
  40197b:	c5 f5 db c0          	vpand  %ymm0,%ymm1,%ymm0
  40197f:	c5 fd 7f 44 24 20    	vmovdqa %ymm0,0x20(%rsp)
  401985:	c5 fd 6f 44 24 20    	vmovdqa 0x20(%rsp),%ymm0
  40198b:	c5 fd 6f 4c 24 40    	vmovdqa 0x40(%rsp),%ymm1
  401991:	c5 f5 db c0          	vpand  %ymm0,%ymm1,%ymm0
  401995:	c5 fd 7f 44 24 20    	vmovdqa %ymm0,0x20(%rsp)
  40199b:	c5 fd 6f 44 24 20    	vmovdqa 0x20(%rsp),%ymm0
  4019a1:	c5 fd 6f 4c 24 40    	vmovdqa 0x40(%rsp),%ymm1
  4019a7:	c5 f5 db c0          	vpand  %ymm0,%ymm1,%ymm0
  4019ab:	c5 fd 7f 44 24 20    	vmovdqa %ymm0,0x20(%rsp)
  4019b1:	c5 fd 6f 44 24 20    	vmovdqa 0x20(%rsp),%ymm0
  4019b7:	c5 fd 6f 4c 24 40    	vmovdqa 0x40(%rsp),%ymm1
  4019bd:	c5 f5 db c0          	vpand  %ymm0,%ymm1,%ymm0
  4019c1:	c5 fd 7f 44 24 20    	vmovdqa %ymm0,0x20(%rsp)
  4019c7:	c5 fd 6f 44 24 20    	vmovdqa 0x20(%rsp),%ymm0
  4019cd:	c5 fd 6f 4c 24 40    	vmovdqa 0x40(%rsp),%ymm1
  4019d3:	c5 f5 db c0          	vpand  %ymm0,%ymm1,%ymm0
  4019d7:	c5 fd 7f 44 24 20    	vmovdqa %ymm0,0x20(%rsp)
  4019dd:	c5 fd 6f 44 24 20    	vmovdqa 0x20(%rsp),%ymm0
  4019e3:	c5 fd 6f 4c 24 40    	vmovdqa 0x40(%rsp),%ymm1
  4019e9:	c5 f5 db c0          	vpand  %ymm0,%ymm1,%ymm0
  4019ed:	c5 fd 7f 44 24 20    	vmovdqa %ymm0,0x20(%rsp)
  4019f3:	c5 fd 6f 44 24 20    	vmovdqa 0x20(%rsp),%ymm0
  4019f9:	c5 fd 6f 4c 24 40    	vmovdqa 0x40(%rsp),%ymm1
  4019ff:	c5 f5 db c0          	vpand  %ymm0,%ymm1,%ymm0
  401a03:	c5 fd 7f 44 24 20    	vmovdqa %ymm0,0x20(%rsp)
  401a09:	c5 fd 6f 44 24 20    	vmovdqa 0x20(%rsp),%ymm0
  401a0f:	c5 fd 6f 4c 24 40    	vmovdqa 0x40(%rsp),%ymm1
  401a15:	c5 f5 db c0          	vpand  %ymm0,%ymm1,%ymm0
  401a19:	c5 fd 7f 44 24 20    	vmovdqa %ymm0,0x20(%rsp)
  401a1f:	c5 fd 6f 44 24 20    	vmovdqa 0x20(%rsp),%ymm0
  401a25:	c5 fd 6f 4c 24 40    	vmovdqa 0x40(%rsp),%ymm1
  401a2b:	c5 f5 db c0          	vpand  %ymm0,%ymm1,%ymm0
  401a2f:	c5 fd 7f 44 24 20    	vmovdqa %ymm0,0x20(%rsp)
  401a35:	c5 fd 6f 44 24 20    	vmovdqa 0x20(%rsp),%ymm0
  401a3b:	c5 fd 6f 4c 24 40    	vmovdqa 0x40(%rsp),%ymm1
  401a41:	c5 f5 db c0          	vpand  %ymm0,%ymm1,%ymm0
  401a45:	c5 fd 7f 44 24 20    	vmovdqa %ymm0,0x20(%rsp)
  401a4b:	c5 fd 6f 44 24 20    	vmovdqa 0x20(%rsp),%ymm0
  401a51:	c5 fd 6f 4c 24 40    	vmovdqa 0x40(%rsp),%ymm1
  401a57:	c5 f5 db c0          	vpand  %ymm0,%ymm1,%ymm0
  401a5b:	c5 fd 7f 44 24 20    	vmovdqa %ymm0,0x20(%rsp)
  401a61:	c5 fd 6f 44 24 20    	vmovdqa 0x20(%rsp),%ymm0
  401a67:	c5 fd 6f 4c 24 40    	vmovdqa 0x40(%rsp),%ymm1
  401a6d:	c5 f5 db c0          	vpand  %ymm0,%ymm1,%ymm0
  401a71:	c5 fd 7f 44 24 20    	vmovdqa %ymm0,0x20(%rsp)
  401a77:	c5 fd 6f 44 24 20    	vmovdqa 0x20(%rsp),%ymm0
  401a7d:	c5 fd 6f 4c 24 40    	vmovdqa 0x40(%rsp),%ymm1
  401a83:	c5 f5 db c0          	vpand  %ymm0,%ymm1,%ymm0
  401a87:	c5 fd 7f 44 24 20    	vmovdqa %ymm0,0x20(%rsp)
  401a8d:	c5 fd 6f 44 24 20    	vmovdqa 0x20(%rsp),%ymm0
  401a93:	c5 fd 6f 4c 24 40    	vmovdqa 0x40(%rsp),%ymm1
  401a99:	c5 f5 db c0          	vpand  %ymm0,%ymm1,%ymm0
  401a9d:	c5 fd 7f 44 24 20    	vmovdqa %ymm0,0x20(%rsp)
  401aa3:	c5 fd 6f 44 24 20    	vmovdqa 0x20(%rsp),%ymm0
  401aa9:	c5 fd 6f 4c 24 40    	vmovdqa 0x40(%rsp),%ymm1
  401aaf:	c5 f5 db c0          	vpand  %ymm0,%ymm1,%ymm0
  401ab3:	c5 fd 7f 44 24 20    	vmovdqa %ymm0,0x20(%rsp)
  401ab9:	c5 fd 6f 44 24 20    	vmovdqa 0x20(%rsp),%ymm0
  401abf:	c5 fd 6f 4c 24 40    	vmovdqa 0x40(%rsp),%ymm1
  401ac5:	c5 f5 db c0          	vpand  %ymm0,%ymm1,%ymm0
  401ac9:	c5 fd 7f 44 24 20    	vmovdqa %ymm0,0x20(%rsp)
  401acf:	c5 fd 6f 44 24 20    	vmovdqa 0x20(%rsp),%ymm0
  401ad5:	c5 fd 6f 4c 24 40    	vmovdqa 0x40(%rsp),%ymm1
  401adb:	c5 f5 db c0          	vpand  %ymm0,%ymm1,%ymm0
  401adf:	c5 fd 7f 44 24 20    	vmovdqa %ymm0,0x20(%rsp)
  401ae5:	c5 fd 6f 44 24 20    	vmovdqa 0x20(%rsp),%ymm0
  401aeb:	c5 fd 6f 4c 24 40    	vmovdqa 0x40(%rsp),%ymm1
  401af1:	c5 f5 db c0          	vpand  %ymm0,%ymm1,%ymm0
  401af5:	c5 fd 7f 44 24 20    	vmovdqa %ymm0,0x20(%rsp)
  401afb:	c5 fd 6f 44 24 20    	vmovdqa 0x20(%rsp),%ymm0
  401b01:	c5 fd 6f 4c 24 40    	vmovdqa 0x40(%rsp),%ymm1
  401b07:	c5 f5 db c0          	vpand  %ymm0,%ymm1,%ymm0
  401b0b:	c5 fd 7f 44 24 20    	vmovdqa %ymm0,0x20(%rsp)
  401b11:	c5 fd 6f 44 24 20    	vmovdqa 0x20(%rsp),%ymm0
  401b17:	c5 fd 6f 4c 24 40    	vmovdqa 0x40(%rsp),%ymm1
  401b1d:	c5 f5 db c0          	vpand  %ymm0,%ymm1,%ymm0
  401b21:	c5 fd 7f 44 24 20    	vmovdqa %ymm0,0x20(%rsp)
  401b27:	c5 fd 6f 44 24 20    	vmovdqa 0x20(%rsp),%ymm0
  401b2d:	c5 fd 6f 4c 24 40    	vmovdqa 0x40(%rsp),%ymm1
  401b33:	c5 f5 db c0          	vpand  %ymm0,%ymm1,%ymm0
  401b37:	c5 fd 7f 44 24 20    	vmovdqa %ymm0,0x20(%rsp)
  401b3d:	c5 fd 6f 44 24 20    	vmovdqa 0x20(%rsp),%ymm0
  401b43:	c5 fd 6f 4c 24 40    	vmovdqa 0x40(%rsp),%ymm1
  401b49:	c5 f5 db c0          	vpand  %ymm0,%ymm1,%ymm0
  401b4d:	c5 fd 7f 44 24 20    	vmovdqa %ymm0,0x20(%rsp)
  401b53:	c5 fd 6f 44 24 20    	vmovdqa 0x20(%rsp),%ymm0
  401b59:	c5 fd 6f 4c 24 40    	vmovdqa 0x40(%rsp),%ymm1
  401b5f:	c5 f5 db c0          	vpand  %ymm0,%ymm1,%ymm0
  401b63:	c5 fd 7f 44 24 20    	vmovdqa %ymm0,0x20(%rsp)
  401b69:	c5 fd 6f 44 24 20    	vmovdqa 0x20(%rsp),%ymm0
  401b6f:	c5 fd 6f 4c 24 40    	vmovdqa 0x40(%rsp),%ymm1
  401b75:	c5 f5 db c0          	vpand  %ymm0,%ymm1,%ymm0
  401b79:	c5 fd 7f 44 24 20    	vmovdqa %ymm0,0x20(%rsp)
  401b7f:	c5 fd 6f 44 24 20    	vmovdqa 0x20(%rsp),%ymm0
  401b85:	c5 fd 6f 4c 24 40    	vmovdqa 0x40(%rsp),%ymm1
  401b8b:	c5 f5 db c0          	vpand  %ymm0,%ymm1,%ymm0
  401b8f:	c5 fd 7f 44 24 20    	vmovdqa %ymm0,0x20(%rsp)
  401b95:	c5 fd 6f 44 24 20    	vmovdqa 0x20(%rsp),%ymm0
  401b9b:	c5 fd 6f 4c 24 40    	vmovdqa 0x40(%rsp),%ymm1
  401ba1:	c5 f5 db c0          	vpand  %ymm0,%ymm1,%ymm0
  401ba5:	c5 fd 7f 44 24 20    	vmovdqa %ymm0,0x20(%rsp)
  401bab:	c5 fd 6f 44 24 20    	vmovdqa 0x20(%rsp),%ymm0
  401bb1:	c5 fd 6f 4c 24 40    	vmovdqa 0x40(%rsp),%ymm1
  401bb7:	c5 f5 db c0          	vpand  %ymm0,%ymm1,%ymm0
  401bbb:	c5 fd 7f 44 24 20    	vmovdqa %ymm0,0x20(%rsp)
  401bc1:	c5 fd 6f 44 24 20    	vmovdqa 0x20(%rsp),%ymm0
  401bc7:	c5 fd 6f 4c 24 40    	vmovdqa 0x40(%rsp),%ymm1
  401bcd:	c5 f5 db c0          	vpand  %ymm0,%ymm1,%ymm0
  401bd1:	c5 fd 7f 44 24 20    	vmovdqa %ymm0,0x20(%rsp)
  401bd7:	c5 fd 6f 44 24 20    	vmovdqa 0x20(%rsp),%ymm0
  401bdd:	c5 fd 6f 4c 24 40    	vmovdqa 0x40(%rsp),%ymm1
  401be3:	c5 f5 db c0          	vpand  %ymm0,%ymm1,%ymm0
  401be7:	c5 fd 7f 44 24 20    	vmovdqa %ymm0,0x20(%rsp)
  401bed:	c5 fd 6f 44 24 20    	vmovdqa 0x20(%rsp),%ymm0
  401bf3:	c5 fd 6f 4c 24 40    	vmovdqa 0x40(%rsp),%ymm1
  401bf9:	c5 f5 db c0          	vpand  %ymm0,%ymm1,%ymm0
  401bfd:	c5 fd 7f 44 24 20    	vmovdqa %ymm0,0x20(%rsp)
  401c03:	c5 fd 6f 44 24 20    	vmovdqa 0x20(%rsp),%ymm0
  401c09:	c5 fd 6f 4c 24 40    	vmovdqa 0x40(%rsp),%ymm1
  401c0f:	c5 f5 db c0          	vpand  %ymm0,%ymm1,%ymm0
  401c13:	c5 fd 7f 44 24 20    	vmovdqa %ymm0,0x20(%rsp)
  401c19:	c5 fd 6f 44 24 20    	vmovdqa 0x20(%rsp),%ymm0
  401c1f:	c5 fd 6f 4c 24 40    	vmovdqa 0x40(%rsp),%ymm1
  401c25:	c5 f5 db c0          	vpand  %ymm0,%ymm1,%ymm0
  401c29:	c5 fd 7f 44 24 20    	vmovdqa %ymm0,0x20(%rsp)
  401c2f:	c5 fd 6f 44 24 20    	vmovdqa 0x20(%rsp),%ymm0
  401c35:	c5 fd 6f 4c 24 40    	vmovdqa 0x40(%rsp),%ymm1
  401c3b:	c5 f5 db c0          	vpand  %ymm0,%ymm1,%ymm0
  401c3f:	c5 fd 7f 44 24 20    	vmovdqa %ymm0,0x20(%rsp)
  401c45:	c5 fd 6f 44 24 20    	vmovdqa 0x20(%rsp),%ymm0
  401c4b:	c5 fd 6f 4c 24 40    	vmovdqa 0x40(%rsp),%ymm1
  401c51:	c5 f5 db c0          	vpand  %ymm0,%ymm1,%ymm0
  401c55:	c5 fd 7f 44 24 20    	vmovdqa %ymm0,0x20(%rsp)
  401c5b:	c5 fd 6f 44 24 20    	vmovdqa 0x20(%rsp),%ymm0
  401c61:	c5 fd 6f 4c 24 40    	vmovdqa 0x40(%rsp),%ymm1
  401c67:	c5 f5 db c0          	vpand  %ymm0,%ymm1,%ymm0
  401c6b:	c5 fd 7f 44 24 20    	vmovdqa %ymm0,0x20(%rsp)
  401c71:	c5 fd 6f 44 24 20    	vmovdqa 0x20(%rsp),%ymm0
  401c77:	c5 fd 6f 4c 24 40    	vmovdqa 0x40(%rsp),%ymm1
  401c7d:	c5 f5 db c0          	vpand  %ymm0,%ymm1,%ymm0
  401c81:	c5 fd 7f 44 24 20    	vmovdqa %ymm0,0x20(%rsp)
  401c87:	c5 fd 6f 44 24 20    	vmovdqa 0x20(%rsp),%ymm0
  401c8d:	c5 fd 6f 4c 24 40    	vmovdqa 0x40(%rsp),%ymm1
  401c93:	c5 f5 db c0          	vpand  %ymm0,%ymm1,%ymm0
  401c97:	c5 fd 7f 44 24 20    	vmovdqa %ymm0,0x20(%rsp)
  401c9d:	c5 fd 6f 44 24 20    	vmovdqa 0x20(%rsp),%ymm0
  401ca3:	c5 fd 6f 4c 24 40    	vmovdqa 0x40(%rsp),%ymm1
  401ca9:	c5 f5 db c0          	vpand  %ymm0,%ymm1,%ymm0
  401cad:	c5 fd 7f 44 24 20    	vmovdqa %ymm0,0x20(%rsp)
  401cb3:	c5 fd 6f 44 24 20    	vmovdqa 0x20(%rsp),%ymm0
  401cb9:	c5 fd 6f 4c 24 40    	vmovdqa 0x40(%rsp),%ymm1
  401cbf:	c5 f5 db c0          	vpand  %ymm0,%ymm1,%ymm0
  401cc3:	c5 fd 7f 44 24 20    	vmovdqa %ymm0,0x20(%rsp)
  401cc9:	c5 fd 6f 44 24 20    	vmovdqa 0x20(%rsp),%ymm0
  401ccf:	c5 fd 6f 4c 24 40    	vmovdqa 0x40(%rsp),%ymm1
  401cd5:	c5 f5 db c0          	vpand  %ymm0,%ymm1,%ymm0
  401cd9:	c5 fd 7f 44 24 20    	vmovdqa %ymm0,0x20(%rsp)
  401cdf:	c5 fd 6f 44 24 20    	vmovdqa 0x20(%rsp),%ymm0
  401ce5:	c5 fd 6f 4c 24 40    	vmovdqa 0x40(%rsp),%ymm1
  401ceb:	c5 f5 db c0          	vpand  %ymm0,%ymm1,%ymm0
  401cef:	c5 fd 7f 44 24 20    	vmovdqa %ymm0,0x20(%rsp)
  401cf5:	c5 fd 6f 44 24 20    	vmovdqa 0x20(%rsp),%ymm0
  401cfb:	c5 fd 6f 4c 24 40    	vmovdqa 0x40(%rsp),%ymm1
  401d01:	c5 f5 db c0          	vpand  %ymm0,%ymm1,%ymm0
  401d05:	c5 fd 7f 44 24 20    	vmovdqa %ymm0,0x20(%rsp)
  401d0b:	c5 fd 6f 44 24 20    	vmovdqa 0x20(%rsp),%ymm0
  401d11:	c5 fd 6f 4c 24 40    	vmovdqa 0x40(%rsp),%ymm1
  401d17:	c5 f5 db c0          	vpand  %ymm0,%ymm1,%ymm0
  401d1b:	c5 fd 7f 44 24 20    	vmovdqa %ymm0,0x20(%rsp)
  401d21:	c5 fd 6f 44 24 20    	vmovdqa 0x20(%rsp),%ymm0
  401d27:	c5 fd 6f 4c 24 40    	vmovdqa 0x40(%rsp),%ymm1
  401d2d:	c5 f5 db c0          	vpand  %ymm0,%ymm1,%ymm0
  401d31:	c5 fd 7f 44 24 20    	vmovdqa %ymm0,0x20(%rsp)
  401d37:	c5 fd 6f 44 24 20    	vmovdqa 0x20(%rsp),%ymm0
  401d3d:	c5 fd 6f 4c 24 40    	vmovdqa 0x40(%rsp),%ymm1
  401d43:	c5 f5 db c0          	vpand  %ymm0,%ymm1,%ymm0
  401d47:	c5 fd 7f 44 24 20    	vmovdqa %ymm0,0x20(%rsp)
  401d4d:	c5 fd 6f 44 24 20    	vmovdqa 0x20(%rsp),%ymm0
  401d53:	c5 fd 6f 4c 24 40    	vmovdqa 0x40(%rsp),%ymm1
  401d59:	c5 f5 db c0          	vpand  %ymm0,%ymm1,%ymm0
  401d5d:	c5 fd 7f 44 24 20    	vmovdqa %ymm0,0x20(%rsp)
  401d63:	c5 fd 6f 44 24 20    	vmovdqa 0x20(%rsp),%ymm0
  401d69:	c5 fd 6f 4c 24 40    	vmovdqa 0x40(%rsp),%ymm1
  401d6f:	c5 f5 db c0          	vpand  %ymm0,%ymm1,%ymm0
  401d73:	c5 fd 7f 44 24 20    	vmovdqa %ymm0,0x20(%rsp)
  401d79:	c5 fd 6f 44 24 20    	vmovdqa 0x20(%rsp),%ymm0
  401d7f:	c5 fd 6f 4c 24 40    	vmovdqa 0x40(%rsp),%ymm1
  401d85:	c5 f5 db c0          	vpand  %ymm0,%ymm1,%ymm0
  401d89:	c5 fd 7f 44 24 20    	vmovdqa %ymm0,0x20(%rsp)
  401d8f:	c5 fd 6f 44 24 20    	vmovdqa 0x20(%rsp),%ymm0
  401d95:	c5 fd 6f 4c 24 40    	vmovdqa 0x40(%rsp),%ymm1
  401d9b:	c5 f5 db c0          	vpand  %ymm0,%ymm1,%ymm0
  401d9f:	c5 fd 7f 44 24 20    	vmovdqa %ymm0,0x20(%rsp)
  401da5:	c5 fd 6f 44 24 20    	vmovdqa 0x20(%rsp),%ymm0
  401dab:	c5 fd 6f 4c 24 40    	vmovdqa 0x40(%rsp),%ymm1
  401db1:	c5 f5 db c0          	vpand  %ymm0,%ymm1,%ymm0
  401db5:	c5 fd 7f 44 24 20    	vmovdqa %ymm0,0x20(%rsp)
  401dbb:	c5 fd 6f 44 24 20    	vmovdqa 0x20(%rsp),%ymm0
  401dc1:	c5 fd 6f 4c 24 40    	vmovdqa 0x40(%rsp),%ymm1
  401dc7:	c5 f5 db c0          	vpand  %ymm0,%ymm1,%ymm0
  401dcb:	c5 fd 7f 44 24 20    	vmovdqa %ymm0,0x20(%rsp)
  401dd1:	c5 fd 6f 44 24 20    	vmovdqa 0x20(%rsp),%ymm0
  401dd7:	c5 fd 6f 4c 24 40    	vmovdqa 0x40(%rsp),%ymm1
  401ddd:	c5 f5 db c0          	vpand  %ymm0,%ymm1,%ymm0
  401de1:	c5 fd 7f 44 24 20    	vmovdqa %ymm0,0x20(%rsp)
  401de7:	c5 fd 6f 44 24 20    	vmovdqa 0x20(%rsp),%ymm0
  401ded:	c5 fd 6f 4c 24 40    	vmovdqa 0x40(%rsp),%ymm1
  401df3:	c5 f5 db c0          	vpand  %ymm0,%ymm1,%ymm0
  401df7:	c5 fd 7f 44 24 20    	vmovdqa %ymm0,0x20(%rsp)
  401dfd:	c5 fd 6f 44 24 20    	vmovdqa 0x20(%rsp),%ymm0
  401e03:	c5 fd 6f 4c 24 40    	vmovdqa 0x40(%rsp),%ymm1
  401e09:	c5 f5 db c0          	vpand  %ymm0,%ymm1,%ymm0
  401e0d:	c5 fd 7f 44 24 20    	vmovdqa %ymm0,0x20(%rsp)
  401e13:	c5 fd 6f 44 24 20    	vmovdqa 0x20(%rsp),%ymm0
  401e19:	c5 fd 6f 4c 24 40    	vmovdqa 0x40(%rsp),%ymm1
  401e1f:	c5 f5 db c0          	vpand  %ymm0,%ymm1,%ymm0
  401e23:	c5 fd 7f 44 24 20    	vmovdqa %ymm0,0x20(%rsp)
  401e29:	c5 fd 6f 44 24 20    	vmovdqa 0x20(%rsp),%ymm0
  401e2f:	c5 fd 6f 4c 24 40    	vmovdqa 0x40(%rsp),%ymm1
  401e35:	c5 f5 db c0          	vpand  %ymm0,%ymm1,%ymm0
  401e39:	c5 fd 7f 44 24 20    	vmovdqa %ymm0,0x20(%rsp)
  401e3f:	c5 fd 6f 44 24 20    	vmovdqa 0x20(%rsp),%ymm0
  401e45:	c5 fd 6f 4c 24 40    	vmovdqa 0x40(%rsp),%ymm1
  401e4b:	c5 f5 db c0          	vpand  %ymm0,%ymm1,%ymm0
  401e4f:	c5 fd 7f 44 24 20    	vmovdqa %ymm0,0x20(%rsp)
  401e55:	c5 fd 6f 44 24 20    	vmovdqa 0x20(%rsp),%ymm0
  401e5b:	c5 fd 6f 4c 24 40    	vmovdqa 0x40(%rsp),%ymm1
  401e61:	c5 f5 db c0          	vpand  %ymm0,%ymm1,%ymm0
  401e65:	c5 fd 7f 44 24 20    	vmovdqa %ymm0,0x20(%rsp)
  401e6b:	c5 fd 6f 44 24 20    	vmovdqa 0x20(%rsp),%ymm0
  401e71:	c5 fd 6f 4c 24 40    	vmovdqa 0x40(%rsp),%ymm1
  401e77:	c5 f5 db c0          	vpand  %ymm0,%ymm1,%ymm0
  401e7b:	c5 fd 7f 44 24 20    	vmovdqa %ymm0,0x20(%rsp)
  401e81:	c5 fd 6f 44 24 20    	vmovdqa 0x20(%rsp),%ymm0
  401e87:	c5 fd 6f 4c 24 40    	vmovdqa 0x40(%rsp),%ymm1
  401e8d:	c5 f5 db c0          	vpand  %ymm0,%ymm1,%ymm0
  401e91:	c5 fd 7f 44 24 20    	vmovdqa %ymm0,0x20(%rsp)
  401e97:	c5 fd 6f 44 24 20    	vmovdqa 0x20(%rsp),%ymm0
  401e9d:	c5 fd 6f 4c 24 40    	vmovdqa 0x40(%rsp),%ymm1
  401ea3:	c5 f5 db c0          	vpand  %ymm0,%ymm1,%ymm0
  401ea7:	c5 fd 7f 44 24 20    	vmovdqa %ymm0,0x20(%rsp)
  401ead:	c5 fd 6f 44 24 20    	vmovdqa 0x20(%rsp),%ymm0
  401eb3:	c5 fd 6f 4c 24 40    	vmovdqa 0x40(%rsp),%ymm1
  401eb9:	c5 f5 db c0          	vpand  %ymm0,%ymm1,%ymm0
  401ebd:	c5 fd 7f 44 24 20    	vmovdqa %ymm0,0x20(%rsp)
  401ec3:	c5 fd 6f 44 24 20    	vmovdqa 0x20(%rsp),%ymm0
  401ec9:	c5 fd 6f 4c 24 40    	vmovdqa 0x40(%rsp),%ymm1
  401ecf:	c5 f5 db c0          	vpand  %ymm0,%ymm1,%ymm0
  401ed3:	c5 fd 7f 44 24 20    	vmovdqa %ymm0,0x20(%rsp)
  401ed9:	c5 fd 6f 44 24 20    	vmovdqa 0x20(%rsp),%ymm0
  401edf:	c5 fd 6f 4c 24 40    	vmovdqa 0x40(%rsp),%ymm1
  401ee5:	c5 f5 db c0          	vpand  %ymm0,%ymm1,%ymm0
  401ee9:	c5 fd 7f 44 24 20    	vmovdqa %ymm0,0x20(%rsp)
  401eef:	c5 fd 6f 44 24 20    	vmovdqa 0x20(%rsp),%ymm0
  401ef5:	c5 fd 6f 4c 24 40    	vmovdqa 0x40(%rsp),%ymm1
  401efb:	c5 f5 db c0          	vpand  %ymm0,%ymm1,%ymm0
  401eff:	c5 fd 7f 44 24 20    	vmovdqa %ymm0,0x20(%rsp)
  401f05:	c5 fd 6f 44 24 20    	vmovdqa 0x20(%rsp),%ymm0
  401f0b:	c5 fd 6f 4c 24 40    	vmovdqa 0x40(%rsp),%ymm1
  401f11:	c5 f5 db c0          	vpand  %ymm0,%ymm1,%ymm0
  401f15:	c5 fd 7f 44 24 20    	vmovdqa %ymm0,0x20(%rsp)
  401f1b:	c5 fd 6f 44 24 20    	vmovdqa 0x20(%rsp),%ymm0
  401f21:	c5 fd 6f 4c 24 40    	vmovdqa 0x40(%rsp),%ymm1
  401f27:	c5 f5 db c0          	vpand  %ymm0,%ymm1,%ymm0
  401f2b:	c5 fd 7f 44 24 20    	vmovdqa %ymm0,0x20(%rsp)
  401f31:	c5 fd 6f 44 24 20    	vmovdqa 0x20(%rsp),%ymm0
  401f37:	c5 fd 6f 4c 24 40    	vmovdqa 0x40(%rsp),%ymm1
  401f3d:	c5 f5 db c0          	vpand  %ymm0,%ymm1,%ymm0
  401f41:	c5 fd 7f 44 24 20    	vmovdqa %ymm0,0x20(%rsp)
  401f47:	c5 fd 6f 44 24 20    	vmovdqa 0x20(%rsp),%ymm0
  401f4d:	c5 fd 6f 4c 24 40    	vmovdqa 0x40(%rsp),%ymm1
  401f53:	c5 f5 db c0          	vpand  %ymm0,%ymm1,%ymm0
  401f57:	c5 fd 7f 44 24 20    	vmovdqa %ymm0,0x20(%rsp)
  401f5d:	c5 fd 6f 44 24 20    	vmovdqa 0x20(%rsp),%ymm0
  401f63:	c5 fd 6f 4c 24 40    	vmovdqa 0x40(%rsp),%ymm1
  401f69:	c5 f5 db c0          	vpand  %ymm0,%ymm1,%ymm0
  401f6d:	c5 fd 7f 44 24 20    	vmovdqa %ymm0,0x20(%rsp)
  401f73:	c5 fd 6f 44 24 20    	vmovdqa 0x20(%rsp),%ymm0
  401f79:	c5 fd 6f 4c 24 40    	vmovdqa 0x40(%rsp),%ymm1
  401f7f:	c5 f5 db c0          	vpand  %ymm0,%ymm1,%ymm0
  401f83:	c5 fd 7f 44 24 20    	vmovdqa %ymm0,0x20(%rsp)
  401f89:	c5 fd 6f 44 24 20    	vmovdqa 0x20(%rsp),%ymm0
  401f8f:	c5 fd 6f 4c 24 40    	vmovdqa 0x40(%rsp),%ymm1
  401f95:	c5 f5 db c0          	vpand  %ymm0,%ymm1,%ymm0
  401f99:	c5 fd 7f 44 24 20    	vmovdqa %ymm0,0x20(%rsp)
  401f9f:	c5 fd 6f 44 24 20    	vmovdqa 0x20(%rsp),%ymm0
  401fa5:	c5 fd 6f 4c 24 40    	vmovdqa 0x40(%rsp),%ymm1
  401fab:	c5 f5 db c0          	vpand  %ymm0,%ymm1,%ymm0
  401faf:	c5 fd 7f 44 24 20    	vmovdqa %ymm0,0x20(%rsp)
  401fb5:	c5 fd 6f 44 24 20    	vmovdqa 0x20(%rsp),%ymm0
  401fbb:	c5 fd 6f 4c 24 40    	vmovdqa 0x40(%rsp),%ymm1
  401fc1:	c5 f5 db c0          	vpand  %ymm0,%ymm1,%ymm0
  401fc5:	c5 fd 7f 44 24 20    	vmovdqa %ymm0,0x20(%rsp)
  401fcb:	c5 fd 6f 44 24 20    	vmovdqa 0x20(%rsp),%ymm0
  401fd1:	c5 fd 6f 4c 24 40    	vmovdqa 0x40(%rsp),%ymm1
  401fd7:	c5 f5 db c0          	vpand  %ymm0,%ymm1,%ymm0
  401fdb:	c5 fd 7f 44 24 20    	vmovdqa %ymm0,0x20(%rsp)
  401fe1:	c5 fd 6f 44 24 20    	vmovdqa 0x20(%rsp),%ymm0
  401fe7:	c5 fd 6f 4c 24 40    	vmovdqa 0x40(%rsp),%ymm1
  401fed:	c5 f5 db c0          	vpand  %ymm0,%ymm1,%ymm0
  401ff1:	c5 fd 7f 44 24 20    	vmovdqa %ymm0,0x20(%rsp)
  401ff7:	c5 fd 6f 44 24 20    	vmovdqa 0x20(%rsp),%ymm0
  401ffd:	c5 fd 6f 4c 24 40    	vmovdqa 0x40(%rsp),%ymm1
  402003:	c5 f5 db c0          	vpand  %ymm0,%ymm1,%ymm0
  402007:	c5 fd 7f 44 24 20    	vmovdqa %ymm0,0x20(%rsp)
  40200d:	c5 fd 6f 44 24 20    	vmovdqa 0x20(%rsp),%ymm0
  402013:	c5 fd 6f 4c 24 40    	vmovdqa 0x40(%rsp),%ymm1
  402019:	c5 f5 db c0          	vpand  %ymm0,%ymm1,%ymm0
  40201d:	c5 fd 7f 44 24 20    	vmovdqa %ymm0,0x20(%rsp)
  402023:	c5 fd 6f 44 24 20    	vmovdqa 0x20(%rsp),%ymm0
  402029:	c5 fd 6f 4c 24 40    	vmovdqa 0x40(%rsp),%ymm1
  40202f:	c5 f5 db c0          	vpand  %ymm0,%ymm1,%ymm0
  402033:	c5 fd 7f 44 24 20    	vmovdqa %ymm0,0x20(%rsp)
  402039:	c5 fd 6f 44 24 20    	vmovdqa 0x20(%rsp),%ymm0
  40203f:	c5 fd 6f 4c 24 40    	vmovdqa 0x40(%rsp),%ymm1
  402045:	c5 f5 db c0          	vpand  %ymm0,%ymm1,%ymm0
  402049:	c5 fd 7f 44 24 20    	vmovdqa %ymm0,0x20(%rsp)
  40204f:	c5 fd 6f 44 24 20    	vmovdqa 0x20(%rsp),%ymm0
  402055:	c5 fd 6f 4c 24 40    	vmovdqa 0x40(%rsp),%ymm1
  40205b:	c5 f5 db c0          	vpand  %ymm0,%ymm1,%ymm0
  40205f:	c5 fd 7f 44 24 20    	vmovdqa %ymm0,0x20(%rsp)
  402065:	c5 fd 6f 44 24 20    	vmovdqa 0x20(%rsp),%ymm0
  40206b:	c5 fd 6f 4c 24 40    	vmovdqa 0x40(%rsp),%ymm1
  402071:	c5 f5 db c0          	vpand  %ymm0,%ymm1,%ymm0
  402075:	c5 fd 7f 44 24 20    	vmovdqa %ymm0,0x20(%rsp)
  40207b:	c5 fd 6f 44 24 20    	vmovdqa 0x20(%rsp),%ymm0
  402081:	c5 fd 6f 4c 24 40    	vmovdqa 0x40(%rsp),%ymm1
  402087:	c5 f5 db c0          	vpand  %ymm0,%ymm1,%ymm0
  40208b:	c5 fd 7f 44 24 20    	vmovdqa %ymm0,0x20(%rsp)
  402091:	c5 fd 6f 44 24 20    	vmovdqa 0x20(%rsp),%ymm0
  402097:	c5 fd 6f 4c 24 40    	vmovdqa 0x40(%rsp),%ymm1
  40209d:	c5 f5 db c0          	vpand  %ymm0,%ymm1,%ymm0
  4020a1:	c5 fd 7f 44 24 20    	vmovdqa %ymm0,0x20(%rsp)
  4020a7:	c5 fd 6f 44 24 20    	vmovdqa 0x20(%rsp),%ymm0
  4020ad:	c5 fd 6f 4c 24 40    	vmovdqa 0x40(%rsp),%ymm1
  4020b3:	c5 f5 db c0          	vpand  %ymm0,%ymm1,%ymm0
  4020b7:	c5 fd 7f 44 24 20    	vmovdqa %ymm0,0x20(%rsp)
  4020bd:	c5 fd 6f 44 24 20    	vmovdqa 0x20(%rsp),%ymm0
  4020c3:	c5 fd 6f 4c 24 40    	vmovdqa 0x40(%rsp),%ymm1
  4020c9:	c5 f5 db c0          	vpand  %ymm0,%ymm1,%ymm0
  4020cd:	c5 fd 7f 44 24 20    	vmovdqa %ymm0,0x20(%rsp)
  4020d3:	c5 fd 6f 44 24 20    	vmovdqa 0x20(%rsp),%ymm0
  4020d9:	c5 fd 6f 4c 24 40    	vmovdqa 0x40(%rsp),%ymm1
  4020df:	c5 f5 db c0          	vpand  %ymm0,%ymm1,%ymm0
  4020e3:	c5 fd 7f 44 24 20    	vmovdqa %ymm0,0x20(%rsp)
  4020e9:	c5 fd 6f 44 24 20    	vmovdqa 0x20(%rsp),%ymm0
  4020ef:	c5 fd 6f 4c 24 40    	vmovdqa 0x40(%rsp),%ymm1
  4020f5:	c5 f5 db c0          	vpand  %ymm0,%ymm1,%ymm0
  4020f9:	c5 fd 7f 44 24 20    	vmovdqa %ymm0,0x20(%rsp)
  4020ff:	c5 fd 6f 44 24 20    	vmovdqa 0x20(%rsp),%ymm0
  402105:	c5 fd 6f 4c 24 40    	vmovdqa 0x40(%rsp),%ymm1
  40210b:	c5 f5 db c0          	vpand  %ymm0,%ymm1,%ymm0
  40210f:	c5 fd 7f 44 24 20    	vmovdqa %ymm0,0x20(%rsp)
  402115:	c5 fd 6f 44 24 20    	vmovdqa 0x20(%rsp),%ymm0
  40211b:	c5 fd 6f 4c 24 40    	vmovdqa 0x40(%rsp),%ymm1
  402121:	c5 f5 db c0          	vpand  %ymm0,%ymm1,%ymm0
  402125:	c5 fd 7f 44 24 20    	vmovdqa %ymm0,0x20(%rsp)
  40212b:	c5 fd 6f 44 24 20    	vmovdqa 0x20(%rsp),%ymm0
  402131:	c5 fd 6f 4c 24 40    	vmovdqa 0x40(%rsp),%ymm1
  402137:	c5 f5 db c0          	vpand  %ymm0,%ymm1,%ymm0
  40213b:	c5 fd 7f 44 24 20    	vmovdqa %ymm0,0x20(%rsp)
  402141:	c5 fd 6f 44 24 20    	vmovdqa 0x20(%rsp),%ymm0
  402147:	c5 fd 6f 4c 24 40    	vmovdqa 0x40(%rsp),%ymm1
  40214d:	c5 f5 db c0          	vpand  %ymm0,%ymm1,%ymm0
  402151:	c5 fd 7f 44 24 20    	vmovdqa %ymm0,0x20(%rsp)
  402157:	c5 fd 6f 44 24 20    	vmovdqa 0x20(%rsp),%ymm0
  40215d:	c5 fd 6f 4c 24 40    	vmovdqa 0x40(%rsp),%ymm1
  402163:	c5 f5 db c0          	vpand  %ymm0,%ymm1,%ymm0
  402167:	c5 fd 7f 44 24 20    	vmovdqa %ymm0,0x20(%rsp)
  40216d:	c5 fd 6f 44 24 20    	vmovdqa 0x20(%rsp),%ymm0
  402173:	c5 fd 6f 4c 24 40    	vmovdqa 0x40(%rsp),%ymm1
  402179:	c5 f5 db c0          	vpand  %ymm0,%ymm1,%ymm0
  40217d:	c5 fd 7f 44 24 20    	vmovdqa %ymm0,0x20(%rsp)
  402183:	c5 fd 6f 44 24 20    	vmovdqa 0x20(%rsp),%ymm0
  402189:	c5 fd 6f 4c 24 40    	vmovdqa 0x40(%rsp),%ymm1
  40218f:	c5 f5 db c0          	vpand  %ymm0,%ymm1,%ymm0
  402193:	c5 fd 7f 44 24 20    	vmovdqa %ymm0,0x20(%rsp)
  402199:	c5 fd 6f 44 24 20    	vmovdqa 0x20(%rsp),%ymm0
  40219f:	c5 fd 6f 4c 24 40    	vmovdqa 0x40(%rsp),%ymm1
  4021a5:	c5 f5 db c0          	vpand  %ymm0,%ymm1,%ymm0
  4021a9:	c5 fd 7f 44 24 20    	vmovdqa %ymm0,0x20(%rsp)
  4021af:	c5 fd 6f 44 24 20    	vmovdqa 0x20(%rsp),%ymm0
  4021b5:	c5 fd 6f 4c 24 40    	vmovdqa 0x40(%rsp),%ymm1
  4021bb:	c5 f5 db c0          	vpand  %ymm0,%ymm1,%ymm0
  4021bf:	c5 fd 7f 44 24 20    	vmovdqa %ymm0,0x20(%rsp)
  4021c5:	c5 fd 6f 44 24 20    	vmovdqa 0x20(%rsp),%ymm0
  4021cb:	c5 fd 6f 4c 24 40    	vmovdqa 0x40(%rsp),%ymm1
  4021d1:	c5 f5 db c0          	vpand  %ymm0,%ymm1,%ymm0
  4021d5:	c5 fd 7f 44 24 20    	vmovdqa %ymm0,0x20(%rsp)
  4021db:	c5 fd 6f 44 24 20    	vmovdqa 0x20(%rsp),%ymm0
  4021e1:	c5 fd 6f 4c 24 40    	vmovdqa 0x40(%rsp),%ymm1
  4021e7:	c5 f5 db c0          	vpand  %ymm0,%ymm1,%ymm0
  4021eb:	c5 fd 7f 44 24 20    	vmovdqa %ymm0,0x20(%rsp)
  4021f1:	c5 fd 6f 44 24 20    	vmovdqa 0x20(%rsp),%ymm0
  4021f7:	c5 fd 6f 4c 24 40    	vmovdqa 0x40(%rsp),%ymm1
  4021fd:	c5 f5 db c0          	vpand  %ymm0,%ymm1,%ymm0
  402201:	c5 fd 7f 44 24 20    	vmovdqa %ymm0,0x20(%rsp)
  402207:	c5 fd 6f 44 24 20    	vmovdqa 0x20(%rsp),%ymm0
  40220d:	c5 fd 6f 4c 24 40    	vmovdqa 0x40(%rsp),%ymm1
  402213:	c5 f5 db c0          	vpand  %ymm0,%ymm1,%ymm0
  402217:	c5 fd 7f 44 24 20    	vmovdqa %ymm0,0x20(%rsp)
  40221d:	c5 fd 6f 44 24 20    	vmovdqa 0x20(%rsp),%ymm0
  402223:	c5 fd 6f 4c 24 40    	vmovdqa 0x40(%rsp),%ymm1
  402229:	c5 f5 db c0          	vpand  %ymm0,%ymm1,%ymm0
  40222d:	c5 fd 7f 44 24 20    	vmovdqa %ymm0,0x20(%rsp)
  402233:	c5 fd 6f 44 24 20    	vmovdqa 0x20(%rsp),%ymm0
  402239:	c5 fd 6f 4c 24 40    	vmovdqa 0x40(%rsp),%ymm1
  40223f:	c5 f5 db c0          	vpand  %ymm0,%ymm1,%ymm0
  402243:	c5 fd 7f 44 24 20    	vmovdqa %ymm0,0x20(%rsp)
  402249:	c5 fd 6f 44 24 20    	vmovdqa 0x20(%rsp),%ymm0
  40224f:	c5 fd 6f 4c 24 40    	vmovdqa 0x40(%rsp),%ymm1
  402255:	c5 f5 db c0          	vpand  %ymm0,%ymm1,%ymm0
  402259:	c5 fd 7f 44 24 20    	vmovdqa %ymm0,0x20(%rsp)
  40225f:	c5 fd 6f 44 24 20    	vmovdqa 0x20(%rsp),%ymm0
  402265:	c5 fd 6f 4c 24 40    	vmovdqa 0x40(%rsp),%ymm1
  40226b:	c5 f5 db c0          	vpand  %ymm0,%ymm1,%ymm0
  40226f:	c5 fd 7f 44 24 20    	vmovdqa %ymm0,0x20(%rsp)
  402275:	c5 fd 6f 44 24 20    	vmovdqa 0x20(%rsp),%ymm0
  40227b:	c5 fd 6f 4c 24 40    	vmovdqa 0x40(%rsp),%ymm1
  402281:	c5 f5 db c0          	vpand  %ymm0,%ymm1,%ymm0
  402285:	c5 fd 7f 44 24 20    	vmovdqa %ymm0,0x20(%rsp)
  40228b:	c5 fd 6f 44 24 20    	vmovdqa 0x20(%rsp),%ymm0
  402291:	c5 fd 6f 4c 24 40    	vmovdqa 0x40(%rsp),%ymm1
  402297:	c5 f5 db c0          	vpand  %ymm0,%ymm1,%ymm0
  40229b:	c5 fd 7f 44 24 20    	vmovdqa %ymm0,0x20(%rsp)
  4022a1:	c5 fd 6f 44 24 20    	vmovdqa 0x20(%rsp),%ymm0
  4022a7:	c5 fd 6f 4c 24 40    	vmovdqa 0x40(%rsp),%ymm1
  4022ad:	c5 f5 db c0          	vpand  %ymm0,%ymm1,%ymm0
  4022b1:	c5 fd 7f 44 24 20    	vmovdqa %ymm0,0x20(%rsp)
  4022b7:	c5 fd 6f 44 24 20    	vmovdqa 0x20(%rsp),%ymm0
  4022bd:	c5 fd 6f 4c 24 40    	vmovdqa 0x40(%rsp),%ymm1
  4022c3:	c5 f5 db c0          	vpand  %ymm0,%ymm1,%ymm0
  4022c7:	c5 fd 7f 44 24 20    	vmovdqa %ymm0,0x20(%rsp)
  4022cd:	c5 fd 6f 44 24 20    	vmovdqa 0x20(%rsp),%ymm0
  4022d3:	c5 fd 6f 4c 24 40    	vmovdqa 0x40(%rsp),%ymm1
  4022d9:	c5 f5 db c0          	vpand  %ymm0,%ymm1,%ymm0
  4022dd:	c5 fd 7f 44 24 20    	vmovdqa %ymm0,0x20(%rsp)
  4022e3:	c5 fd 6f 44 24 20    	vmovdqa 0x20(%rsp),%ymm0
  4022e9:	c5 fd 6f 4c 24 40    	vmovdqa 0x40(%rsp),%ymm1
  4022ef:	c5 f5 db c0          	vpand  %ymm0,%ymm1,%ymm0
  4022f3:	c5 fd 7f 44 24 20    	vmovdqa %ymm0,0x20(%rsp)
  4022f9:	c5 fd 6f 44 24 20    	vmovdqa 0x20(%rsp),%ymm0
  4022ff:	c5 fd 6f 4c 24 40    	vmovdqa 0x40(%rsp),%ymm1
  402305:	c5 f5 db c0          	vpand  %ymm0,%ymm1,%ymm0
  402309:	c5 fd 7f 44 24 20    	vmovdqa %ymm0,0x20(%rsp)
  40230f:	c5 fd 6f 44 24 20    	vmovdqa 0x20(%rsp),%ymm0
  402315:	c5 fd 6f 4c 24 40    	vmovdqa 0x40(%rsp),%ymm1
  40231b:	c5 f5 db c0          	vpand  %ymm0,%ymm1,%ymm0
  40231f:	c5 fd 7f 44 24 20    	vmovdqa %ymm0,0x20(%rsp)
  402325:	c5 fd 6f 44 24 20    	vmovdqa 0x20(%rsp),%ymm0
  40232b:	c5 fd 6f 4c 24 40    	vmovdqa 0x40(%rsp),%ymm1
  402331:	c5 f5 db c0          	vpand  %ymm0,%ymm1,%ymm0
  402335:	c5 fd 7f 44 24 20    	vmovdqa %ymm0,0x20(%rsp)
  40233b:	c5 fd 6f 44 24 20    	vmovdqa 0x20(%rsp),%ymm0
  402341:	c5 fd 6f 4c 24 40    	vmovdqa 0x40(%rsp),%ymm1
  402347:	c5 f5 db c0          	vpand  %ymm0,%ymm1,%ymm0
  40234b:	c5 fd 7f 44 24 20    	vmovdqa %ymm0,0x20(%rsp)
  402351:	c5 fd 6f 44 24 20    	vmovdqa 0x20(%rsp),%ymm0
  402357:	c5 fd 6f 4c 24 40    	vmovdqa 0x40(%rsp),%ymm1
  40235d:	c5 f5 db c0          	vpand  %ymm0,%ymm1,%ymm0
  402361:	c5 fd 7f 44 24 20    	vmovdqa %ymm0,0x20(%rsp)
  402367:	c5 fd 6f 44 24 20    	vmovdqa 0x20(%rsp),%ymm0
  40236d:	c5 fd 6f 4c 24 40    	vmovdqa 0x40(%rsp),%ymm1
  402373:	c5 f5 db c0          	vpand  %ymm0,%ymm1,%ymm0
  402377:	c5 fd 7f 44 24 20    	vmovdqa %ymm0,0x20(%rsp)
  40237d:	c5 fd 6f 44 24 20    	vmovdqa 0x20(%rsp),%ymm0
  402383:	c5 fd 6f 4c 24 40    	vmovdqa 0x40(%rsp),%ymm1
  402389:	c5 f5 db c0          	vpand  %ymm0,%ymm1,%ymm0
  40238d:	c5 fd 7f 44 24 20    	vmovdqa %ymm0,0x20(%rsp)
  402393:	c5 fd 6f 44 24 20    	vmovdqa 0x20(%rsp),%ymm0
  402399:	c5 fd 6f 4c 24 40    	vmovdqa 0x40(%rsp),%ymm1
  40239f:	c5 f5 db c0          	vpand  %ymm0,%ymm1,%ymm0
  4023a3:	c5 fd 7f 44 24 20    	vmovdqa %ymm0,0x20(%rsp)
  4023a9:	c5 fd 6f 44 24 20    	vmovdqa 0x20(%rsp),%ymm0
  4023af:	c5 fd 6f 4c 24 40    	vmovdqa 0x40(%rsp),%ymm1
  4023b5:	c5 f5 db c0          	vpand  %ymm0,%ymm1,%ymm0
  4023b9:	c5 fd 7f 44 24 20    	vmovdqa %ymm0,0x20(%rsp)
  4023bf:	c5 fd 6f 44 24 20    	vmovdqa 0x20(%rsp),%ymm0
  4023c5:	c5 fd 6f 4c 24 40    	vmovdqa 0x40(%rsp),%ymm1
  4023cb:	c5 f5 db c0          	vpand  %ymm0,%ymm1,%ymm0
  4023cf:	c5 fd 7f 44 24 20    	vmovdqa %ymm0,0x20(%rsp)
  4023d5:	c5 fd 6f 44 24 20    	vmovdqa 0x20(%rsp),%ymm0
  4023db:	c5 fd 6f 4c 24 40    	vmovdqa 0x40(%rsp),%ymm1
  4023e1:	c5 f5 db c0          	vpand  %ymm0,%ymm1,%ymm0
  4023e5:	c5 fd 7f 44 24 20    	vmovdqa %ymm0,0x20(%rsp)
  4023eb:	c5 fd 6f 44 24 20    	vmovdqa 0x20(%rsp),%ymm0
  4023f1:	c5 fd 6f 4c 24 40    	vmovdqa 0x40(%rsp),%ymm1
  4023f7:	c5 f5 db c0          	vpand  %ymm0,%ymm1,%ymm0
  4023fb:	c5 fd 7f 44 24 20    	vmovdqa %ymm0,0x20(%rsp)
  402401:	c5 fd 6f 44 24 20    	vmovdqa 0x20(%rsp),%ymm0
  402407:	c5 fd 6f 4c 24 40    	vmovdqa 0x40(%rsp),%ymm1
  40240d:	c5 f5 db c0          	vpand  %ymm0,%ymm1,%ymm0
  402411:	c5 fd 7f 44 24 20    	vmovdqa %ymm0,0x20(%rsp)
  402417:	c5 fd 6f 44 24 20    	vmovdqa 0x20(%rsp),%ymm0
  40241d:	c5 fd 6f 4c 24 40    	vmovdqa 0x40(%rsp),%ymm1
  402423:	c5 f5 db c0          	vpand  %ymm0,%ymm1,%ymm0
  402427:	c5 fd 7f 44 24 20    	vmovdqa %ymm0,0x20(%rsp)
  40242d:	c5 fd 6f 44 24 20    	vmovdqa 0x20(%rsp),%ymm0
  402433:	c5 fd 6f 4c 24 40    	vmovdqa 0x40(%rsp),%ymm1
  402439:	c5 f5 db c0          	vpand  %ymm0,%ymm1,%ymm0
  40243d:	c5 fd 7f 44 24 20    	vmovdqa %ymm0,0x20(%rsp)
  402443:	c5 fd 6f 44 24 20    	vmovdqa 0x20(%rsp),%ymm0
  402449:	c5 fd 6f 4c 24 40    	vmovdqa 0x40(%rsp),%ymm1
  40244f:	c5 f5 db c0          	vpand  %ymm0,%ymm1,%ymm0
  402453:	c5 fd 7f 44 24 20    	vmovdqa %ymm0,0x20(%rsp)
  402459:	c5 fd 6f 44 24 20    	vmovdqa 0x20(%rsp),%ymm0
  40245f:	c5 fd 6f 4c 24 40    	vmovdqa 0x40(%rsp),%ymm1
  402465:	c5 f5 db c0          	vpand  %ymm0,%ymm1,%ymm0
  402469:	c5 fd 7f 44 24 20    	vmovdqa %ymm0,0x20(%rsp)
  40246f:	c5 fd 6f 44 24 20    	vmovdqa 0x20(%rsp),%ymm0
  402475:	c5 fd 6f 4c 24 40    	vmovdqa 0x40(%rsp),%ymm1
  40247b:	c5 f5 db c0          	vpand  %ymm0,%ymm1,%ymm0
  40247f:	c5 fd 7f 44 24 20    	vmovdqa %ymm0,0x20(%rsp)
  402485:	c5 fd 6f 44 24 20    	vmovdqa 0x20(%rsp),%ymm0
  40248b:	c5 fd 6f 4c 24 40    	vmovdqa 0x40(%rsp),%ymm1
  402491:	c5 f5 db c0          	vpand  %ymm0,%ymm1,%ymm0
  402495:	c5 fd 7f 44 24 20    	vmovdqa %ymm0,0x20(%rsp)
  40249b:	c5 fd 6f 44 24 20    	vmovdqa 0x20(%rsp),%ymm0
  4024a1:	c5 fd 6f 4c 24 40    	vmovdqa 0x40(%rsp),%ymm1
  4024a7:	c5 f5 db c0          	vpand  %ymm0,%ymm1,%ymm0
  4024ab:	c5 fd 7f 44 24 20    	vmovdqa %ymm0,0x20(%rsp)
  4024b1:	c5 fd 6f 44 24 20    	vmovdqa 0x20(%rsp),%ymm0
  4024b7:	c5 fd 6f 4c 24 40    	vmovdqa 0x40(%rsp),%ymm1
  4024bd:	c5 f5 db c0          	vpand  %ymm0,%ymm1,%ymm0
  4024c1:	c5 fd 7f 44 24 20    	vmovdqa %ymm0,0x20(%rsp)
  4024c7:	c5 fd 6f 44 24 20    	vmovdqa 0x20(%rsp),%ymm0
  4024cd:	c5 fd 6f 4c 24 40    	vmovdqa 0x40(%rsp),%ymm1
  4024d3:	c5 f5 db c0          	vpand  %ymm0,%ymm1,%ymm0
  4024d7:	c5 fd 7f 44 24 20    	vmovdqa %ymm0,0x20(%rsp)
  4024dd:	c5 fd 6f 44 24 20    	vmovdqa 0x20(%rsp),%ymm0
  4024e3:	c5 fd 6f 4c 24 40    	vmovdqa 0x40(%rsp),%ymm1
  4024e9:	c5 f5 db c0          	vpand  %ymm0,%ymm1,%ymm0
  4024ed:	c5 fd 7f 44 24 20    	vmovdqa %ymm0,0x20(%rsp)
  4024f3:	c5 fd 6f 44 24 20    	vmovdqa 0x20(%rsp),%ymm0
  4024f9:	c5 fd 6f 4c 24 40    	vmovdqa 0x40(%rsp),%ymm1
  4024ff:	c5 f5 db c0          	vpand  %ymm0,%ymm1,%ymm0
  402503:	c5 fd 7f 44 24 20    	vmovdqa %ymm0,0x20(%rsp)
  402509:	c5 fd 6f 44 24 20    	vmovdqa 0x20(%rsp),%ymm0
  40250f:	c5 fd 6f 4c 24 40    	vmovdqa 0x40(%rsp),%ymm1
  402515:	c5 f5 db c0          	vpand  %ymm0,%ymm1,%ymm0
  402519:	c5 fd 7f 44 24 20    	vmovdqa %ymm0,0x20(%rsp)
  40251f:	c5 fd 6f 44 24 20    	vmovdqa 0x20(%rsp),%ymm0
  402525:	c5 fd 6f 4c 24 40    	vmovdqa 0x40(%rsp),%ymm1
  40252b:	c5 f5 db c0          	vpand  %ymm0,%ymm1,%ymm0
  40252f:	c5 fd 7f 44 24 20    	vmovdqa %ymm0,0x20(%rsp)
  402535:	c5 fd 6f 44 24 20    	vmovdqa 0x20(%rsp),%ymm0
  40253b:	c5 fd 6f 4c 24 40    	vmovdqa 0x40(%rsp),%ymm1
  402541:	c5 f5 db c0          	vpand  %ymm0,%ymm1,%ymm0
  402545:	c5 fd 7f 44 24 20    	vmovdqa %ymm0,0x20(%rsp)
  40254b:	c5 fd 6f 44 24 20    	vmovdqa 0x20(%rsp),%ymm0
  402551:	c5 fd 6f 4c 24 40    	vmovdqa 0x40(%rsp),%ymm1
  402557:	c5 f5 db c0          	vpand  %ymm0,%ymm1,%ymm0
  40255b:	c5 fd 7f 44 24 20    	vmovdqa %ymm0,0x20(%rsp)
  402561:	c5 fd 6f 44 24 20    	vmovdqa 0x20(%rsp),%ymm0
  402567:	c5 fd 6f 4c 24 40    	vmovdqa 0x40(%rsp),%ymm1
  40256d:	c5 f5 db c0          	vpand  %ymm0,%ymm1,%ymm0
  402571:	c5 fd 7f 44 24 20    	vmovdqa %ymm0,0x20(%rsp)
  402577:	c5 fd 6f 44 24 20    	vmovdqa 0x20(%rsp),%ymm0
  40257d:	c5 fd 6f 4c 24 40    	vmovdqa 0x40(%rsp),%ymm1
  402583:	c5 f5 db c0          	vpand  %ymm0,%ymm1,%ymm0
  402587:	c5 fd 7f 44 24 20    	vmovdqa %ymm0,0x20(%rsp)
  40258d:	c5 fd 6f 44 24 20    	vmovdqa 0x20(%rsp),%ymm0
  402593:	c5 fd 6f 4c 24 40    	vmovdqa 0x40(%rsp),%ymm1
  402599:	c5 f5 db c0          	vpand  %ymm0,%ymm1,%ymm0
  40259d:	c5 fd 7f 44 24 20    	vmovdqa %ymm0,0x20(%rsp)
  4025a3:	c5 fd 6f 44 24 20    	vmovdqa 0x20(%rsp),%ymm0
  4025a9:	c5 fd 6f 4c 24 40    	vmovdqa 0x40(%rsp),%ymm1
  4025af:	c5 f5 db c0          	vpand  %ymm0,%ymm1,%ymm0
  4025b3:	c5 fd 7f 44 24 20    	vmovdqa %ymm0,0x20(%rsp)
  4025b9:	c5 fd 6f 44 24 20    	vmovdqa 0x20(%rsp),%ymm0
  4025bf:	c5 fd 6f 4c 24 40    	vmovdqa 0x40(%rsp),%ymm1
  4025c5:	c5 f5 db c0          	vpand  %ymm0,%ymm1,%ymm0
  4025c9:	c5 fd 7f 44 24 20    	vmovdqa %ymm0,0x20(%rsp)
  4025cf:	c5 fd 6f 44 24 20    	vmovdqa 0x20(%rsp),%ymm0
  4025d5:	c5 fd 6f 4c 24 40    	vmovdqa 0x40(%rsp),%ymm1
  4025db:	c5 f5 db c0          	vpand  %ymm0,%ymm1,%ymm0
  4025df:	c5 fd 7f 44 24 20    	vmovdqa %ymm0,0x20(%rsp)
  4025e5:	c5 fd 6f 44 24 20    	vmovdqa 0x20(%rsp),%ymm0
  4025eb:	c5 fd 6f 4c 24 40    	vmovdqa 0x40(%rsp),%ymm1
  4025f1:	c5 f5 db c0          	vpand  %ymm0,%ymm1,%ymm0
  4025f5:	c5 fd 7f 44 24 20    	vmovdqa %ymm0,0x20(%rsp)
  4025fb:	c5 fd 6f 44 24 20    	vmovdqa 0x20(%rsp),%ymm0
  402601:	c5 fd 6f 4c 24 40    	vmovdqa 0x40(%rsp),%ymm1
  402607:	c5 f5 db c0          	vpand  %ymm0,%ymm1,%ymm0
  40260b:	c5 fd 7f 44 24 20    	vmovdqa %ymm0,0x20(%rsp)
  402611:	c5 fd 6f 44 24 20    	vmovdqa 0x20(%rsp),%ymm0
  402617:	c5 fd 6f 4c 24 40    	vmovdqa 0x40(%rsp),%ymm1
  40261d:	c5 f5 db c0          	vpand  %ymm0,%ymm1,%ymm0
  402621:	c5 fd 7f 44 24 20    	vmovdqa %ymm0,0x20(%rsp)
  402627:	c5 fd 6f 44 24 20    	vmovdqa 0x20(%rsp),%ymm0
  40262d:	c5 fd 6f 4c 24 40    	vmovdqa 0x40(%rsp),%ymm1
  402633:	c5 f5 db c0          	vpand  %ymm0,%ymm1,%ymm0
  402637:	c5 fd 7f 44 24 20    	vmovdqa %ymm0,0x20(%rsp)
  40263d:	c5 fd 6f 44 24 20    	vmovdqa 0x20(%rsp),%ymm0
  402643:	c5 fd 6f 4c 24 40    	vmovdqa 0x40(%rsp),%ymm1
  402649:	c5 f5 db c0          	vpand  %ymm0,%ymm1,%ymm0
  40264d:	c5 fd 7f 44 24 20    	vmovdqa %ymm0,0x20(%rsp)
  402653:	c5 fd 6f 44 24 20    	vmovdqa 0x20(%rsp),%ymm0
  402659:	c5 fd 6f 4c 24 40    	vmovdqa 0x40(%rsp),%ymm1
  40265f:	c5 f5 db c0          	vpand  %ymm0,%ymm1,%ymm0
  402663:	c5 fd 7f 44 24 20    	vmovdqa %ymm0,0x20(%rsp)
  402669:	c5 fd 6f 44 24 20    	vmovdqa 0x20(%rsp),%ymm0
  40266f:	c5 fd 6f 4c 24 40    	vmovdqa 0x40(%rsp),%ymm1
  402675:	c5 f5 db c0          	vpand  %ymm0,%ymm1,%ymm0
  402679:	c5 fd 7f 44 24 20    	vmovdqa %ymm0,0x20(%rsp)
  40267f:	c5 fd 6f 44 24 20    	vmovdqa 0x20(%rsp),%ymm0
  402685:	c5 fd 6f 4c 24 40    	vmovdqa 0x40(%rsp),%ymm1
  40268b:	c5 f5 db c0          	vpand  %ymm0,%ymm1,%ymm0
  40268f:	c5 fd 7f 44 24 20    	vmovdqa %ymm0,0x20(%rsp)
  402695:	c5 fd 6f 44 24 20    	vmovdqa 0x20(%rsp),%ymm0
  40269b:	c5 fd 6f 4c 24 40    	vmovdqa 0x40(%rsp),%ymm1
  4026a1:	c5 f5 db c0          	vpand  %ymm0,%ymm1,%ymm0
  4026a5:	c5 fd 7f 44 24 20    	vmovdqa %ymm0,0x20(%rsp)
  4026ab:	c5 fd 6f 44 24 20    	vmovdqa 0x20(%rsp),%ymm0
  4026b1:	c5 fd 6f 4c 24 40    	vmovdqa 0x40(%rsp),%ymm1
  4026b7:	c5 f5 db c0          	vpand  %ymm0,%ymm1,%ymm0
  4026bb:	c5 fd 7f 44 24 20    	vmovdqa %ymm0,0x20(%rsp)
  4026c1:	c5 fd 6f 44 24 20    	vmovdqa 0x20(%rsp),%ymm0
  4026c7:	c5 fd 6f 4c 24 40    	vmovdqa 0x40(%rsp),%ymm1
  4026cd:	c5 f5 db c0          	vpand  %ymm0,%ymm1,%ymm0
  4026d1:	c5 fd 7f 44 24 20    	vmovdqa %ymm0,0x20(%rsp)
  4026d7:	c5 fd 6f 44 24 20    	vmovdqa 0x20(%rsp),%ymm0
  4026dd:	c5 fd 6f 4c 24 40    	vmovdqa 0x40(%rsp),%ymm1
  4026e3:	c5 f5 db c0          	vpand  %ymm0,%ymm1,%ymm0
  4026e7:	c5 fd 7f 44 24 20    	vmovdqa %ymm0,0x20(%rsp)
  4026ed:	c5 fd 6f 44 24 20    	vmovdqa 0x20(%rsp),%ymm0
  4026f3:	c5 fd 6f 4c 24 40    	vmovdqa 0x40(%rsp),%ymm1
  4026f9:	c5 f5 db c0          	vpand  %ymm0,%ymm1,%ymm0
  4026fd:	c5 fd 7f 44 24 20    	vmovdqa %ymm0,0x20(%rsp)
  402703:	c5 fd 6f 44 24 20    	vmovdqa 0x20(%rsp),%ymm0
  402709:	c5 fd 6f 4c 24 40    	vmovdqa 0x40(%rsp),%ymm1
  40270f:	c5 f5 db c0          	vpand  %ymm0,%ymm1,%ymm0
  402713:	c5 fd 7f 44 24 20    	vmovdqa %ymm0,0x20(%rsp)
  402719:	c5 fd 6f 44 24 20    	vmovdqa 0x20(%rsp),%ymm0
  40271f:	c5 fd 6f 4c 24 40    	vmovdqa 0x40(%rsp),%ymm1
  402725:	c5 f5 db c0          	vpand  %ymm0,%ymm1,%ymm0
  402729:	c5 fd 7f 44 24 20    	vmovdqa %ymm0,0x20(%rsp)
  40272f:	c5 fd 6f 44 24 20    	vmovdqa 0x20(%rsp),%ymm0
  402735:	c5 fd 6f 4c 24 40    	vmovdqa 0x40(%rsp),%ymm1
  40273b:	c5 f5 db c0          	vpand  %ymm0,%ymm1,%ymm0
  40273f:	c5 fd 7f 44 24 20    	vmovdqa %ymm0,0x20(%rsp)
  402745:	c5 fd 6f 44 24 20    	vmovdqa 0x20(%rsp),%ymm0
  40274b:	c5 fd 6f 4c 24 40    	vmovdqa 0x40(%rsp),%ymm1
  402751:	c5 f5 db c0          	vpand  %ymm0,%ymm1,%ymm0
  402755:	c5 fd 7f 44 24 20    	vmovdqa %ymm0,0x20(%rsp)
  40275b:	c5 fd 6f 44 24 20    	vmovdqa 0x20(%rsp),%ymm0
  402761:	c5 fd 6f 4c 24 40    	vmovdqa 0x40(%rsp),%ymm1
  402767:	c5 f5 db c0          	vpand  %ymm0,%ymm1,%ymm0
  40276b:	c5 fd 7f 44 24 20    	vmovdqa %ymm0,0x20(%rsp)
  402771:	c5 fd 6f 44 24 20    	vmovdqa 0x20(%rsp),%ymm0
  402777:	c5 fd 6f 4c 24 40    	vmovdqa 0x40(%rsp),%ymm1
  40277d:	c5 f5 db c0          	vpand  %ymm0,%ymm1,%ymm0
  402781:	c5 fd 7f 44 24 20    	vmovdqa %ymm0,0x20(%rsp)
  402787:	c5 fd 6f 44 24 20    	vmovdqa 0x20(%rsp),%ymm0
  40278d:	c5 fd 6f 4c 24 40    	vmovdqa 0x40(%rsp),%ymm1
  402793:	c5 f5 db c0          	vpand  %ymm0,%ymm1,%ymm0
  402797:	c5 fd 7f 44 24 20    	vmovdqa %ymm0,0x20(%rsp)
  40279d:	c5 fd 6f 44 24 20    	vmovdqa 0x20(%rsp),%ymm0
  4027a3:	c5 fd 6f 4c 24 40    	vmovdqa 0x40(%rsp),%ymm1
  4027a9:	c5 f5 db c0          	vpand  %ymm0,%ymm1,%ymm0
  4027ad:	c5 fd 7f 44 24 20    	vmovdqa %ymm0,0x20(%rsp)
  4027b3:	c5 fd 6f 44 24 20    	vmovdqa 0x20(%rsp),%ymm0
  4027b9:	c5 fd 6f 4c 24 40    	vmovdqa 0x40(%rsp),%ymm1
  4027bf:	c5 f5 db c0          	vpand  %ymm0,%ymm1,%ymm0
  4027c3:	c5 fd 7f 44 24 20    	vmovdqa %ymm0,0x20(%rsp)
  4027c9:	c5 fd 6f 44 24 20    	vmovdqa 0x20(%rsp),%ymm0
  4027cf:	c5 fd 6f 4c 24 40    	vmovdqa 0x40(%rsp),%ymm1
  4027d5:	c5 f5 db c0          	vpand  %ymm0,%ymm1,%ymm0
  4027d9:	c5 fd 7f 44 24 20    	vmovdqa %ymm0,0x20(%rsp)
  4027df:	c5 fd 6f 44 24 20    	vmovdqa 0x20(%rsp),%ymm0
  4027e5:	c5 fd 6f 4c 24 40    	vmovdqa 0x40(%rsp),%ymm1
  4027eb:	c5 f5 db c0          	vpand  %ymm0,%ymm1,%ymm0
  4027ef:	c5 fd 7f 44 24 20    	vmovdqa %ymm0,0x20(%rsp)
  4027f5:	c5 fd 6f 44 24 20    	vmovdqa 0x20(%rsp),%ymm0
  4027fb:	c5 fd 6f 4c 24 40    	vmovdqa 0x40(%rsp),%ymm1
  402801:	c5 f5 db c0          	vpand  %ymm0,%ymm1,%ymm0
  402805:	c5 fd 7f 44 24 20    	vmovdqa %ymm0,0x20(%rsp)
  40280b:	c5 fd 6f 44 24 20    	vmovdqa 0x20(%rsp),%ymm0
  402811:	c5 fd 6f 4c 24 40    	vmovdqa 0x40(%rsp),%ymm1
  402817:	c5 f5 db c0          	vpand  %ymm0,%ymm1,%ymm0
  40281b:	c5 fd 7f 44 24 20    	vmovdqa %ymm0,0x20(%rsp)
  402821:	c5 fd 6f 44 24 20    	vmovdqa 0x20(%rsp),%ymm0
  402827:	c5 fd 6f 4c 24 40    	vmovdqa 0x40(%rsp),%ymm1
  40282d:	c5 f5 db c0          	vpand  %ymm0,%ymm1,%ymm0
  402831:	c5 fd 7f 44 24 20    	vmovdqa %ymm0,0x20(%rsp)
  402837:	c5 fd 6f 44 24 20    	vmovdqa 0x20(%rsp),%ymm0
  40283d:	c5 fd 6f 4c 24 40    	vmovdqa 0x40(%rsp),%ymm1
  402843:	c5 f5 db c0          	vpand  %ymm0,%ymm1,%ymm0
  402847:	c5 fd 7f 44 24 20    	vmovdqa %ymm0,0x20(%rsp)
  40284d:	c5 fd 6f 44 24 20    	vmovdqa 0x20(%rsp),%ymm0
  402853:	c5 fd 6f 4c 24 40    	vmovdqa 0x40(%rsp),%ymm1
  402859:	c5 f5 db c0          	vpand  %ymm0,%ymm1,%ymm0
  40285d:	c5 fd 7f 44 24 20    	vmovdqa %ymm0,0x20(%rsp)
  402863:	c5 fd 6f 44 24 20    	vmovdqa 0x20(%rsp),%ymm0
  402869:	c5 fd 6f 4c 24 40    	vmovdqa 0x40(%rsp),%ymm1
  40286f:	c5 f5 db c0          	vpand  %ymm0,%ymm1,%ymm0
  402873:	c5 fd 7f 44 24 20    	vmovdqa %ymm0,0x20(%rsp)
  402879:	c5 fd 6f 44 24 20    	vmovdqa 0x20(%rsp),%ymm0
  40287f:	c5 fd 6f 4c 24 40    	vmovdqa 0x40(%rsp),%ymm1
  402885:	c5 f5 db c0          	vpand  %ymm0,%ymm1,%ymm0
  402889:	c5 fd 7f 44 24 20    	vmovdqa %ymm0,0x20(%rsp)
  40288f:	c5 fd 6f 44 24 20    	vmovdqa 0x20(%rsp),%ymm0
  402895:	c5 fd 6f 4c 24 40    	vmovdqa 0x40(%rsp),%ymm1
  40289b:	c5 f5 db c0          	vpand  %ymm0,%ymm1,%ymm0
  40289f:	c5 fd 7f 44 24 20    	vmovdqa %ymm0,0x20(%rsp)
  4028a5:	c5 fd 6f 44 24 20    	vmovdqa 0x20(%rsp),%ymm0
  4028ab:	c5 fd 6f 4c 24 40    	vmovdqa 0x40(%rsp),%ymm1
  4028b1:	c5 f5 db c0          	vpand  %ymm0,%ymm1,%ymm0
  4028b5:	c5 fd 7f 44 24 20    	vmovdqa %ymm0,0x20(%rsp)
  4028bb:	c5 fd 6f 44 24 20    	vmovdqa 0x20(%rsp),%ymm0
  4028c1:	c5 fd 6f 4c 24 40    	vmovdqa 0x40(%rsp),%ymm1
  4028c7:	c5 f5 db c0          	vpand  %ymm0,%ymm1,%ymm0
  4028cb:	c5 fd 7f 44 24 20    	vmovdqa %ymm0,0x20(%rsp)
  4028d1:	c5 fd 6f 44 24 20    	vmovdqa 0x20(%rsp),%ymm0
  4028d7:	c5 fd 6f 4c 24 40    	vmovdqa 0x40(%rsp),%ymm1
  4028dd:	c5 f5 db c0          	vpand  %ymm0,%ymm1,%ymm0
  4028e1:	c5 fd 7f 44 24 20    	vmovdqa %ymm0,0x20(%rsp)
  4028e7:	c5 fd 6f 44 24 20    	vmovdqa 0x20(%rsp),%ymm0
  4028ed:	c5 fd 6f 4c 24 40    	vmovdqa 0x40(%rsp),%ymm1
  4028f3:	c5 f5 db c0          	vpand  %ymm0,%ymm1,%ymm0
  4028f7:	c5 fd 7f 44 24 20    	vmovdqa %ymm0,0x20(%rsp)
  4028fd:	c5 fd 6f 44 24 20    	vmovdqa 0x20(%rsp),%ymm0
  402903:	c5 fd 6f 4c 24 40    	vmovdqa 0x40(%rsp),%ymm1
  402909:	c5 f5 db c0          	vpand  %ymm0,%ymm1,%ymm0
  40290d:	c5 fd 7f 44 24 20    	vmovdqa %ymm0,0x20(%rsp)
  402913:	c5 fd 6f 44 24 20    	vmovdqa 0x20(%rsp),%ymm0
  402919:	c5 fd 6f 4c 24 40    	vmovdqa 0x40(%rsp),%ymm1
  40291f:	c5 f5 db c0          	vpand  %ymm0,%ymm1,%ymm0
  402923:	c5 fd 7f 44 24 20    	vmovdqa %ymm0,0x20(%rsp)
  402929:	c5 fd 6f 44 24 20    	vmovdqa 0x20(%rsp),%ymm0
  40292f:	c5 fd 6f 4c 24 40    	vmovdqa 0x40(%rsp),%ymm1
  402935:	c5 f5 db c0          	vpand  %ymm0,%ymm1,%ymm0
  402939:	c5 fd 7f 44 24 20    	vmovdqa %ymm0,0x20(%rsp)
  40293f:	c5 fd 6f 44 24 20    	vmovdqa 0x20(%rsp),%ymm0
  402945:	c5 fd 6f 4c 24 40    	vmovdqa 0x40(%rsp),%ymm1
  40294b:	c5 f5 db c0          	vpand  %ymm0,%ymm1,%ymm0
  40294f:	c5 fd 7f 44 24 20    	vmovdqa %ymm0,0x20(%rsp)
  402955:	c5 fd 6f 44 24 20    	vmovdqa 0x20(%rsp),%ymm0
  40295b:	c5 fd 6f 4c 24 40    	vmovdqa 0x40(%rsp),%ymm1
  402961:	c5 f5 db c0          	vpand  %ymm0,%ymm1,%ymm0
  402965:	c5 fd 7f 44 24 20    	vmovdqa %ymm0,0x20(%rsp)
  40296b:	c5 fd 6f 44 24 20    	vmovdqa 0x20(%rsp),%ymm0
  402971:	c5 fd 6f 4c 24 40    	vmovdqa 0x40(%rsp),%ymm1
  402977:	c5 f5 db c0          	vpand  %ymm0,%ymm1,%ymm0
  40297b:	c5 fd 7f 44 24 20    	vmovdqa %ymm0,0x20(%rsp)
  402981:	c5 fd 6f 44 24 20    	vmovdqa 0x20(%rsp),%ymm0
  402987:	c5 fd 6f 4c 24 40    	vmovdqa 0x40(%rsp),%ymm1
  40298d:	c5 f5 db c0          	vpand  %ymm0,%ymm1,%ymm0
  402991:	c5 fd 7f 44 24 20    	vmovdqa %ymm0,0x20(%rsp)
  402997:	c5 fd 6f 44 24 20    	vmovdqa 0x20(%rsp),%ymm0
  40299d:	c5 fd 6f 4c 24 40    	vmovdqa 0x40(%rsp),%ymm1
  4029a3:	c5 f5 db c0          	vpand  %ymm0,%ymm1,%ymm0
  4029a7:	c5 fd 7f 44 24 20    	vmovdqa %ymm0,0x20(%rsp)
  4029ad:	c5 fd 6f 44 24 20    	vmovdqa 0x20(%rsp),%ymm0
  4029b3:	c5 fd 6f 4c 24 40    	vmovdqa 0x40(%rsp),%ymm1
  4029b9:	c5 f5 db c0          	vpand  %ymm0,%ymm1,%ymm0
  4029bd:	c5 fd 7f 44 24 20    	vmovdqa %ymm0,0x20(%rsp)
  4029c3:	c5 fd 6f 44 24 20    	vmovdqa 0x20(%rsp),%ymm0
  4029c9:	c5 fd 6f 4c 24 40    	vmovdqa 0x40(%rsp),%ymm1
  4029cf:	c5 f5 db c0          	vpand  %ymm0,%ymm1,%ymm0
  4029d3:	c5 fd 7f 44 24 20    	vmovdqa %ymm0,0x20(%rsp)
  4029d9:	c5 fd 6f 44 24 20    	vmovdqa 0x20(%rsp),%ymm0
  4029df:	c5 fd 6f 4c 24 40    	vmovdqa 0x40(%rsp),%ymm1
  4029e5:	c5 f5 db c0          	vpand  %ymm0,%ymm1,%ymm0
  4029e9:	c5 fd 7f 44 24 20    	vmovdqa %ymm0,0x20(%rsp)
  4029ef:	c5 fd 6f 44 24 20    	vmovdqa 0x20(%rsp),%ymm0
  4029f5:	c5 fd 6f 4c 24 40    	vmovdqa 0x40(%rsp),%ymm1
  4029fb:	c5 f5 db c0          	vpand  %ymm0,%ymm1,%ymm0
  4029ff:	c5 fd 7f 44 24 20    	vmovdqa %ymm0,0x20(%rsp)
  402a05:	c5 fd 6f 44 24 20    	vmovdqa 0x20(%rsp),%ymm0
  402a0b:	c5 fd 6f 4c 24 40    	vmovdqa 0x40(%rsp),%ymm1
  402a11:	c5 f5 db c0          	vpand  %ymm0,%ymm1,%ymm0
  402a15:	c5 fd 7f 44 24 20    	vmovdqa %ymm0,0x20(%rsp)
  402a1b:	c5 fd 6f 44 24 20    	vmovdqa 0x20(%rsp),%ymm0
  402a21:	c5 fd 6f 4c 24 40    	vmovdqa 0x40(%rsp),%ymm1
  402a27:	c5 f5 db c0          	vpand  %ymm0,%ymm1,%ymm0
  402a2b:	c5 fd 7f 44 24 20    	vmovdqa %ymm0,0x20(%rsp)
  402a31:	c5 fd 6f 44 24 20    	vmovdqa 0x20(%rsp),%ymm0
  402a37:	c5 fd 6f 4c 24 40    	vmovdqa 0x40(%rsp),%ymm1
  402a3d:	c5 f5 db c0          	vpand  %ymm0,%ymm1,%ymm0
  402a41:	c5 fd 7f 44 24 20    	vmovdqa %ymm0,0x20(%rsp)
  402a47:	c5 fd 6f 44 24 20    	vmovdqa 0x20(%rsp),%ymm0
  402a4d:	c5 fd 6f 4c 24 40    	vmovdqa 0x40(%rsp),%ymm1
  402a53:	c5 f5 db c0          	vpand  %ymm0,%ymm1,%ymm0
  402a57:	c5 fd 7f 44 24 20    	vmovdqa %ymm0,0x20(%rsp)
  402a5d:	c5 fd 6f 44 24 20    	vmovdqa 0x20(%rsp),%ymm0
  402a63:	c5 fd 6f 4c 24 40    	vmovdqa 0x40(%rsp),%ymm1
  402a69:	c5 f5 db c0          	vpand  %ymm0,%ymm1,%ymm0
  402a6d:	c5 fd 7f 44 24 20    	vmovdqa %ymm0,0x20(%rsp)
  402a73:	c5 fd 6f 44 24 20    	vmovdqa 0x20(%rsp),%ymm0
  402a79:	c5 fd 6f 4c 24 40    	vmovdqa 0x40(%rsp),%ymm1
  402a7f:	c5 f5 db c0          	vpand  %ymm0,%ymm1,%ymm0
  402a83:	c5 fd 7f 44 24 20    	vmovdqa %ymm0,0x20(%rsp)
  402a89:	c5 fd 6f 44 24 20    	vmovdqa 0x20(%rsp),%ymm0
  402a8f:	c5 fd 6f 4c 24 40    	vmovdqa 0x40(%rsp),%ymm1
  402a95:	c5 f5 db c0          	vpand  %ymm0,%ymm1,%ymm0
  402a99:	c5 fd 7f 44 24 20    	vmovdqa %ymm0,0x20(%rsp)
  402a9f:	c5 fd 6f 44 24 20    	vmovdqa 0x20(%rsp),%ymm0
  402aa5:	c5 fd 6f 4c 24 40    	vmovdqa 0x40(%rsp),%ymm1
  402aab:	c5 f5 db c0          	vpand  %ymm0,%ymm1,%ymm0
  402aaf:	c5 fd 7f 44 24 20    	vmovdqa %ymm0,0x20(%rsp)
  402ab5:	c5 fd 6f 44 24 20    	vmovdqa 0x20(%rsp),%ymm0
  402abb:	c5 fd 6f 4c 24 40    	vmovdqa 0x40(%rsp),%ymm1
  402ac1:	c5 f5 db c0          	vpand  %ymm0,%ymm1,%ymm0
  402ac5:	c5 fd 7f 44 24 20    	vmovdqa %ymm0,0x20(%rsp)
  402acb:	c5 fd 6f 44 24 20    	vmovdqa 0x20(%rsp),%ymm0
  402ad1:	c5 fd 6f 4c 24 40    	vmovdqa 0x40(%rsp),%ymm1
  402ad7:	c5 f5 db c0          	vpand  %ymm0,%ymm1,%ymm0
  402adb:	c5 fd 7f 44 24 20    	vmovdqa %ymm0,0x20(%rsp)
  402ae1:	c5 fd 6f 44 24 20    	vmovdqa 0x20(%rsp),%ymm0
  402ae7:	c5 fd 6f 4c 24 40    	vmovdqa 0x40(%rsp),%ymm1
  402aed:	c5 f5 db c0          	vpand  %ymm0,%ymm1,%ymm0
  402af1:	c5 fd 7f 44 24 20    	vmovdqa %ymm0,0x20(%rsp)
  402af7:	c5 fd 6f 44 24 20    	vmovdqa 0x20(%rsp),%ymm0
  402afd:	c5 fd 6f 4c 24 40    	vmovdqa 0x40(%rsp),%ymm1
  402b03:	c5 f5 db c0          	vpand  %ymm0,%ymm1,%ymm0
  402b07:	c5 fd 7f 44 24 20    	vmovdqa %ymm0,0x20(%rsp)
  402b0d:	c5 fd 6f 44 24 20    	vmovdqa 0x20(%rsp),%ymm0
  402b13:	c5 fd 6f 4c 24 40    	vmovdqa 0x40(%rsp),%ymm1
  402b19:	c5 f5 db c0          	vpand  %ymm0,%ymm1,%ymm0
  402b1d:	c5 fd 7f 44 24 20    	vmovdqa %ymm0,0x20(%rsp)
  402b23:	c5 fd 6f 44 24 20    	vmovdqa 0x20(%rsp),%ymm0
  402b29:	c5 fd 6f 4c 24 40    	vmovdqa 0x40(%rsp),%ymm1
  402b2f:	c5 f5 db c0          	vpand  %ymm0,%ymm1,%ymm0
  402b33:	c5 fd 7f 44 24 20    	vmovdqa %ymm0,0x20(%rsp)
  402b39:	c5 fd 6f 44 24 20    	vmovdqa 0x20(%rsp),%ymm0
  402b3f:	c5 fd 6f 4c 24 40    	vmovdqa 0x40(%rsp),%ymm1
  402b45:	c5 f5 db c0          	vpand  %ymm0,%ymm1,%ymm0
  402b49:	c5 fd 7f 44 24 20    	vmovdqa %ymm0,0x20(%rsp)
  402b4f:	c5 fd 6f 44 24 20    	vmovdqa 0x20(%rsp),%ymm0
  402b55:	c5 fd 6f 4c 24 40    	vmovdqa 0x40(%rsp),%ymm1
  402b5b:	c5 f5 db c0          	vpand  %ymm0,%ymm1,%ymm0
  402b5f:	c5 fd 7f 44 24 20    	vmovdqa %ymm0,0x20(%rsp)
  402b65:	c5 fd 6f 44 24 20    	vmovdqa 0x20(%rsp),%ymm0
  402b6b:	c5 fd 6f 4c 24 40    	vmovdqa 0x40(%rsp),%ymm1
  402b71:	c5 f5 db c0          	vpand  %ymm0,%ymm1,%ymm0
  402b75:	c5 fd 7f 44 24 20    	vmovdqa %ymm0,0x20(%rsp)
  402b7b:	c5 fd 6f 44 24 20    	vmovdqa 0x20(%rsp),%ymm0
  402b81:	c5 fd 6f 4c 24 40    	vmovdqa 0x40(%rsp),%ymm1
  402b87:	c5 f5 db c0          	vpand  %ymm0,%ymm1,%ymm0
  402b8b:	c5 fd 7f 44 24 20    	vmovdqa %ymm0,0x20(%rsp)
  402b91:	c5 fd 6f 44 24 20    	vmovdqa 0x20(%rsp),%ymm0
  402b97:	c5 fd 6f 4c 24 40    	vmovdqa 0x40(%rsp),%ymm1
  402b9d:	c5 f5 db c0          	vpand  %ymm0,%ymm1,%ymm0
  402ba1:	c5 fd 7f 44 24 20    	vmovdqa %ymm0,0x20(%rsp)
  402ba7:	c5 fd 6f 44 24 20    	vmovdqa 0x20(%rsp),%ymm0
  402bad:	c5 fd 6f 4c 24 40    	vmovdqa 0x40(%rsp),%ymm1
  402bb3:	c5 f5 db c0          	vpand  %ymm0,%ymm1,%ymm0
  402bb7:	c5 fd 7f 44 24 20    	vmovdqa %ymm0,0x20(%rsp)
  402bbd:	c5 fd 6f 44 24 20    	vmovdqa 0x20(%rsp),%ymm0
  402bc3:	c5 fd 6f 4c 24 40    	vmovdqa 0x40(%rsp),%ymm1
  402bc9:	c5 f5 db c0          	vpand  %ymm0,%ymm1,%ymm0
  402bcd:	c5 fd 7f 44 24 20    	vmovdqa %ymm0,0x20(%rsp)
  402bd3:	c5 fd 6f 44 24 20    	vmovdqa 0x20(%rsp),%ymm0
  402bd9:	c5 fd 6f 4c 24 40    	vmovdqa 0x40(%rsp),%ymm1
  402bdf:	c5 f5 db c0          	vpand  %ymm0,%ymm1,%ymm0
  402be3:	c5 fd 7f 44 24 20    	vmovdqa %ymm0,0x20(%rsp)
  402be9:	c5 fd 6f 44 24 20    	vmovdqa 0x20(%rsp),%ymm0
  402bef:	c5 fd 6f 4c 24 40    	vmovdqa 0x40(%rsp),%ymm1
  402bf5:	c5 f5 db c0          	vpand  %ymm0,%ymm1,%ymm0
  402bf9:	c5 fd 7f 44 24 20    	vmovdqa %ymm0,0x20(%rsp)
  402bff:	c5 fd 6f 44 24 20    	vmovdqa 0x20(%rsp),%ymm0
  402c05:	c5 fd 6f 4c 24 40    	vmovdqa 0x40(%rsp),%ymm1
  402c0b:	c5 f5 db c0          	vpand  %ymm0,%ymm1,%ymm0
  402c0f:	c5 fd 7f 44 24 20    	vmovdqa %ymm0,0x20(%rsp)
  402c15:	c5 fd 6f 44 24 20    	vmovdqa 0x20(%rsp),%ymm0
  402c1b:	c5 fd 6f 4c 24 40    	vmovdqa 0x40(%rsp),%ymm1
  402c21:	c5 f5 db c0          	vpand  %ymm0,%ymm1,%ymm0
  402c25:	c5 fd 7f 44 24 20    	vmovdqa %ymm0,0x20(%rsp)
  402c2b:	c5 fd 6f 44 24 20    	vmovdqa 0x20(%rsp),%ymm0
  402c31:	c5 fd 6f 4c 24 40    	vmovdqa 0x40(%rsp),%ymm1
  402c37:	c5 f5 db c0          	vpand  %ymm0,%ymm1,%ymm0
  402c3b:	c5 fd 7f 44 24 20    	vmovdqa %ymm0,0x20(%rsp)
  402c41:	c5 fd 6f 44 24 20    	vmovdqa 0x20(%rsp),%ymm0
  402c47:	c5 fd 6f 4c 24 40    	vmovdqa 0x40(%rsp),%ymm1
  402c4d:	c5 f5 db c0          	vpand  %ymm0,%ymm1,%ymm0
  402c51:	c5 fd 7f 44 24 20    	vmovdqa %ymm0,0x20(%rsp)
  402c57:	c5 fd 6f 44 24 20    	vmovdqa 0x20(%rsp),%ymm0
  402c5d:	c5 fd 6f 4c 24 40    	vmovdqa 0x40(%rsp),%ymm1
  402c63:	c5 f5 db c0          	vpand  %ymm0,%ymm1,%ymm0
  402c67:	c5 fd 7f 44 24 20    	vmovdqa %ymm0,0x20(%rsp)
  402c6d:	c5 fd 6f 44 24 20    	vmovdqa 0x20(%rsp),%ymm0
  402c73:	c5 fd 6f 4c 24 40    	vmovdqa 0x40(%rsp),%ymm1
  402c79:	c5 f5 db c0          	vpand  %ymm0,%ymm1,%ymm0
  402c7d:	c5 fd 7f 44 24 20    	vmovdqa %ymm0,0x20(%rsp)
  402c83:	c5 fd 6f 44 24 20    	vmovdqa 0x20(%rsp),%ymm0
  402c89:	c5 fd 6f 4c 24 40    	vmovdqa 0x40(%rsp),%ymm1
  402c8f:	c5 f5 db c0          	vpand  %ymm0,%ymm1,%ymm0
  402c93:	c5 fd 7f 44 24 20    	vmovdqa %ymm0,0x20(%rsp)
  402c99:	c5 fd 6f 44 24 20    	vmovdqa 0x20(%rsp),%ymm0
  402c9f:	c5 fd 6f 4c 24 40    	vmovdqa 0x40(%rsp),%ymm1
  402ca5:	c5 f5 db c0          	vpand  %ymm0,%ymm1,%ymm0
  402ca9:	c5 fd 7f 44 24 20    	vmovdqa %ymm0,0x20(%rsp)
  402caf:	c5 fd 6f 44 24 20    	vmovdqa 0x20(%rsp),%ymm0
  402cb5:	c5 fd 6f 4c 24 40    	vmovdqa 0x40(%rsp),%ymm1
  402cbb:	c5 f5 db c0          	vpand  %ymm0,%ymm1,%ymm0
  402cbf:	c5 fd 7f 44 24 20    	vmovdqa %ymm0,0x20(%rsp)
  402cc5:	c5 fd 6f 44 24 20    	vmovdqa 0x20(%rsp),%ymm0
  402ccb:	c5 fd 6f 4c 24 40    	vmovdqa 0x40(%rsp),%ymm1
  402cd1:	c5 f5 db c0          	vpand  %ymm0,%ymm1,%ymm0
  402cd5:	c5 fd 7f 44 24 20    	vmovdqa %ymm0,0x20(%rsp)
  402cdb:	c5 fd 6f 44 24 20    	vmovdqa 0x20(%rsp),%ymm0
  402ce1:	c5 fd 6f 4c 24 40    	vmovdqa 0x40(%rsp),%ymm1
  402ce7:	c5 f5 db c0          	vpand  %ymm0,%ymm1,%ymm0
  402ceb:	c5 fd 7f 44 24 20    	vmovdqa %ymm0,0x20(%rsp)
  402cf1:	c5 fd 6f 44 24 20    	vmovdqa 0x20(%rsp),%ymm0
  402cf7:	c5 fd 6f 4c 24 40    	vmovdqa 0x40(%rsp),%ymm1
  402cfd:	c5 f5 db c0          	vpand  %ymm0,%ymm1,%ymm0
  402d01:	c5 fd 7f 44 24 20    	vmovdqa %ymm0,0x20(%rsp)
  402d07:	c5 fd 6f 44 24 20    	vmovdqa 0x20(%rsp),%ymm0
  402d0d:	c5 fd 6f 4c 24 40    	vmovdqa 0x40(%rsp),%ymm1
  402d13:	c5 f5 db c0          	vpand  %ymm0,%ymm1,%ymm0
  402d17:	c5 fd 7f 44 24 20    	vmovdqa %ymm0,0x20(%rsp)
  402d1d:	c5 fd 6f 44 24 20    	vmovdqa 0x20(%rsp),%ymm0
  402d23:	c5 fd 6f 4c 24 40    	vmovdqa 0x40(%rsp),%ymm1
  402d29:	c5 f5 db c0          	vpand  %ymm0,%ymm1,%ymm0
  402d2d:	c5 fd 7f 44 24 20    	vmovdqa %ymm0,0x20(%rsp)
  402d33:	c5 fd 6f 44 24 20    	vmovdqa 0x20(%rsp),%ymm0
  402d39:	c5 fd 6f 4c 24 40    	vmovdqa 0x40(%rsp),%ymm1
  402d3f:	c5 f5 db c0          	vpand  %ymm0,%ymm1,%ymm0
  402d43:	c5 fd 7f 44 24 20    	vmovdqa %ymm0,0x20(%rsp)
  402d49:	c5 fd 6f 44 24 20    	vmovdqa 0x20(%rsp),%ymm0
  402d4f:	c5 fd 6f 4c 24 40    	vmovdqa 0x40(%rsp),%ymm1
  402d55:	c5 f5 db c0          	vpand  %ymm0,%ymm1,%ymm0
  402d59:	c5 fd 7f 44 24 20    	vmovdqa %ymm0,0x20(%rsp)
  402d5f:	c5 fd 6f 44 24 20    	vmovdqa 0x20(%rsp),%ymm0
  402d65:	c5 fd 6f 4c 24 40    	vmovdqa 0x40(%rsp),%ymm1
  402d6b:	c5 f5 db c0          	vpand  %ymm0,%ymm1,%ymm0
  402d6f:	c5 fd 7f 44 24 20    	vmovdqa %ymm0,0x20(%rsp)
  402d75:	c5 fd 6f 44 24 20    	vmovdqa 0x20(%rsp),%ymm0
  402d7b:	c5 fd 6f 4c 24 40    	vmovdqa 0x40(%rsp),%ymm1
  402d81:	c5 f5 db c0          	vpand  %ymm0,%ymm1,%ymm0
  402d85:	c5 fd 7f 44 24 20    	vmovdqa %ymm0,0x20(%rsp)
  402d8b:	c5 fd 6f 44 24 20    	vmovdqa 0x20(%rsp),%ymm0
  402d91:	c5 fd 6f 4c 24 40    	vmovdqa 0x40(%rsp),%ymm1
  402d97:	c5 f5 db c0          	vpand  %ymm0,%ymm1,%ymm0
  402d9b:	c5 fd 7f 44 24 20    	vmovdqa %ymm0,0x20(%rsp)
  402da1:	c5 fd 6f 44 24 20    	vmovdqa 0x20(%rsp),%ymm0
  402da7:	c5 fd 6f 4c 24 40    	vmovdqa 0x40(%rsp),%ymm1
  402dad:	c5 f5 db c0          	vpand  %ymm0,%ymm1,%ymm0
  402db1:	c5 fd 7f 44 24 20    	vmovdqa %ymm0,0x20(%rsp)
  402db7:	c5 fd 6f 44 24 20    	vmovdqa 0x20(%rsp),%ymm0
  402dbd:	c5 fd 6f 4c 24 40    	vmovdqa 0x40(%rsp),%ymm1
  402dc3:	c5 f5 db c0          	vpand  %ymm0,%ymm1,%ymm0
  402dc7:	c5 fd 7f 44 24 20    	vmovdqa %ymm0,0x20(%rsp)
  402dcd:	c5 fd 6f 44 24 20    	vmovdqa 0x20(%rsp),%ymm0
  402dd3:	c5 fd 6f 4c 24 40    	vmovdqa 0x40(%rsp),%ymm1
  402dd9:	c5 f5 db c0          	vpand  %ymm0,%ymm1,%ymm0
  402ddd:	c5 fd 7f 44 24 20    	vmovdqa %ymm0,0x20(%rsp)
  402de3:	c5 fd 6f 44 24 20    	vmovdqa 0x20(%rsp),%ymm0
  402de9:	c5 fd 6f 4c 24 40    	vmovdqa 0x40(%rsp),%ymm1
  402def:	c5 f5 db c0          	vpand  %ymm0,%ymm1,%ymm0
  402df3:	c5 fd 7f 44 24 20    	vmovdqa %ymm0,0x20(%rsp)
  402df9:	c5 fd 6f 44 24 20    	vmovdqa 0x20(%rsp),%ymm0
  402dff:	c5 fd 6f 4c 24 40    	vmovdqa 0x40(%rsp),%ymm1
  402e05:	c5 f5 db c0          	vpand  %ymm0,%ymm1,%ymm0
  402e09:	c5 fd 7f 44 24 20    	vmovdqa %ymm0,0x20(%rsp)
  402e0f:	c5 fd 6f 44 24 20    	vmovdqa 0x20(%rsp),%ymm0
  402e15:	c5 fd 6f 4c 24 40    	vmovdqa 0x40(%rsp),%ymm1
  402e1b:	c5 f5 db c0          	vpand  %ymm0,%ymm1,%ymm0
  402e1f:	c5 fd 7f 44 24 20    	vmovdqa %ymm0,0x20(%rsp)
  402e25:	c5 fd 6f 44 24 20    	vmovdqa 0x20(%rsp),%ymm0
  402e2b:	c5 fd 6f 4c 24 40    	vmovdqa 0x40(%rsp),%ymm1
  402e31:	c5 f5 db c0          	vpand  %ymm0,%ymm1,%ymm0
  402e35:	c5 fd 7f 44 24 20    	vmovdqa %ymm0,0x20(%rsp)
  402e3b:	c5 fd 6f 44 24 20    	vmovdqa 0x20(%rsp),%ymm0
  402e41:	c5 fd 6f 4c 24 40    	vmovdqa 0x40(%rsp),%ymm1
  402e47:	c5 f5 db c0          	vpand  %ymm0,%ymm1,%ymm0
  402e4b:	c5 fd 7f 44 24 20    	vmovdqa %ymm0,0x20(%rsp)
  402e51:	c5 fd 6f 44 24 20    	vmovdqa 0x20(%rsp),%ymm0
  402e57:	c5 fd 6f 4c 24 40    	vmovdqa 0x40(%rsp),%ymm1
  402e5d:	c5 f5 db c0          	vpand  %ymm0,%ymm1,%ymm0
  402e61:	c5 fd 7f 44 24 20    	vmovdqa %ymm0,0x20(%rsp)
  402e67:	c5 fd 6f 44 24 20    	vmovdqa 0x20(%rsp),%ymm0
  402e6d:	c5 fd 6f 4c 24 40    	vmovdqa 0x40(%rsp),%ymm1
  402e73:	c5 f5 db c0          	vpand  %ymm0,%ymm1,%ymm0
  402e77:	c5 fd 7f 44 24 20    	vmovdqa %ymm0,0x20(%rsp)
  402e7d:	c5 fd 6f 44 24 20    	vmovdqa 0x20(%rsp),%ymm0
  402e83:	c5 fd 6f 4c 24 40    	vmovdqa 0x40(%rsp),%ymm1
  402e89:	c5 f5 db c0          	vpand  %ymm0,%ymm1,%ymm0
  402e8d:	c5 fd 7f 44 24 20    	vmovdqa %ymm0,0x20(%rsp)
  402e93:	c5 fd 6f 44 24 20    	vmovdqa 0x20(%rsp),%ymm0
  402e99:	c5 fd 6f 4c 24 40    	vmovdqa 0x40(%rsp),%ymm1
  402e9f:	c5 f5 db c0          	vpand  %ymm0,%ymm1,%ymm0
  402ea3:	c5 fd 7f 44 24 20    	vmovdqa %ymm0,0x20(%rsp)
  402ea9:	c5 fd 6f 44 24 20    	vmovdqa 0x20(%rsp),%ymm0
  402eaf:	c5 fd 6f 4c 24 40    	vmovdqa 0x40(%rsp),%ymm1
  402eb5:	c5 f5 db c0          	vpand  %ymm0,%ymm1,%ymm0
  402eb9:	c5 fd 7f 44 24 20    	vmovdqa %ymm0,0x20(%rsp)
  402ebf:	c5 fd 6f 44 24 20    	vmovdqa 0x20(%rsp),%ymm0
  402ec5:	c5 fd 6f 4c 24 40    	vmovdqa 0x40(%rsp),%ymm1
  402ecb:	c5 f5 db c0          	vpand  %ymm0,%ymm1,%ymm0
  402ecf:	c5 fd 7f 44 24 20    	vmovdqa %ymm0,0x20(%rsp)
  402ed5:	c5 fd 6f 44 24 20    	vmovdqa 0x20(%rsp),%ymm0
  402edb:	c5 fd 6f 4c 24 40    	vmovdqa 0x40(%rsp),%ymm1
  402ee1:	c5 f5 db c0          	vpand  %ymm0,%ymm1,%ymm0
  402ee5:	c5 fd 7f 44 24 20    	vmovdqa %ymm0,0x20(%rsp)
  402eeb:	c5 fd 6f 44 24 20    	vmovdqa 0x20(%rsp),%ymm0
  402ef1:	c5 fd 6f 4c 24 40    	vmovdqa 0x40(%rsp),%ymm1
  402ef7:	c5 f5 db c0          	vpand  %ymm0,%ymm1,%ymm0
  402efb:	c5 fd 7f 44 24 20    	vmovdqa %ymm0,0x20(%rsp)
  402f01:	c5 fd 6f 44 24 20    	vmovdqa 0x20(%rsp),%ymm0
  402f07:	c5 fd 6f 4c 24 40    	vmovdqa 0x40(%rsp),%ymm1
  402f0d:	c5 f5 db c0          	vpand  %ymm0,%ymm1,%ymm0
  402f11:	c5 fd 7f 44 24 20    	vmovdqa %ymm0,0x20(%rsp)
  402f17:	c5 fd 6f 44 24 20    	vmovdqa 0x20(%rsp),%ymm0
  402f1d:	c5 fd 6f 4c 24 40    	vmovdqa 0x40(%rsp),%ymm1
  402f23:	c5 f5 db c0          	vpand  %ymm0,%ymm1,%ymm0
  402f27:	c5 fd 7f 44 24 20    	vmovdqa %ymm0,0x20(%rsp)
  402f2d:	c5 fd 6f 44 24 20    	vmovdqa 0x20(%rsp),%ymm0
  402f33:	c5 fd 6f 4c 24 40    	vmovdqa 0x40(%rsp),%ymm1
  402f39:	c5 f5 db c0          	vpand  %ymm0,%ymm1,%ymm0
  402f3d:	c5 fd 7f 44 24 20    	vmovdqa %ymm0,0x20(%rsp)
  402f43:	c5 fd 6f 44 24 20    	vmovdqa 0x20(%rsp),%ymm0
  402f49:	c5 fd 6f 4c 24 40    	vmovdqa 0x40(%rsp),%ymm1
  402f4f:	c5 f5 db c0          	vpand  %ymm0,%ymm1,%ymm0
  402f53:	c5 fd 7f 44 24 20    	vmovdqa %ymm0,0x20(%rsp)
  402f59:	c5 fd 6f 44 24 20    	vmovdqa 0x20(%rsp),%ymm0
  402f5f:	c5 fd 6f 4c 24 40    	vmovdqa 0x40(%rsp),%ymm1
  402f65:	c5 f5 db c0          	vpand  %ymm0,%ymm1,%ymm0
  402f69:	c5 fd 7f 44 24 20    	vmovdqa %ymm0,0x20(%rsp)
  402f6f:	c5 fd 6f 44 24 20    	vmovdqa 0x20(%rsp),%ymm0
  402f75:	c5 fd 6f 4c 24 40    	vmovdqa 0x40(%rsp),%ymm1
  402f7b:	c5 f5 db c0          	vpand  %ymm0,%ymm1,%ymm0
  402f7f:	c5 fd 7f 44 24 20    	vmovdqa %ymm0,0x20(%rsp)
  402f85:	c5 fd 6f 44 24 20    	vmovdqa 0x20(%rsp),%ymm0
  402f8b:	c5 fd 6f 4c 24 40    	vmovdqa 0x40(%rsp),%ymm1
  402f91:	c5 f5 db c0          	vpand  %ymm0,%ymm1,%ymm0
  402f95:	c5 fd 7f 44 24 20    	vmovdqa %ymm0,0x20(%rsp)
  402f9b:	c5 fd 6f 44 24 20    	vmovdqa 0x20(%rsp),%ymm0
  402fa1:	c5 fd 6f 4c 24 40    	vmovdqa 0x40(%rsp),%ymm1
  402fa7:	c5 f5 db c0          	vpand  %ymm0,%ymm1,%ymm0
  402fab:	c5 fd 7f 44 24 20    	vmovdqa %ymm0,0x20(%rsp)
  402fb1:	c5 fd 6f 44 24 20    	vmovdqa 0x20(%rsp),%ymm0
  402fb7:	c5 fd 6f 4c 24 40    	vmovdqa 0x40(%rsp),%ymm1
  402fbd:	c5 f5 db c0          	vpand  %ymm0,%ymm1,%ymm0
  402fc1:	c5 fd 7f 44 24 20    	vmovdqa %ymm0,0x20(%rsp)
  402fc7:	c5 fd 6f 44 24 20    	vmovdqa 0x20(%rsp),%ymm0
  402fcd:	c5 fd 6f 4c 24 40    	vmovdqa 0x40(%rsp),%ymm1
  402fd3:	c5 f5 db c0          	vpand  %ymm0,%ymm1,%ymm0
  402fd7:	c5 fd 7f 44 24 20    	vmovdqa %ymm0,0x20(%rsp)
  402fdd:	c5 fd 6f 44 24 20    	vmovdqa 0x20(%rsp),%ymm0
  402fe3:	c5 fd 6f 4c 24 40    	vmovdqa 0x40(%rsp),%ymm1
  402fe9:	c5 f5 db c0          	vpand  %ymm0,%ymm1,%ymm0
  402fed:	c5 fd 7f 44 24 20    	vmovdqa %ymm0,0x20(%rsp)
  402ff3:	c5 fd 6f 44 24 20    	vmovdqa 0x20(%rsp),%ymm0
  402ff9:	c5 fd 6f 4c 24 40    	vmovdqa 0x40(%rsp),%ymm1
  402fff:	c5 f5 db c0          	vpand  %ymm0,%ymm1,%ymm0
  403003:	c5 fd 7f 44 24 20    	vmovdqa %ymm0,0x20(%rsp)
  403009:	c5 fd 6f 44 24 20    	vmovdqa 0x20(%rsp),%ymm0
  40300f:	c5 fd 6f 4c 24 40    	vmovdqa 0x40(%rsp),%ymm1
  403015:	c5 f5 db c0          	vpand  %ymm0,%ymm1,%ymm0
  403019:	c5 fd 7f 44 24 20    	vmovdqa %ymm0,0x20(%rsp)
  40301f:	c5 fd 6f 44 24 20    	vmovdqa 0x20(%rsp),%ymm0
  403025:	c5 fd 6f 4c 24 40    	vmovdqa 0x40(%rsp),%ymm1
  40302b:	c5 f5 db c0          	vpand  %ymm0,%ymm1,%ymm0
  40302f:	c5 fd 7f 44 24 20    	vmovdqa %ymm0,0x20(%rsp)
  403035:	c5 fd 6f 44 24 20    	vmovdqa 0x20(%rsp),%ymm0
  40303b:	c5 fd 6f 4c 24 40    	vmovdqa 0x40(%rsp),%ymm1
  403041:	c5 f5 db c0          	vpand  %ymm0,%ymm1,%ymm0
  403045:	c5 fd 7f 44 24 20    	vmovdqa %ymm0,0x20(%rsp)
  40304b:	c5 fd 6f 44 24 20    	vmovdqa 0x20(%rsp),%ymm0
  403051:	c5 fd 6f 4c 24 40    	vmovdqa 0x40(%rsp),%ymm1
  403057:	c5 f5 db c0          	vpand  %ymm0,%ymm1,%ymm0
  40305b:	c5 fd 7f 44 24 20    	vmovdqa %ymm0,0x20(%rsp)
  403061:	c5 fd 6f 44 24 20    	vmovdqa 0x20(%rsp),%ymm0
  403067:	c5 fd 6f 4c 24 40    	vmovdqa 0x40(%rsp),%ymm1
  40306d:	c5 f5 db c0          	vpand  %ymm0,%ymm1,%ymm0
  403071:	c5 fd 7f 44 24 20    	vmovdqa %ymm0,0x20(%rsp)
  403077:	c5 fd 6f 44 24 20    	vmovdqa 0x20(%rsp),%ymm0
  40307d:	c5 fd 6f 4c 24 40    	vmovdqa 0x40(%rsp),%ymm1
  403083:	c5 f5 db c0          	vpand  %ymm0,%ymm1,%ymm0
  403087:	c5 fd 7f 44 24 20    	vmovdqa %ymm0,0x20(%rsp)
  40308d:	c5 fd 6f 44 24 20    	vmovdqa 0x20(%rsp),%ymm0
  403093:	c5 fd 6f 4c 24 40    	vmovdqa 0x40(%rsp),%ymm1
  403099:	c5 f5 db c0          	vpand  %ymm0,%ymm1,%ymm0
  40309d:	c5 fd 7f 44 24 20    	vmovdqa %ymm0,0x20(%rsp)
  4030a3:	c5 fd 6f 44 24 20    	vmovdqa 0x20(%rsp),%ymm0
  4030a9:	c5 fd 6f 4c 24 40    	vmovdqa 0x40(%rsp),%ymm1
  4030af:	c5 f5 db c0          	vpand  %ymm0,%ymm1,%ymm0
  4030b3:	c5 fd 7f 44 24 20    	vmovdqa %ymm0,0x20(%rsp)
  4030b9:	c5 fd 6f 44 24 20    	vmovdqa 0x20(%rsp),%ymm0
  4030bf:	c5 fd 6f 4c 24 40    	vmovdqa 0x40(%rsp),%ymm1
  4030c5:	c5 f5 db c0          	vpand  %ymm0,%ymm1,%ymm0
  4030c9:	c5 fd 7f 44 24 20    	vmovdqa %ymm0,0x20(%rsp)
  4030cf:	c5 fd 6f 44 24 20    	vmovdqa 0x20(%rsp),%ymm0
  4030d5:	c5 fd 6f 4c 24 40    	vmovdqa 0x40(%rsp),%ymm1
  4030db:	c5 f5 db c0          	vpand  %ymm0,%ymm1,%ymm0
  4030df:	c5 fd 7f 44 24 20    	vmovdqa %ymm0,0x20(%rsp)
  4030e5:	c5 fd 6f 44 24 20    	vmovdqa 0x20(%rsp),%ymm0
  4030eb:	c5 fd 6f 4c 24 40    	vmovdqa 0x40(%rsp),%ymm1
  4030f1:	c5 f5 db c0          	vpand  %ymm0,%ymm1,%ymm0
  4030f5:	c5 fd 7f 44 24 20    	vmovdqa %ymm0,0x20(%rsp)
  4030fb:	c5 fd 6f 44 24 20    	vmovdqa 0x20(%rsp),%ymm0
  403101:	c5 fd 6f 4c 24 40    	vmovdqa 0x40(%rsp),%ymm1
  403107:	c5 f5 db c0          	vpand  %ymm0,%ymm1,%ymm0
  40310b:	c5 fd 7f 44 24 20    	vmovdqa %ymm0,0x20(%rsp)
  403111:	c5 fd 6f 44 24 20    	vmovdqa 0x20(%rsp),%ymm0
  403117:	c5 fd 6f 4c 24 40    	vmovdqa 0x40(%rsp),%ymm1
  40311d:	c5 f5 db c0          	vpand  %ymm0,%ymm1,%ymm0
  403121:	c5 fd 7f 44 24 20    	vmovdqa %ymm0,0x20(%rsp)
  403127:	c5 fd 6f 44 24 20    	vmovdqa 0x20(%rsp),%ymm0
  40312d:	c5 fd 6f 4c 24 40    	vmovdqa 0x40(%rsp),%ymm1
  403133:	c5 f5 db c0          	vpand  %ymm0,%ymm1,%ymm0
  403137:	c5 fd 7f 44 24 20    	vmovdqa %ymm0,0x20(%rsp)
  40313d:	c5 fd 6f 44 24 20    	vmovdqa 0x20(%rsp),%ymm0
  403143:	c5 fd 6f 4c 24 40    	vmovdqa 0x40(%rsp),%ymm1
  403149:	c5 f5 db c0          	vpand  %ymm0,%ymm1,%ymm0
  40314d:	c5 fd 7f 44 24 20    	vmovdqa %ymm0,0x20(%rsp)
  403153:	c5 fd 6f 44 24 20    	vmovdqa 0x20(%rsp),%ymm0
  403159:	c5 fd 6f 4c 24 40    	vmovdqa 0x40(%rsp),%ymm1
  40315f:	c5 f5 db c0          	vpand  %ymm0,%ymm1,%ymm0
  403163:	c5 fd 7f 44 24 20    	vmovdqa %ymm0,0x20(%rsp)
  403169:	c5 fd 6f 44 24 20    	vmovdqa 0x20(%rsp),%ymm0
  40316f:	c5 fd 6f 4c 24 40    	vmovdqa 0x40(%rsp),%ymm1
  403175:	c5 f5 db c0          	vpand  %ymm0,%ymm1,%ymm0
  403179:	c5 fd 7f 44 24 20    	vmovdqa %ymm0,0x20(%rsp)
  40317f:	c5 fd 6f 44 24 20    	vmovdqa 0x20(%rsp),%ymm0
  403185:	c5 fd 6f 4c 24 40    	vmovdqa 0x40(%rsp),%ymm1
  40318b:	c5 f5 db c0          	vpand  %ymm0,%ymm1,%ymm0
  40318f:	c5 fd 7f 44 24 20    	vmovdqa %ymm0,0x20(%rsp)
  403195:	c5 fd 6f 44 24 20    	vmovdqa 0x20(%rsp),%ymm0
  40319b:	c5 fd 6f 4c 24 40    	vmovdqa 0x40(%rsp),%ymm1
  4031a1:	c5 f5 db c0          	vpand  %ymm0,%ymm1,%ymm0
  4031a5:	c5 fd 7f 44 24 20    	vmovdqa %ymm0,0x20(%rsp)
  4031ab:	c5 fd 6f 44 24 20    	vmovdqa 0x20(%rsp),%ymm0
  4031b1:	c5 fd 6f 4c 24 40    	vmovdqa 0x40(%rsp),%ymm1
  4031b7:	c5 f5 db c0          	vpand  %ymm0,%ymm1,%ymm0
  4031bb:	c5 fd 7f 44 24 20    	vmovdqa %ymm0,0x20(%rsp)
  4031c1:	c5 fd 6f 44 24 20    	vmovdqa 0x20(%rsp),%ymm0
  4031c7:	c5 fd 6f 4c 24 40    	vmovdqa 0x40(%rsp),%ymm1
  4031cd:	c5 f5 db c0          	vpand  %ymm0,%ymm1,%ymm0
  4031d1:	c5 fd 7f 44 24 20    	vmovdqa %ymm0,0x20(%rsp)
  4031d7:	c5 fd 6f 44 24 20    	vmovdqa 0x20(%rsp),%ymm0
  4031dd:	c5 fd 6f 4c 24 40    	vmovdqa 0x40(%rsp),%ymm1
  4031e3:	c5 f5 db c0          	vpand  %ymm0,%ymm1,%ymm0
  4031e7:	c5 fd 7f 44 24 20    	vmovdqa %ymm0,0x20(%rsp)
  4031ed:	c5 fd 6f 44 24 20    	vmovdqa 0x20(%rsp),%ymm0
  4031f3:	c5 fd 6f 4c 24 40    	vmovdqa 0x40(%rsp),%ymm1
  4031f9:	c5 f5 db c0          	vpand  %ymm0,%ymm1,%ymm0
  4031fd:	c5 fd 7f 44 24 20    	vmovdqa %ymm0,0x20(%rsp)
  403203:	c5 fd 6f 44 24 20    	vmovdqa 0x20(%rsp),%ymm0
  403209:	c5 fd 6f 4c 24 40    	vmovdqa 0x40(%rsp),%ymm1
  40320f:	c5 f5 db c0          	vpand  %ymm0,%ymm1,%ymm0
  403213:	c5 fd 7f 44 24 20    	vmovdqa %ymm0,0x20(%rsp)
  403219:	c5 fd 6f 44 24 20    	vmovdqa 0x20(%rsp),%ymm0
  40321f:	c5 fd 6f 4c 24 40    	vmovdqa 0x40(%rsp),%ymm1
  403225:	c5 f5 db c0          	vpand  %ymm0,%ymm1,%ymm0
  403229:	c5 fd 7f 44 24 20    	vmovdqa %ymm0,0x20(%rsp)
  40322f:	c5 fd 6f 44 24 20    	vmovdqa 0x20(%rsp),%ymm0
  403235:	c5 fd 6f 4c 24 40    	vmovdqa 0x40(%rsp),%ymm1
  40323b:	c5 f5 db c0          	vpand  %ymm0,%ymm1,%ymm0
  40323f:	c5 fd 7f 44 24 20    	vmovdqa %ymm0,0x20(%rsp)
  403245:	c5 fd 6f 44 24 20    	vmovdqa 0x20(%rsp),%ymm0
  40324b:	c5 fd 6f 4c 24 40    	vmovdqa 0x40(%rsp),%ymm1
  403251:	c5 f5 db c0          	vpand  %ymm0,%ymm1,%ymm0
  403255:	c5 fd 7f 44 24 20    	vmovdqa %ymm0,0x20(%rsp)
  40325b:	c5 fd 6f 44 24 20    	vmovdqa 0x20(%rsp),%ymm0
  403261:	c5 fd 6f 4c 24 40    	vmovdqa 0x40(%rsp),%ymm1
  403267:	c5 f5 db c0          	vpand  %ymm0,%ymm1,%ymm0
  40326b:	c5 fd 7f 44 24 20    	vmovdqa %ymm0,0x20(%rsp)
  403271:	c5 fd 6f 44 24 20    	vmovdqa 0x20(%rsp),%ymm0
  403277:	c5 fd 6f 4c 24 40    	vmovdqa 0x40(%rsp),%ymm1
  40327d:	c5 f5 db c0          	vpand  %ymm0,%ymm1,%ymm0
  403281:	c5 fd 7f 44 24 20    	vmovdqa %ymm0,0x20(%rsp)
  403287:	c5 fd 6f 44 24 20    	vmovdqa 0x20(%rsp),%ymm0
  40328d:	c5 fd 6f 4c 24 40    	vmovdqa 0x40(%rsp),%ymm1
  403293:	c5 f5 db c0          	vpand  %ymm0,%ymm1,%ymm0
  403297:	c5 fd 7f 44 24 20    	vmovdqa %ymm0,0x20(%rsp)
  40329d:	c5 fd 6f 44 24 20    	vmovdqa 0x20(%rsp),%ymm0
  4032a3:	c5 fd 6f 4c 24 40    	vmovdqa 0x40(%rsp),%ymm1
  4032a9:	c5 f5 db c0          	vpand  %ymm0,%ymm1,%ymm0
  4032ad:	c5 fd 7f 44 24 20    	vmovdqa %ymm0,0x20(%rsp)
  4032b3:	c5 fd 6f 44 24 20    	vmovdqa 0x20(%rsp),%ymm0
  4032b9:	c5 fd 6f 4c 24 40    	vmovdqa 0x40(%rsp),%ymm1
  4032bf:	c5 f5 db c0          	vpand  %ymm0,%ymm1,%ymm0
  4032c3:	c5 fd 7f 44 24 20    	vmovdqa %ymm0,0x20(%rsp)
  4032c9:	c5 fd 6f 44 24 20    	vmovdqa 0x20(%rsp),%ymm0
  4032cf:	c5 fd 6f 4c 24 40    	vmovdqa 0x40(%rsp),%ymm1
  4032d5:	c5 f5 db c0          	vpand  %ymm0,%ymm1,%ymm0
  4032d9:	c5 fd 7f 44 24 20    	vmovdqa %ymm0,0x20(%rsp)
  4032df:	c5 fd 6f 44 24 20    	vmovdqa 0x20(%rsp),%ymm0
  4032e5:	c5 fd 6f 4c 24 40    	vmovdqa 0x40(%rsp),%ymm1
  4032eb:	c5 f5 db c0          	vpand  %ymm0,%ymm1,%ymm0
  4032ef:	c5 fd 7f 44 24 20    	vmovdqa %ymm0,0x20(%rsp)
  4032f5:	c5 fd 6f 44 24 20    	vmovdqa 0x20(%rsp),%ymm0
  4032fb:	c5 fd 6f 4c 24 40    	vmovdqa 0x40(%rsp),%ymm1
  403301:	c5 f5 db c0          	vpand  %ymm0,%ymm1,%ymm0
  403305:	c5 fd 7f 44 24 20    	vmovdqa %ymm0,0x20(%rsp)
  40330b:	c5 fd 6f 44 24 20    	vmovdqa 0x20(%rsp),%ymm0
  403311:	c5 fd 6f 4c 24 40    	vmovdqa 0x40(%rsp),%ymm1
  403317:	c5 f5 db c0          	vpand  %ymm0,%ymm1,%ymm0
  40331b:	c5 fd 7f 44 24 20    	vmovdqa %ymm0,0x20(%rsp)
  403321:	c5 fd 6f 44 24 20    	vmovdqa 0x20(%rsp),%ymm0
  403327:	c5 fd 6f 4c 24 40    	vmovdqa 0x40(%rsp),%ymm1
  40332d:	c5 f5 db c0          	vpand  %ymm0,%ymm1,%ymm0
  403331:	c5 fd 7f 44 24 20    	vmovdqa %ymm0,0x20(%rsp)
  403337:	c5 fd 6f 44 24 20    	vmovdqa 0x20(%rsp),%ymm0
  40333d:	c5 fd 6f 4c 24 40    	vmovdqa 0x40(%rsp),%ymm1
  403343:	c5 f5 db c0          	vpand  %ymm0,%ymm1,%ymm0
  403347:	c5 fd 7f 44 24 20    	vmovdqa %ymm0,0x20(%rsp)
  40334d:	c5 fd 6f 44 24 20    	vmovdqa 0x20(%rsp),%ymm0
  403353:	c5 fd 6f 4c 24 40    	vmovdqa 0x40(%rsp),%ymm1
  403359:	c5 f5 db c0          	vpand  %ymm0,%ymm1,%ymm0
  40335d:	c5 fd 7f 44 24 20    	vmovdqa %ymm0,0x20(%rsp)
  403363:	c5 fd 6f 44 24 20    	vmovdqa 0x20(%rsp),%ymm0
  403369:	c5 fd 6f 4c 24 40    	vmovdqa 0x40(%rsp),%ymm1
  40336f:	c5 f5 db c0          	vpand  %ymm0,%ymm1,%ymm0
  403373:	c5 fd 7f 44 24 20    	vmovdqa %ymm0,0x20(%rsp)
  403379:	c5 fd 6f 44 24 20    	vmovdqa 0x20(%rsp),%ymm0
  40337f:	c5 fd 6f 4c 24 40    	vmovdqa 0x40(%rsp),%ymm1
  403385:	c5 f5 db c0          	vpand  %ymm0,%ymm1,%ymm0
  403389:	c5 fd 7f 44 24 20    	vmovdqa %ymm0,0x20(%rsp)
  40338f:	c5 fd 6f 44 24 20    	vmovdqa 0x20(%rsp),%ymm0
  403395:	c5 fd 6f 4c 24 40    	vmovdqa 0x40(%rsp),%ymm1
  40339b:	c5 f5 db c0          	vpand  %ymm0,%ymm1,%ymm0
  40339f:	c5 fd 7f 44 24 20    	vmovdqa %ymm0,0x20(%rsp)
  4033a5:	c5 fd 6f 44 24 20    	vmovdqa 0x20(%rsp),%ymm0
  4033ab:	c5 fd 6f 4c 24 40    	vmovdqa 0x40(%rsp),%ymm1
  4033b1:	c5 f5 db c0          	vpand  %ymm0,%ymm1,%ymm0
  4033b5:	c5 fd 7f 44 24 20    	vmovdqa %ymm0,0x20(%rsp)
  4033bb:	c5 fd 6f 44 24 20    	vmovdqa 0x20(%rsp),%ymm0
  4033c1:	c5 fd 6f 4c 24 40    	vmovdqa 0x40(%rsp),%ymm1
  4033c7:	c5 f5 db c0          	vpand  %ymm0,%ymm1,%ymm0
  4033cb:	c5 fd 7f 44 24 20    	vmovdqa %ymm0,0x20(%rsp)
  4033d1:	c5 fd 6f 44 24 20    	vmovdqa 0x20(%rsp),%ymm0
  4033d7:	c5 fd 6f 4c 24 40    	vmovdqa 0x40(%rsp),%ymm1
  4033dd:	c5 f5 db c0          	vpand  %ymm0,%ymm1,%ymm0
  4033e1:	c5 fd 7f 44 24 20    	vmovdqa %ymm0,0x20(%rsp)
  4033e7:	c5 fd 6f 44 24 20    	vmovdqa 0x20(%rsp),%ymm0
  4033ed:	c5 fd 6f 4c 24 40    	vmovdqa 0x40(%rsp),%ymm1
  4033f3:	c5 f5 db c0          	vpand  %ymm0,%ymm1,%ymm0
  4033f7:	c5 fd 7f 44 24 20    	vmovdqa %ymm0,0x20(%rsp)
  4033fd:	c5 fd 6f 44 24 20    	vmovdqa 0x20(%rsp),%ymm0
  403403:	c5 fd 6f 4c 24 40    	vmovdqa 0x40(%rsp),%ymm1
  403409:	c5 f5 db c0          	vpand  %ymm0,%ymm1,%ymm0
  40340d:	c5 fd 7f 44 24 20    	vmovdqa %ymm0,0x20(%rsp)
  403413:	c5 fd 6f 44 24 20    	vmovdqa 0x20(%rsp),%ymm0
  403419:	c5 fd 6f 4c 24 40    	vmovdqa 0x40(%rsp),%ymm1
  40341f:	c5 f5 db c0          	vpand  %ymm0,%ymm1,%ymm0
  403423:	c5 fd 7f 44 24 20    	vmovdqa %ymm0,0x20(%rsp)
  403429:	c5 fd 6f 44 24 20    	vmovdqa 0x20(%rsp),%ymm0
  40342f:	c5 fd 6f 4c 24 40    	vmovdqa 0x40(%rsp),%ymm1
  403435:	c5 f5 db c0          	vpand  %ymm0,%ymm1,%ymm0
  403439:	c5 fd 7f 44 24 20    	vmovdqa %ymm0,0x20(%rsp)
  40343f:	c5 fd 6f 44 24 20    	vmovdqa 0x20(%rsp),%ymm0
  403445:	c5 fd 6f 4c 24 40    	vmovdqa 0x40(%rsp),%ymm1
  40344b:	c5 f5 db c0          	vpand  %ymm0,%ymm1,%ymm0
  40344f:	c5 fd 7f 44 24 20    	vmovdqa %ymm0,0x20(%rsp)
  403455:	c5 fd 6f 44 24 20    	vmovdqa 0x20(%rsp),%ymm0
  40345b:	c5 fd 6f 4c 24 40    	vmovdqa 0x40(%rsp),%ymm1
  403461:	c5 f5 db c0          	vpand  %ymm0,%ymm1,%ymm0
  403465:	c5 fd 7f 44 24 20    	vmovdqa %ymm0,0x20(%rsp)
  40346b:	c5 fd 6f 44 24 20    	vmovdqa 0x20(%rsp),%ymm0
  403471:	c5 fd 6f 4c 24 40    	vmovdqa 0x40(%rsp),%ymm1
  403477:	c5 f5 db c0          	vpand  %ymm0,%ymm1,%ymm0
  40347b:	c5 fd 7f 44 24 20    	vmovdqa %ymm0,0x20(%rsp)
  403481:	c5 fd 6f 44 24 20    	vmovdqa 0x20(%rsp),%ymm0
  403487:	c5 fd 6f 4c 24 40    	vmovdqa 0x40(%rsp),%ymm1
  40348d:	c5 f5 db c0          	vpand  %ymm0,%ymm1,%ymm0
  403491:	c5 fd 7f 44 24 20    	vmovdqa %ymm0,0x20(%rsp)
  403497:	c5 fd 6f 44 24 20    	vmovdqa 0x20(%rsp),%ymm0
  40349d:	c5 fd 6f 4c 24 40    	vmovdqa 0x40(%rsp),%ymm1
  4034a3:	c5 f5 db c0          	vpand  %ymm0,%ymm1,%ymm0
  4034a7:	c5 fd 7f 44 24 20    	vmovdqa %ymm0,0x20(%rsp)
  4034ad:	c5 fd 6f 44 24 20    	vmovdqa 0x20(%rsp),%ymm0
  4034b3:	c5 fd 6f 4c 24 40    	vmovdqa 0x40(%rsp),%ymm1
  4034b9:	c5 f5 db c0          	vpand  %ymm0,%ymm1,%ymm0
  4034bd:	c5 fd 7f 44 24 20    	vmovdqa %ymm0,0x20(%rsp)
  4034c3:	c5 fd 6f 44 24 20    	vmovdqa 0x20(%rsp),%ymm0
  4034c9:	c5 fd 6f 4c 24 40    	vmovdqa 0x40(%rsp),%ymm1
  4034cf:	c5 f5 db c0          	vpand  %ymm0,%ymm1,%ymm0
  4034d3:	c5 fd 7f 44 24 20    	vmovdqa %ymm0,0x20(%rsp)
  4034d9:	c5 fd 6f 44 24 20    	vmovdqa 0x20(%rsp),%ymm0
  4034df:	c5 fd 6f 4c 24 40    	vmovdqa 0x40(%rsp),%ymm1
  4034e5:	c5 f5 db c0          	vpand  %ymm0,%ymm1,%ymm0
  4034e9:	c5 fd 7f 44 24 20    	vmovdqa %ymm0,0x20(%rsp)
  4034ef:	c5 fd 6f 44 24 20    	vmovdqa 0x20(%rsp),%ymm0
  4034f5:	c5 fd 6f 4c 24 40    	vmovdqa 0x40(%rsp),%ymm1
  4034fb:	c5 f5 db c0          	vpand  %ymm0,%ymm1,%ymm0
  4034ff:	c5 fd 7f 44 24 20    	vmovdqa %ymm0,0x20(%rsp)
  403505:	c5 fd 6f 44 24 20    	vmovdqa 0x20(%rsp),%ymm0
  40350b:	c5 fd 6f 4c 24 40    	vmovdqa 0x40(%rsp),%ymm1
  403511:	c5 f5 db c0          	vpand  %ymm0,%ymm1,%ymm0
  403515:	c5 fd 7f 44 24 20    	vmovdqa %ymm0,0x20(%rsp)
  40351b:	c5 fd 6f 44 24 20    	vmovdqa 0x20(%rsp),%ymm0
  403521:	c5 fd 6f 4c 24 40    	vmovdqa 0x40(%rsp),%ymm1
  403527:	c5 f5 db c0          	vpand  %ymm0,%ymm1,%ymm0
  40352b:	c5 fd 7f 44 24 20    	vmovdqa %ymm0,0x20(%rsp)
  403531:	c5 fd 6f 44 24 20    	vmovdqa 0x20(%rsp),%ymm0
  403537:	c5 fd 6f 4c 24 40    	vmovdqa 0x40(%rsp),%ymm1
  40353d:	c5 f5 db c0          	vpand  %ymm0,%ymm1,%ymm0
  403541:	c5 fd 7f 44 24 20    	vmovdqa %ymm0,0x20(%rsp)
  403547:	c5 fd 6f 44 24 20    	vmovdqa 0x20(%rsp),%ymm0
  40354d:	c5 fd 6f 4c 24 40    	vmovdqa 0x40(%rsp),%ymm1
  403553:	c5 f5 db c0          	vpand  %ymm0,%ymm1,%ymm0
  403557:	c5 fd 7f 44 24 20    	vmovdqa %ymm0,0x20(%rsp)
  40355d:	c5 fd 6f 44 24 20    	vmovdqa 0x20(%rsp),%ymm0
  403563:	c5 fd 6f 4c 24 40    	vmovdqa 0x40(%rsp),%ymm1
  403569:	c5 f5 db c0          	vpand  %ymm0,%ymm1,%ymm0
  40356d:	c5 fd 7f 44 24 20    	vmovdqa %ymm0,0x20(%rsp)
  403573:	c5 fd 6f 44 24 20    	vmovdqa 0x20(%rsp),%ymm0
  403579:	c5 fd 6f 4c 24 40    	vmovdqa 0x40(%rsp),%ymm1
  40357f:	c5 f5 db c0          	vpand  %ymm0,%ymm1,%ymm0
  403583:	c5 fd 7f 44 24 20    	vmovdqa %ymm0,0x20(%rsp)
  403589:	c5 fd 6f 44 24 20    	vmovdqa 0x20(%rsp),%ymm0
  40358f:	c5 fd 6f 4c 24 40    	vmovdqa 0x40(%rsp),%ymm1
  403595:	c5 f5 db c0          	vpand  %ymm0,%ymm1,%ymm0
  403599:	c5 fd 7f 44 24 20    	vmovdqa %ymm0,0x20(%rsp)
  40359f:	c5 fd 6f 44 24 20    	vmovdqa 0x20(%rsp),%ymm0
  4035a5:	c5 fd 6f 4c 24 40    	vmovdqa 0x40(%rsp),%ymm1
  4035ab:	c5 f5 db c0          	vpand  %ymm0,%ymm1,%ymm0
  4035af:	c5 fd 7f 44 24 20    	vmovdqa %ymm0,0x20(%rsp)
  4035b5:	c5 fd 6f 44 24 20    	vmovdqa 0x20(%rsp),%ymm0
  4035bb:	c5 fd 6f 4c 24 40    	vmovdqa 0x40(%rsp),%ymm1
  4035c1:	c5 f5 db c0          	vpand  %ymm0,%ymm1,%ymm0
  4035c5:	c5 fd 7f 44 24 20    	vmovdqa %ymm0,0x20(%rsp)
  4035cb:	c5 fd 6f 44 24 20    	vmovdqa 0x20(%rsp),%ymm0
  4035d1:	c5 fd 6f 4c 24 40    	vmovdqa 0x40(%rsp),%ymm1
  4035d7:	c5 f5 db c0          	vpand  %ymm0,%ymm1,%ymm0
  4035db:	c5 fd 7f 44 24 20    	vmovdqa %ymm0,0x20(%rsp)
  4035e1:	c5 fd 6f 44 24 20    	vmovdqa 0x20(%rsp),%ymm0
  4035e7:	c5 fd 6f 4c 24 40    	vmovdqa 0x40(%rsp),%ymm1
  4035ed:	c5 f5 db c0          	vpand  %ymm0,%ymm1,%ymm0
  4035f1:	c5 fd 7f 44 24 20    	vmovdqa %ymm0,0x20(%rsp)
  4035f7:	c5 fd 6f 44 24 20    	vmovdqa 0x20(%rsp),%ymm0
  4035fd:	c5 fd 6f 4c 24 40    	vmovdqa 0x40(%rsp),%ymm1
  403603:	c5 f5 db c0          	vpand  %ymm0,%ymm1,%ymm0
  403607:	c5 fd 7f 44 24 20    	vmovdqa %ymm0,0x20(%rsp)
  40360d:	c5 fd 6f 44 24 20    	vmovdqa 0x20(%rsp),%ymm0
  403613:	c5 fd 6f 4c 24 40    	vmovdqa 0x40(%rsp),%ymm1
  403619:	c5 f5 db c0          	vpand  %ymm0,%ymm1,%ymm0
  40361d:	c5 fd 7f 44 24 20    	vmovdqa %ymm0,0x20(%rsp)
  403623:	c5 fd 6f 44 24 20    	vmovdqa 0x20(%rsp),%ymm0
  403629:	c5 fd 6f 4c 24 40    	vmovdqa 0x40(%rsp),%ymm1
  40362f:	c5 f5 db c0          	vpand  %ymm0,%ymm1,%ymm0
  403633:	c5 fd 7f 44 24 20    	vmovdqa %ymm0,0x20(%rsp)
  403639:	c5 fd 6f 44 24 20    	vmovdqa 0x20(%rsp),%ymm0
  40363f:	c5 fd 6f 4c 24 40    	vmovdqa 0x40(%rsp),%ymm1
  403645:	c5 f5 db c0          	vpand  %ymm0,%ymm1,%ymm0
  403649:	c5 fd 7f 44 24 20    	vmovdqa %ymm0,0x20(%rsp)
  40364f:	c5 fd 6f 44 24 20    	vmovdqa 0x20(%rsp),%ymm0
  403655:	c5 fd 6f 4c 24 40    	vmovdqa 0x40(%rsp),%ymm1
  40365b:	c5 f5 db c0          	vpand  %ymm0,%ymm1,%ymm0
  40365f:	c5 fd 7f 44 24 20    	vmovdqa %ymm0,0x20(%rsp)
  403665:	c5 fd 6f 44 24 20    	vmovdqa 0x20(%rsp),%ymm0
  40366b:	c5 fd 6f 4c 24 40    	vmovdqa 0x40(%rsp),%ymm1
  403671:	c5 f5 db c0          	vpand  %ymm0,%ymm1,%ymm0
  403675:	c5 fd 7f 44 24 20    	vmovdqa %ymm0,0x20(%rsp)
  40367b:	c5 fd 6f 44 24 20    	vmovdqa 0x20(%rsp),%ymm0
  403681:	c5 fd 6f 4c 24 40    	vmovdqa 0x40(%rsp),%ymm1
  403687:	c5 f5 db c0          	vpand  %ymm0,%ymm1,%ymm0
  40368b:	c5 fd 7f 44 24 20    	vmovdqa %ymm0,0x20(%rsp)
  403691:	c5 fd 6f 44 24 20    	vmovdqa 0x20(%rsp),%ymm0
  403697:	c5 fd 6f 4c 24 40    	vmovdqa 0x40(%rsp),%ymm1
  40369d:	c5 f5 db c0          	vpand  %ymm0,%ymm1,%ymm0
  4036a1:	c5 fd 7f 44 24 20    	vmovdqa %ymm0,0x20(%rsp)
  4036a7:	c5 fd 6f 44 24 20    	vmovdqa 0x20(%rsp),%ymm0
  4036ad:	c5 fd 6f 4c 24 40    	vmovdqa 0x40(%rsp),%ymm1
  4036b3:	c5 f5 db c0          	vpand  %ymm0,%ymm1,%ymm0
  4036b7:	c5 fd 7f 44 24 20    	vmovdqa %ymm0,0x20(%rsp)
  4036bd:	c5 fd 6f 44 24 20    	vmovdqa 0x20(%rsp),%ymm0
  4036c3:	c5 fd 6f 4c 24 40    	vmovdqa 0x40(%rsp),%ymm1
  4036c9:	c5 f5 db c0          	vpand  %ymm0,%ymm1,%ymm0
  4036cd:	c5 fd 7f 44 24 20    	vmovdqa %ymm0,0x20(%rsp)
  4036d3:	c5 fd 6f 44 24 20    	vmovdqa 0x20(%rsp),%ymm0
  4036d9:	c5 fd 6f 4c 24 40    	vmovdqa 0x40(%rsp),%ymm1
  4036df:	c5 f5 db c0          	vpand  %ymm0,%ymm1,%ymm0
  4036e3:	c5 fd 7f 44 24 20    	vmovdqa %ymm0,0x20(%rsp)
  4036e9:	c5 fd 6f 44 24 20    	vmovdqa 0x20(%rsp),%ymm0
  4036ef:	c5 fd 6f 4c 24 40    	vmovdqa 0x40(%rsp),%ymm1
  4036f5:	c5 f5 db c0          	vpand  %ymm0,%ymm1,%ymm0
  4036f9:	c5 fd 7f 44 24 20    	vmovdqa %ymm0,0x20(%rsp)
  4036ff:	c5 fd 6f 44 24 20    	vmovdqa 0x20(%rsp),%ymm0
  403705:	c5 fd 6f 4c 24 40    	vmovdqa 0x40(%rsp),%ymm1
  40370b:	c5 f5 db c0          	vpand  %ymm0,%ymm1,%ymm0
  40370f:	c5 fd 7f 44 24 20    	vmovdqa %ymm0,0x20(%rsp)
  403715:	c5 fd 6f 44 24 20    	vmovdqa 0x20(%rsp),%ymm0
  40371b:	c5 fd 6f 4c 24 40    	vmovdqa 0x40(%rsp),%ymm1
  403721:	c5 f5 db c0          	vpand  %ymm0,%ymm1,%ymm0
  403725:	c5 fd 7f 44 24 20    	vmovdqa %ymm0,0x20(%rsp)
  40372b:	c5 fd 6f 44 24 20    	vmovdqa 0x20(%rsp),%ymm0
  403731:	c5 fd 6f 4c 24 40    	vmovdqa 0x40(%rsp),%ymm1
  403737:	c5 f5 db c0          	vpand  %ymm0,%ymm1,%ymm0
  40373b:	c5 fd 7f 44 24 20    	vmovdqa %ymm0,0x20(%rsp)
  403741:	c5 fd 6f 44 24 20    	vmovdqa 0x20(%rsp),%ymm0
  403747:	c5 fd 6f 4c 24 40    	vmovdqa 0x40(%rsp),%ymm1
  40374d:	c5 f5 db c0          	vpand  %ymm0,%ymm1,%ymm0
  403751:	c5 fd 7f 44 24 20    	vmovdqa %ymm0,0x20(%rsp)
  403757:	c5 fd 6f 44 24 20    	vmovdqa 0x20(%rsp),%ymm0
  40375d:	c5 fd 6f 4c 24 40    	vmovdqa 0x40(%rsp),%ymm1
  403763:	c5 f5 db c0          	vpand  %ymm0,%ymm1,%ymm0
  403767:	c5 fd 7f 44 24 20    	vmovdqa %ymm0,0x20(%rsp)
  40376d:	c5 fd 6f 44 24 20    	vmovdqa 0x20(%rsp),%ymm0
  403773:	c5 fd 6f 4c 24 40    	vmovdqa 0x40(%rsp),%ymm1
  403779:	c5 f5 db c0          	vpand  %ymm0,%ymm1,%ymm0
  40377d:	c5 fd 7f 44 24 20    	vmovdqa %ymm0,0x20(%rsp)
  403783:	c5 fd 6f 44 24 20    	vmovdqa 0x20(%rsp),%ymm0
  403789:	c5 fd 6f 4c 24 40    	vmovdqa 0x40(%rsp),%ymm1
  40378f:	c5 f5 db c0          	vpand  %ymm0,%ymm1,%ymm0
  403793:	c5 fd 7f 44 24 20    	vmovdqa %ymm0,0x20(%rsp)
  403799:	c5 fd 6f 44 24 20    	vmovdqa 0x20(%rsp),%ymm0
  40379f:	c5 fd 6f 4c 24 40    	vmovdqa 0x40(%rsp),%ymm1
  4037a5:	c5 f5 db c0          	vpand  %ymm0,%ymm1,%ymm0
  4037a9:	c5 fd 7f 44 24 20    	vmovdqa %ymm0,0x20(%rsp)
  4037af:	c5 fd 6f 44 24 20    	vmovdqa 0x20(%rsp),%ymm0
  4037b5:	c5 fd 6f 4c 24 40    	vmovdqa 0x40(%rsp),%ymm1
  4037bb:	c5 f5 db c0          	vpand  %ymm0,%ymm1,%ymm0
  4037bf:	c5 fd 7f 44 24 20    	vmovdqa %ymm0,0x20(%rsp)
  4037c5:	c5 fd 6f 44 24 20    	vmovdqa 0x20(%rsp),%ymm0
  4037cb:	c5 fd 6f 4c 24 40    	vmovdqa 0x40(%rsp),%ymm1
  4037d1:	c5 f5 db c0          	vpand  %ymm0,%ymm1,%ymm0
  4037d5:	c5 fd 7f 44 24 20    	vmovdqa %ymm0,0x20(%rsp)
  4037db:	c5 fd 6f 44 24 20    	vmovdqa 0x20(%rsp),%ymm0
  4037e1:	c5 fd 6f 4c 24 40    	vmovdqa 0x40(%rsp),%ymm1
  4037e7:	c5 f5 db c0          	vpand  %ymm0,%ymm1,%ymm0
  4037eb:	c5 fd 7f 44 24 20    	vmovdqa %ymm0,0x20(%rsp)
  4037f1:	c5 fd 6f 44 24 20    	vmovdqa 0x20(%rsp),%ymm0
  4037f7:	c5 fd 6f 4c 24 40    	vmovdqa 0x40(%rsp),%ymm1
  4037fd:	c5 f5 db c0          	vpand  %ymm0,%ymm1,%ymm0
  403801:	c5 fd 7f 44 24 20    	vmovdqa %ymm0,0x20(%rsp)
  403807:	c5 fd 6f 44 24 20    	vmovdqa 0x20(%rsp),%ymm0
  40380d:	c5 fd 6f 4c 24 40    	vmovdqa 0x40(%rsp),%ymm1
  403813:	c5 f5 db c0          	vpand  %ymm0,%ymm1,%ymm0
  403817:	c5 fd 7f 44 24 20    	vmovdqa %ymm0,0x20(%rsp)
  40381d:	c5 fd 6f 44 24 20    	vmovdqa 0x20(%rsp),%ymm0
  403823:	c5 fd 6f 4c 24 40    	vmovdqa 0x40(%rsp),%ymm1
  403829:	c5 f5 db c0          	vpand  %ymm0,%ymm1,%ymm0
  40382d:	c5 fd 7f 44 24 20    	vmovdqa %ymm0,0x20(%rsp)
  403833:	c5 fd 6f 44 24 20    	vmovdqa 0x20(%rsp),%ymm0
  403839:	c5 fd 6f 4c 24 40    	vmovdqa 0x40(%rsp),%ymm1
  40383f:	c5 f5 db c0          	vpand  %ymm0,%ymm1,%ymm0
  403843:	c5 fd 7f 44 24 20    	vmovdqa %ymm0,0x20(%rsp)
  403849:	c5 fd 6f 44 24 20    	vmovdqa 0x20(%rsp),%ymm0
  40384f:	c5 fd 6f 4c 24 40    	vmovdqa 0x40(%rsp),%ymm1
  403855:	c5 f5 db c0          	vpand  %ymm0,%ymm1,%ymm0
  403859:	c5 fd 7f 44 24 20    	vmovdqa %ymm0,0x20(%rsp)
  40385f:	c5 fd 6f 44 24 20    	vmovdqa 0x20(%rsp),%ymm0
  403865:	c5 fd 6f 4c 24 40    	vmovdqa 0x40(%rsp),%ymm1
  40386b:	c5 f5 db c0          	vpand  %ymm0,%ymm1,%ymm0
  40386f:	c5 fd 7f 44 24 20    	vmovdqa %ymm0,0x20(%rsp)
  403875:	c5 fd 6f 44 24 20    	vmovdqa 0x20(%rsp),%ymm0
  40387b:	c5 fd 6f 4c 24 40    	vmovdqa 0x40(%rsp),%ymm1
  403881:	c5 f5 db c0          	vpand  %ymm0,%ymm1,%ymm0
  403885:	c5 fd 7f 44 24 20    	vmovdqa %ymm0,0x20(%rsp)
  40388b:	c5 fd 6f 44 24 20    	vmovdqa 0x20(%rsp),%ymm0
  403891:	c5 fd 6f 4c 24 40    	vmovdqa 0x40(%rsp),%ymm1
  403897:	c5 f5 db c0          	vpand  %ymm0,%ymm1,%ymm0
  40389b:	c5 fd 7f 44 24 20    	vmovdqa %ymm0,0x20(%rsp)
  4038a1:	c5 fd 6f 44 24 20    	vmovdqa 0x20(%rsp),%ymm0
  4038a7:	c5 fd 6f 4c 24 40    	vmovdqa 0x40(%rsp),%ymm1
  4038ad:	c5 f5 db c0          	vpand  %ymm0,%ymm1,%ymm0
  4038b1:	c5 fd 7f 44 24 20    	vmovdqa %ymm0,0x20(%rsp)
  4038b7:	c5 fd 6f 44 24 20    	vmovdqa 0x20(%rsp),%ymm0
  4038bd:	c5 fd 6f 4c 24 40    	vmovdqa 0x40(%rsp),%ymm1
  4038c3:	c5 f5 db c0          	vpand  %ymm0,%ymm1,%ymm0
  4038c7:	c5 fd 7f 44 24 20    	vmovdqa %ymm0,0x20(%rsp)
  4038cd:	c5 fd 6f 44 24 20    	vmovdqa 0x20(%rsp),%ymm0
  4038d3:	c5 fd 6f 4c 24 40    	vmovdqa 0x40(%rsp),%ymm1
  4038d9:	c5 f5 db c0          	vpand  %ymm0,%ymm1,%ymm0
  4038dd:	c5 fd 7f 44 24 20    	vmovdqa %ymm0,0x20(%rsp)
  4038e3:	c5 fd 6f 44 24 20    	vmovdqa 0x20(%rsp),%ymm0
  4038e9:	c5 fd 6f 4c 24 40    	vmovdqa 0x40(%rsp),%ymm1
  4038ef:	c5 f5 db c0          	vpand  %ymm0,%ymm1,%ymm0
  4038f3:	c5 fd 7f 44 24 20    	vmovdqa %ymm0,0x20(%rsp)
  4038f9:	c5 fd 6f 44 24 20    	vmovdqa 0x20(%rsp),%ymm0
  4038ff:	c5 fd 6f 4c 24 40    	vmovdqa 0x40(%rsp),%ymm1
  403905:	c5 f5 db c0          	vpand  %ymm0,%ymm1,%ymm0
  403909:	c5 fd 7f 44 24 20    	vmovdqa %ymm0,0x20(%rsp)
  40390f:	c5 fd 6f 44 24 20    	vmovdqa 0x20(%rsp),%ymm0
  403915:	c5 fd 6f 4c 24 40    	vmovdqa 0x40(%rsp),%ymm1
  40391b:	c5 f5 db c0          	vpand  %ymm0,%ymm1,%ymm0
  40391f:	c5 fd 7f 44 24 20    	vmovdqa %ymm0,0x20(%rsp)
  403925:	c5 fd 6f 44 24 20    	vmovdqa 0x20(%rsp),%ymm0
  40392b:	c5 fd 6f 4c 24 40    	vmovdqa 0x40(%rsp),%ymm1
  403931:	c5 f5 db c0          	vpand  %ymm0,%ymm1,%ymm0
  403935:	c5 fd 7f 44 24 20    	vmovdqa %ymm0,0x20(%rsp)
  40393b:	c5 fd 6f 44 24 20    	vmovdqa 0x20(%rsp),%ymm0
  403941:	c5 fd 6f 4c 24 40    	vmovdqa 0x40(%rsp),%ymm1
  403947:	c5 f5 db c0          	vpand  %ymm0,%ymm1,%ymm0
  40394b:	c5 fd 7f 44 24 20    	vmovdqa %ymm0,0x20(%rsp)
  403951:	c5 fd 6f 44 24 20    	vmovdqa 0x20(%rsp),%ymm0
  403957:	c5 fd 6f 4c 24 40    	vmovdqa 0x40(%rsp),%ymm1
  40395d:	c5 f5 db c0          	vpand  %ymm0,%ymm1,%ymm0
  403961:	c5 fd 7f 44 24 20    	vmovdqa %ymm0,0x20(%rsp)
  403967:	c5 fd 6f 44 24 20    	vmovdqa 0x20(%rsp),%ymm0
  40396d:	c5 fd 6f 4c 24 40    	vmovdqa 0x40(%rsp),%ymm1
  403973:	c5 f5 db c0          	vpand  %ymm0,%ymm1,%ymm0
  403977:	c5 fd 7f 44 24 20    	vmovdqa %ymm0,0x20(%rsp)
  40397d:	c5 fd 6f 44 24 20    	vmovdqa 0x20(%rsp),%ymm0
  403983:	c5 fd 6f 4c 24 40    	vmovdqa 0x40(%rsp),%ymm1
  403989:	c5 f5 db c0          	vpand  %ymm0,%ymm1,%ymm0
  40398d:	c5 fd 7f 44 24 20    	vmovdqa %ymm0,0x20(%rsp)
  403993:	c5 fd 6f 44 24 20    	vmovdqa 0x20(%rsp),%ymm0
  403999:	c5 fd 6f 4c 24 40    	vmovdqa 0x40(%rsp),%ymm1
  40399f:	c5 f5 db c0          	vpand  %ymm0,%ymm1,%ymm0
  4039a3:	c5 fd 7f 44 24 20    	vmovdqa %ymm0,0x20(%rsp)
  4039a9:	c5 fd 6f 44 24 20    	vmovdqa 0x20(%rsp),%ymm0
  4039af:	c5 fd 6f 4c 24 40    	vmovdqa 0x40(%rsp),%ymm1
  4039b5:	c5 f5 db c0          	vpand  %ymm0,%ymm1,%ymm0
  4039b9:	c5 fd 7f 44 24 20    	vmovdqa %ymm0,0x20(%rsp)
  4039bf:	c5 fd 6f 44 24 20    	vmovdqa 0x20(%rsp),%ymm0
  4039c5:	c5 fd 6f 4c 24 40    	vmovdqa 0x40(%rsp),%ymm1
  4039cb:	c5 f5 db c0          	vpand  %ymm0,%ymm1,%ymm0
  4039cf:	c5 fd 7f 44 24 20    	vmovdqa %ymm0,0x20(%rsp)
  4039d5:	c5 fd 6f 44 24 20    	vmovdqa 0x20(%rsp),%ymm0
  4039db:	c5 fd 6f 4c 24 40    	vmovdqa 0x40(%rsp),%ymm1
  4039e1:	c5 f5 db c0          	vpand  %ymm0,%ymm1,%ymm0
  4039e5:	c5 fd 7f 44 24 20    	vmovdqa %ymm0,0x20(%rsp)
  4039eb:	c5 fd 6f 44 24 20    	vmovdqa 0x20(%rsp),%ymm0
  4039f1:	c5 fd 6f 4c 24 40    	vmovdqa 0x40(%rsp),%ymm1
  4039f7:	c5 f5 db c0          	vpand  %ymm0,%ymm1,%ymm0
  4039fb:	c5 fd 7f 44 24 20    	vmovdqa %ymm0,0x20(%rsp)
  403a01:	c5 fd 6f 44 24 20    	vmovdqa 0x20(%rsp),%ymm0
  403a07:	c5 fd 6f 4c 24 40    	vmovdqa 0x40(%rsp),%ymm1
  403a0d:	c5 f5 db c0          	vpand  %ymm0,%ymm1,%ymm0
  403a11:	c5 fd 7f 44 24 20    	vmovdqa %ymm0,0x20(%rsp)
  403a17:	c5 fd 6f 44 24 20    	vmovdqa 0x20(%rsp),%ymm0
  403a1d:	c5 fd 6f 4c 24 40    	vmovdqa 0x40(%rsp),%ymm1
  403a23:	c5 f5 db c0          	vpand  %ymm0,%ymm1,%ymm0
  403a27:	c5 fd 7f 44 24 20    	vmovdqa %ymm0,0x20(%rsp)
  403a2d:	c5 fd 6f 44 24 20    	vmovdqa 0x20(%rsp),%ymm0
  403a33:	c5 fd 6f 4c 24 40    	vmovdqa 0x40(%rsp),%ymm1
  403a39:	c5 f5 db c0          	vpand  %ymm0,%ymm1,%ymm0
  403a3d:	c5 fd 7f 44 24 20    	vmovdqa %ymm0,0x20(%rsp)
  403a43:	c5 fd 6f 44 24 20    	vmovdqa 0x20(%rsp),%ymm0
  403a49:	c5 fd 6f 4c 24 40    	vmovdqa 0x40(%rsp),%ymm1
  403a4f:	c5 f5 db c0          	vpand  %ymm0,%ymm1,%ymm0
  403a53:	c5 fd 7f 44 24 20    	vmovdqa %ymm0,0x20(%rsp)
  403a59:	c5 fd 6f 44 24 20    	vmovdqa 0x20(%rsp),%ymm0
  403a5f:	c5 fd 6f 4c 24 40    	vmovdqa 0x40(%rsp),%ymm1
  403a65:	c5 f5 db c0          	vpand  %ymm0,%ymm1,%ymm0
  403a69:	c5 fd 7f 44 24 20    	vmovdqa %ymm0,0x20(%rsp)
  403a6f:	c5 fd 6f 44 24 20    	vmovdqa 0x20(%rsp),%ymm0
  403a75:	c5 fd 6f 4c 24 40    	vmovdqa 0x40(%rsp),%ymm1
  403a7b:	c5 f5 db c0          	vpand  %ymm0,%ymm1,%ymm0
  403a7f:	c5 fd 7f 44 24 20    	vmovdqa %ymm0,0x20(%rsp)
  403a85:	c5 fd 6f 44 24 20    	vmovdqa 0x20(%rsp),%ymm0
  403a8b:	c5 fd 6f 4c 24 40    	vmovdqa 0x40(%rsp),%ymm1
  403a91:	c5 f5 db c0          	vpand  %ymm0,%ymm1,%ymm0
  403a95:	c5 fd 7f 44 24 20    	vmovdqa %ymm0,0x20(%rsp)
  403a9b:	c5 fd 6f 44 24 20    	vmovdqa 0x20(%rsp),%ymm0
  403aa1:	c5 fd 6f 4c 24 40    	vmovdqa 0x40(%rsp),%ymm1
  403aa7:	c5 f5 db c0          	vpand  %ymm0,%ymm1,%ymm0
  403aab:	c5 fd 7f 44 24 20    	vmovdqa %ymm0,0x20(%rsp)
  403ab1:	c5 fd 6f 44 24 20    	vmovdqa 0x20(%rsp),%ymm0
  403ab7:	c5 fd 6f 4c 24 40    	vmovdqa 0x40(%rsp),%ymm1
  403abd:	c5 f5 db c0          	vpand  %ymm0,%ymm1,%ymm0
  403ac1:	c5 fd 7f 44 24 20    	vmovdqa %ymm0,0x20(%rsp)
  403ac7:	c5 fd 6f 44 24 20    	vmovdqa 0x20(%rsp),%ymm0
  403acd:	c5 fd 6f 4c 24 40    	vmovdqa 0x40(%rsp),%ymm1
  403ad3:	c5 f5 db c0          	vpand  %ymm0,%ymm1,%ymm0
  403ad7:	c5 fd 7f 44 24 20    	vmovdqa %ymm0,0x20(%rsp)
  403add:	c5 fd 6f 44 24 20    	vmovdqa 0x20(%rsp),%ymm0
  403ae3:	c5 fd 6f 4c 24 40    	vmovdqa 0x40(%rsp),%ymm1
  403ae9:	c5 f5 db c0          	vpand  %ymm0,%ymm1,%ymm0
  403aed:	c5 fd 7f 44 24 20    	vmovdqa %ymm0,0x20(%rsp)
  403af3:	c5 fd 6f 44 24 20    	vmovdqa 0x20(%rsp),%ymm0
  403af9:	c5 fd 6f 4c 24 40    	vmovdqa 0x40(%rsp),%ymm1
  403aff:	c5 f5 db c0          	vpand  %ymm0,%ymm1,%ymm0
  403b03:	c5 fd 7f 44 24 20    	vmovdqa %ymm0,0x20(%rsp)
  403b09:	c5 fd 6f 44 24 20    	vmovdqa 0x20(%rsp),%ymm0
  403b0f:	c5 fd 6f 4c 24 40    	vmovdqa 0x40(%rsp),%ymm1
  403b15:	c5 f5 db c0          	vpand  %ymm0,%ymm1,%ymm0
  403b19:	c5 fd 7f 44 24 20    	vmovdqa %ymm0,0x20(%rsp)
  403b1f:	c5 fd 6f 44 24 20    	vmovdqa 0x20(%rsp),%ymm0
  403b25:	c5 fd 6f 4c 24 40    	vmovdqa 0x40(%rsp),%ymm1
  403b2b:	c5 f5 db c0          	vpand  %ymm0,%ymm1,%ymm0
  403b2f:	c5 fd 7f 44 24 20    	vmovdqa %ymm0,0x20(%rsp)
  403b35:	c5 fd 6f 44 24 20    	vmovdqa 0x20(%rsp),%ymm0
  403b3b:	c5 fd 6f 4c 24 40    	vmovdqa 0x40(%rsp),%ymm1
  403b41:	c5 f5 db c0          	vpand  %ymm0,%ymm1,%ymm0
  403b45:	c5 fd 7f 44 24 20    	vmovdqa %ymm0,0x20(%rsp)
  403b4b:	c5 fd 6f 44 24 20    	vmovdqa 0x20(%rsp),%ymm0
  403b51:	c5 fd 6f 4c 24 40    	vmovdqa 0x40(%rsp),%ymm1
  403b57:	c5 f5 db c0          	vpand  %ymm0,%ymm1,%ymm0
  403b5b:	c5 fd 7f 44 24 20    	vmovdqa %ymm0,0x20(%rsp)
  403b61:	c5 fd 6f 44 24 20    	vmovdqa 0x20(%rsp),%ymm0
  403b67:	c5 fd 6f 4c 24 40    	vmovdqa 0x40(%rsp),%ymm1
  403b6d:	c5 f5 db c0          	vpand  %ymm0,%ymm1,%ymm0
  403b71:	c5 fd 7f 44 24 20    	vmovdqa %ymm0,0x20(%rsp)
  403b77:	c5 fd 6f 44 24 20    	vmovdqa 0x20(%rsp),%ymm0
  403b7d:	c5 fd 6f 4c 24 40    	vmovdqa 0x40(%rsp),%ymm1
  403b83:	c5 f5 db c0          	vpand  %ymm0,%ymm1,%ymm0
  403b87:	c5 fd 7f 44 24 20    	vmovdqa %ymm0,0x20(%rsp)
  403b8d:	c5 fd 6f 44 24 20    	vmovdqa 0x20(%rsp),%ymm0
  403b93:	c5 fd 6f 4c 24 40    	vmovdqa 0x40(%rsp),%ymm1
  403b99:	c5 f5 db c0          	vpand  %ymm0,%ymm1,%ymm0
  403b9d:	c5 fd 7f 44 24 20    	vmovdqa %ymm0,0x20(%rsp)
  403ba3:	c5 fd 6f 44 24 20    	vmovdqa 0x20(%rsp),%ymm0
  403ba9:	c5 fd 6f 4c 24 40    	vmovdqa 0x40(%rsp),%ymm1
  403baf:	c5 f5 db c0          	vpand  %ymm0,%ymm1,%ymm0
  403bb3:	c5 fd 7f 44 24 20    	vmovdqa %ymm0,0x20(%rsp)
  403bb9:	c5 fd 6f 44 24 20    	vmovdqa 0x20(%rsp),%ymm0
  403bbf:	c5 fd 6f 4c 24 40    	vmovdqa 0x40(%rsp),%ymm1
  403bc5:	c5 f5 db c0          	vpand  %ymm0,%ymm1,%ymm0
  403bc9:	c5 fd 7f 44 24 20    	vmovdqa %ymm0,0x20(%rsp)
  403bcf:	c5 fd 6f 44 24 20    	vmovdqa 0x20(%rsp),%ymm0
  403bd5:	c5 fd 6f 4c 24 40    	vmovdqa 0x40(%rsp),%ymm1
  403bdb:	c5 f5 db c0          	vpand  %ymm0,%ymm1,%ymm0
  403bdf:	c5 fd 7f 44 24 20    	vmovdqa %ymm0,0x20(%rsp)
  403be5:	c5 fd 6f 44 24 20    	vmovdqa 0x20(%rsp),%ymm0
  403beb:	c5 fd 6f 4c 24 40    	vmovdqa 0x40(%rsp),%ymm1
  403bf1:	c5 f5 db c0          	vpand  %ymm0,%ymm1,%ymm0
  403bf5:	c5 fd 7f 44 24 20    	vmovdqa %ymm0,0x20(%rsp)
  403bfb:	c5 fd 6f 44 24 20    	vmovdqa 0x20(%rsp),%ymm0
  403c01:	c5 fd 6f 4c 24 40    	vmovdqa 0x40(%rsp),%ymm1
  403c07:	c5 f5 db c0          	vpand  %ymm0,%ymm1,%ymm0
  403c0b:	c5 fd 7f 44 24 20    	vmovdqa %ymm0,0x20(%rsp)
  403c11:	c5 fd 6f 44 24 20    	vmovdqa 0x20(%rsp),%ymm0
  403c17:	c5 fd 6f 4c 24 40    	vmovdqa 0x40(%rsp),%ymm1
  403c1d:	c5 f5 db c0          	vpand  %ymm0,%ymm1,%ymm0
  403c21:	c5 fd 7f 44 24 20    	vmovdqa %ymm0,0x20(%rsp)
  403c27:	c5 fd 6f 44 24 20    	vmovdqa 0x20(%rsp),%ymm0
  403c2d:	c5 fd 6f 4c 24 40    	vmovdqa 0x40(%rsp),%ymm1
  403c33:	c5 f5 db c0          	vpand  %ymm0,%ymm1,%ymm0
  403c37:	c5 fd 7f 44 24 20    	vmovdqa %ymm0,0x20(%rsp)
  403c3d:	c5 fd 6f 44 24 20    	vmovdqa 0x20(%rsp),%ymm0
  403c43:	c5 fd 6f 4c 24 40    	vmovdqa 0x40(%rsp),%ymm1
  403c49:	c5 f5 db c0          	vpand  %ymm0,%ymm1,%ymm0
  403c4d:	c5 fd 7f 44 24 20    	vmovdqa %ymm0,0x20(%rsp)
  403c53:	c5 fd 6f 44 24 20    	vmovdqa 0x20(%rsp),%ymm0
  403c59:	c5 fd 6f 4c 24 40    	vmovdqa 0x40(%rsp),%ymm1
  403c5f:	c5 f5 db c0          	vpand  %ymm0,%ymm1,%ymm0
  403c63:	c5 fd 7f 44 24 20    	vmovdqa %ymm0,0x20(%rsp)
  403c69:	c5 fd 6f 44 24 20    	vmovdqa 0x20(%rsp),%ymm0
  403c6f:	c5 fd 6f 4c 24 40    	vmovdqa 0x40(%rsp),%ymm1
  403c75:	c5 f5 db c0          	vpand  %ymm0,%ymm1,%ymm0
  403c79:	c5 fd 7f 44 24 20    	vmovdqa %ymm0,0x20(%rsp)
  403c7f:	c5 fd 6f 44 24 20    	vmovdqa 0x20(%rsp),%ymm0
  403c85:	c5 fd 6f 4c 24 40    	vmovdqa 0x40(%rsp),%ymm1
  403c8b:	c5 f5 db c0          	vpand  %ymm0,%ymm1,%ymm0
  403c8f:	c5 fd 7f 44 24 20    	vmovdqa %ymm0,0x20(%rsp)
  403c95:	c5 fd 6f 44 24 20    	vmovdqa 0x20(%rsp),%ymm0
  403c9b:	c5 fd 6f 4c 24 40    	vmovdqa 0x40(%rsp),%ymm1
  403ca1:	c5 f5 db c0          	vpand  %ymm0,%ymm1,%ymm0
  403ca5:	c5 fd 7f 44 24 20    	vmovdqa %ymm0,0x20(%rsp)
  403cab:	c5 fd 6f 44 24 20    	vmovdqa 0x20(%rsp),%ymm0
  403cb1:	c5 fd 6f 4c 24 40    	vmovdqa 0x40(%rsp),%ymm1
  403cb7:	c5 f5 db c0          	vpand  %ymm0,%ymm1,%ymm0
  403cbb:	c5 fd 7f 44 24 20    	vmovdqa %ymm0,0x20(%rsp)
  403cc1:	c5 fd 6f 44 24 20    	vmovdqa 0x20(%rsp),%ymm0
  403cc7:	c5 fd 6f 4c 24 40    	vmovdqa 0x40(%rsp),%ymm1
  403ccd:	c5 f5 db c0          	vpand  %ymm0,%ymm1,%ymm0
  403cd1:	c5 fd 7f 44 24 20    	vmovdqa %ymm0,0x20(%rsp)
  403cd7:	c5 fd 6f 44 24 20    	vmovdqa 0x20(%rsp),%ymm0
  403cdd:	c5 fd 6f 4c 24 40    	vmovdqa 0x40(%rsp),%ymm1
  403ce3:	c5 f5 db c0          	vpand  %ymm0,%ymm1,%ymm0
  403ce7:	c5 fd 7f 44 24 20    	vmovdqa %ymm0,0x20(%rsp)
  403ced:	c5 fd 6f 44 24 20    	vmovdqa 0x20(%rsp),%ymm0
  403cf3:	c5 fd 6f 4c 24 40    	vmovdqa 0x40(%rsp),%ymm1
  403cf9:	c5 f5 db c0          	vpand  %ymm0,%ymm1,%ymm0
  403cfd:	c5 fd 7f 44 24 20    	vmovdqa %ymm0,0x20(%rsp)
  403d03:	c5 fd 6f 44 24 20    	vmovdqa 0x20(%rsp),%ymm0
  403d09:	c5 fd 6f 4c 24 40    	vmovdqa 0x40(%rsp),%ymm1
  403d0f:	c5 f5 db c0          	vpand  %ymm0,%ymm1,%ymm0
  403d13:	c5 fd 7f 44 24 20    	vmovdqa %ymm0,0x20(%rsp)
  403d19:	c5 fd 6f 44 24 20    	vmovdqa 0x20(%rsp),%ymm0
  403d1f:	c5 fd 6f 4c 24 40    	vmovdqa 0x40(%rsp),%ymm1
  403d25:	c5 f5 db c0          	vpand  %ymm0,%ymm1,%ymm0
  403d29:	c5 fd 7f 44 24 20    	vmovdqa %ymm0,0x20(%rsp)
  403d2f:	c5 fd 6f 44 24 20    	vmovdqa 0x20(%rsp),%ymm0
